
G474RE_Stand_IM2.elf:     file format elf32-littlearm

Sections:
Idx Name          Size      VMA       LMA       File off  Algn
  0 .isr_vector   000001d8  08000000  08000000  00001000  2**0
                  CONTENTS, ALLOC, LOAD, READONLY, DATA
  1 .text         00007c88  080001d8  080001d8  000011d8  2**3
                  CONTENTS, ALLOC, LOAD, READONLY, CODE
  2 .rodata       00000b10  08007e60  08007e60  00008e60  2**2
                  CONTENTS, ALLOC, LOAD, READONLY, DATA
  3 .ARM.extab    00000000  08008970  08008970  0000a02c  2**0
                  CONTENTS
  4 .ARM          00000008  08008970  08008970  00009970  2**2
                  CONTENTS, ALLOC, LOAD, READONLY, DATA
  5 .preinit_array 00000000  08008978  08008978  0000a02c  2**0
                  CONTENTS, ALLOC, LOAD, DATA
  6 .init_array   00000004  08008978  08008978  00009978  2**2
                  CONTENTS, ALLOC, LOAD, DATA
  7 .fini_array   00000004  0800897c  0800897c  0000997c  2**2
                  CONTENTS, ALLOC, LOAD, DATA
  8 .data         0000002c  20000000  08008980  0000a000  2**2
                  CONTENTS, ALLOC, LOAD, DATA
  9 .bss          000086c0  20000030  080089ac  0000a030  2**3
                  ALLOC
 10 ._user_heap_stack 00000600  200086f0  080089ac  0000a6f0  2**0
                  ALLOC
 11 .ARM.attributes 00000030  00000000  00000000  0000a02c  2**0
                  CONTENTS, READONLY
 12 .debug_info   00026b1a  00000000  00000000  0000a05c  2**0
                  CONTENTS, READONLY, DEBUGGING, OCTETS
 13 .debug_abbrev 000055c2  00000000  00000000  00030b76  2**0
                  CONTENTS, READONLY, DEBUGGING, OCTETS
 14 .debug_loclists 0000af11  00000000  00000000  00036138  2**0
                  CONTENTS, READONLY, DEBUGGING, OCTETS
 15 .debug_aranges 00000d80  00000000  00000000  00041050  2**3
                  CONTENTS, READONLY, DEBUGGING, OCTETS
 16 .debug_rnglists 00001c92  00000000  00000000  00041dd0  2**0
                  CONTENTS, READONLY, DEBUGGING, OCTETS
 17 .debug_macro  0002a35b  00000000  00000000  00043a62  2**0
                  CONTENTS, READONLY, DEBUGGING, OCTETS
 18 .debug_line   0002193e  00000000  00000000  0006ddbd  2**0
                  CONTENTS, READONLY, DEBUGGING, OCTETS
 19 .debug_str    000e9386  00000000  00000000  0008f6fb  2**0
                  CONTENTS, READONLY, DEBUGGING, OCTETS
 20 .comment      0000006e  00000000  00000000  00178a81  2**0
                  CONTENTS, READONLY
 21 .debug_frame  00001f30  00000000  00000000  00178af0  2**2
                  CONTENTS, READONLY, DEBUGGING, OCTETS
 22 .debug_line_str 0000006f  00000000  00000000  0017aa20  2**0
                  CONTENTS, READONLY, DEBUGGING, OCTETS

Disassembly of section .text:

080001d8 <__do_global_dtors_aux>:
 80001d8:	b510      	push	{r4, lr}
 80001da:	4c05      	ldr	r4, [pc, #20]	@ (80001f0 <__do_global_dtors_aux+0x18>)
 80001dc:	7823      	ldrb	r3, [r4, #0]
 80001de:	b933      	cbnz	r3, 80001ee <__do_global_dtors_aux+0x16>
 80001e0:	4b04      	ldr	r3, [pc, #16]	@ (80001f4 <__do_global_dtors_aux+0x1c>)
 80001e2:	b113      	cbz	r3, 80001ea <__do_global_dtors_aux+0x12>
 80001e4:	4804      	ldr	r0, [pc, #16]	@ (80001f8 <__do_global_dtors_aux+0x20>)
 80001e6:	f3af 8000 	nop.w
 80001ea:	2301      	movs	r3, #1
 80001ec:	7023      	strb	r3, [r4, #0]
 80001ee:	bd10      	pop	{r4, pc}
 80001f0:	20000030 	.word	0x20000030
 80001f4:	00000000 	.word	0x00000000
 80001f8:	08007e48 	.word	0x08007e48

080001fc <frame_dummy>:
 80001fc:	b508      	push	{r3, lr}
 80001fe:	4b03      	ldr	r3, [pc, #12]	@ (800020c <frame_dummy+0x10>)
 8000200:	b11b      	cbz	r3, 800020a <frame_dummy+0xe>
 8000202:	4903      	ldr	r1, [pc, #12]	@ (8000210 <frame_dummy+0x14>)
 8000204:	4803      	ldr	r0, [pc, #12]	@ (8000214 <frame_dummy+0x18>)
 8000206:	f3af 8000 	nop.w
 800020a:	bd08      	pop	{r3, pc}
 800020c:	00000000 	.word	0x00000000
 8000210:	20000034 	.word	0x20000034
 8000214:	08007e48 	.word	0x08007e48

08000218 <ClarkeNPark_Float32_Update>:
 8000218:	b510      	push	{r4, lr}
 800021a:	6903      	ldr	r3, [r0, #16]
 800021c:	ed2d 8b02 	vpush	{d8}
 8000220:	edd3 8a00 	vldr	s17, [r3]
 8000224:	eeb0 0a68 	vmov.f32	s0, s17
 8000228:	4604      	mov	r4, r0
 800022a:	f007 f8dd 	bl	80073e8 <sinf>
 800022e:	eeb0 8a40 	vmov.f32	s16, s0
 8000232:	eeb0 0a68 	vmov.f32	s0, s17
 8000236:	f007 f893 	bl	8007360 <cosf>
 800023a:	68a3      	ldr	r3, [r4, #8]
 800023c:	eddf 6a13 	vldr	s13, [pc, #76]	@ 800028c <ClarkeNPark_Float32_Update+0x74>
 8000240:	ed93 5a00 	vldr	s10, [r3]
 8000244:	6863      	ldr	r3, [r4, #4]
 8000246:	eddf 4a12 	vldr	s9, [pc, #72]	@ 8000290 <ClarkeNPark_Float32_Update+0x78>
 800024a:	ed93 4a00 	vldr	s8, [r3]
 800024e:	68e3      	ldr	r3, [r4, #12]
 8000250:	eddf 5a10 	vldr	s11, [pc, #64]	@ 8000294 <ClarkeNPark_Float32_Update+0x7c>
 8000254:	ed93 6a00 	vldr	s12, [r3]
 8000258:	ee66 7ac5 	vnmul.f32	s15, s13, s10
 800025c:	ee25 7ac6 	vnmul.f32	s14, s11, s12
 8000260:	eee4 7a24 	vfma.f32	s15, s8, s9
 8000264:	eea5 7a25 	vfma.f32	s14, s10, s11
 8000268:	eee6 7a66 	vfms.f32	s15, s12, s13
 800026c:	ee68 6a07 	vmul.f32	s13, s16, s14
 8000270:	ee27 8ac8 	vnmul.f32	s16, s15, s16
 8000274:	eee0 6a27 	vfma.f32	s13, s0, s15
 8000278:	eea0 8a07 	vfma.f32	s16, s0, s14
 800027c:	edc4 6a05 	vstr	s13, [r4, #20]
 8000280:	ed84 8a06 	vstr	s16, [r4, #24]
 8000284:	ecbd 8b02 	vpop	{d8}
 8000288:	bd10      	pop	{r4, pc}
 800028a:	bf00      	nop
 800028c:	3eaaaaab 	.word	0x3eaaaaab
 8000290:	3f2aaaab 	.word	0x3f2aaaab
 8000294:	3f13cd3a 	.word	0x3f13cd3a

08000298 <ClarkeNPark_Float32_Init>:
 8000298:	2300      	movs	r3, #0
 800029a:	f240 6283 	movw	r2, #1667	@ 0x683
 800029e:	8002      	strh	r2, [r0, #0]
 80002a0:	6143      	str	r3, [r0, #20]
 80002a2:	6183      	str	r3, [r0, #24]
 80002a4:	4770      	bx	lr
 80002a6:	bf00      	nop

080002a8 <ClarkeNPark_Float32_GetAddress>:
 80002a8:	3901      	subs	r1, #1
 80002aa:	2905      	cmp	r1, #5
 80002ac:	d810      	bhi.n	80002d0 <ClarkeNPark_Float32_GetAddress+0x28>
 80002ae:	e8df f001 	tbb	[pc, r1]
 80002b2:	0705      	.short	0x0705
 80002b4:	030d0b09 	.word	0x030d0b09
 80002b8:	3018      	adds	r0, #24
 80002ba:	4770      	bx	lr
 80002bc:	6840      	ldr	r0, [r0, #4]
 80002be:	4770      	bx	lr
 80002c0:	6880      	ldr	r0, [r0, #8]
 80002c2:	4770      	bx	lr
 80002c4:	68c0      	ldr	r0, [r0, #12]
 80002c6:	4770      	bx	lr
 80002c8:	6900      	ldr	r0, [r0, #16]
 80002ca:	4770      	bx	lr
 80002cc:	3014      	adds	r0, #20
 80002ce:	4770      	bx	lr
 80002d0:	2000      	movs	r0, #0
 80002d2:	4770      	bx	lr

080002d4 <InvPark_Float32_Update>:
 80002d4:	b510      	push	{r4, lr}
 80002d6:	68c3      	ldr	r3, [r0, #12]
 80002d8:	ed2d 8b02 	vpush	{d8}
 80002dc:	edd3 8a00 	vldr	s17, [r3]
 80002e0:	eeb0 0a68 	vmov.f32	s0, s17
 80002e4:	4604      	mov	r4, r0
 80002e6:	f007 f87f 	bl	80073e8 <sinf>
 80002ea:	eeb0 8a40 	vmov.f32	s16, s0
 80002ee:	eeb0 0a68 	vmov.f32	s0, s17
 80002f2:	f007 f835 	bl	8007360 <cosf>
 80002f6:	e9d4 2301 	ldrd	r2, r3, [r4, #4]
 80002fa:	ed92 7a00 	vldr	s14, [r2]
 80002fe:	edd3 6a00 	vldr	s13, [r3]
 8000302:	ee67 7a08 	vmul.f32	s15, s14, s16
 8000306:	ee28 8a66 	vnmul.f32	s16, s16, s13
 800030a:	eee6 7a80 	vfma.f32	s15, s13, s0
 800030e:	eea7 8a00 	vfma.f32	s16, s14, s0
 8000312:	edc4 7a05 	vstr	s15, [r4, #20]
 8000316:	ed84 8a04 	vstr	s16, [r4, #16]
 800031a:	ecbd 8b02 	vpop	{d8}
 800031e:	bd10      	pop	{r4, pc}

08000320 <InvPark_Float32_Init>:
 8000320:	2300      	movs	r3, #0
 8000322:	f240 6273 	movw	r2, #1651	@ 0x673
 8000326:	8002      	strh	r2, [r0, #0]
 8000328:	6103      	str	r3, [r0, #16]
 800032a:	6143      	str	r3, [r0, #20]
 800032c:	4770      	bx	lr
 800032e:	bf00      	nop

08000330 <InvPark_Float32_GetAddress>:
 8000330:	3901      	subs	r1, #1
 8000332:	2904      	cmp	r1, #4
 8000334:	d80e      	bhi.n	8000354 <InvPark_Float32_GetAddress+0x24>
 8000336:	e8df f001 	tbb	[pc, r1]
 800033a:	0705      	.short	0x0705
 800033c:	0b09      	.short	0x0b09
 800033e:	03          	.byte	0x03
 800033f:	00          	.byte	0x00
 8000340:	3014      	adds	r0, #20
 8000342:	4770      	bx	lr
 8000344:	6840      	ldr	r0, [r0, #4]
 8000346:	4770      	bx	lr
 8000348:	6880      	ldr	r0, [r0, #8]
 800034a:	4770      	bx	lr
 800034c:	68c0      	ldr	r0, [r0, #12]
 800034e:	4770      	bx	lr
 8000350:	3010      	adds	r0, #16
 8000352:	4770      	bx	lr
 8000354:	2000      	movs	r0, #0
 8000356:	4770      	bx	lr

08000358 <SpaceVectorAdjust_Float32_Update>:
 8000358:	68c3      	ldr	r3, [r0, #12]
 800035a:	edd3 7a00 	vldr	s15, [r3]
 800035e:	eef5 7a40 	vcmp.f32	s15, #0.0
 8000362:	eef1 fa10 	vmrs	APSR_nzcv, fpscr
 8000366:	f04f 0200 	mov.w	r2, #0
 800036a:	d102      	bne.n	8000372 <SpaceVectorAdjust_Float32_Update+0x1a>
 800036c:	6102      	str	r2, [r0, #16]
 800036e:	6142      	str	r2, [r0, #20]
 8000370:	4770      	bx	lr
 8000372:	e9d0 1201 	ldrd	r1, r2, [r0, #4]
 8000376:	edd1 6a00 	vldr	s13, [r1]
 800037a:	ee86 7aa7 	vdiv.f32	s14, s13, s15
 800037e:	ed80 7a04 	vstr	s14, [r0, #16]
 8000382:	edd2 6a00 	vldr	s13, [r2]
 8000386:	ed93 7a00 	vldr	s14, [r3]
 800038a:	eec6 7a87 	vdiv.f32	s15, s13, s14
 800038e:	edc0 7a05 	vstr	s15, [r0, #20]
 8000392:	4770      	bx	lr

08000394 <SpaceVectorAdjust_Float32_Init>:
 8000394:	2300      	movs	r3, #0
 8000396:	f240 7273 	movw	r2, #1907	@ 0x773
 800039a:	8002      	strh	r2, [r0, #0]
 800039c:	6103      	str	r3, [r0, #16]
 800039e:	6143      	str	r3, [r0, #20]
 80003a0:	4770      	bx	lr
 80003a2:	bf00      	nop

080003a4 <SpaceVectorAdjust_Float32_GetAddress>:
 80003a4:	3901      	subs	r1, #1
 80003a6:	2904      	cmp	r1, #4
 80003a8:	d80e      	bhi.n	80003c8 <SpaceVectorAdjust_Float32_GetAddress+0x24>
 80003aa:	e8df f001 	tbb	[pc, r1]
 80003ae:	0705      	.short	0x0705
 80003b0:	0b09      	.short	0x0b09
 80003b2:	03          	.byte	0x03
 80003b3:	00          	.byte	0x00
 80003b4:	3014      	adds	r0, #20
 80003b6:	4770      	bx	lr
 80003b8:	6840      	ldr	r0, [r0, #4]
 80003ba:	4770      	bx	lr
 80003bc:	6880      	ldr	r0, [r0, #8]
 80003be:	4770      	bx	lr
 80003c0:	68c0      	ldr	r0, [r0, #12]
 80003c2:	4770      	bx	lr
 80003c4:	3010      	adds	r0, #16
 80003c6:	4770      	bx	lr
 80003c8:	2000      	movs	r0, #0
 80003ca:	4770      	bx	lr

080003cc <SpaceVectorMod_Float32_Update>:
 80003cc:	e9d0 2301 	ldrd	r2, r3, [r0, #4]
 80003d0:	ed93 7a00 	vldr	s14, [r3]
 80003d4:	edd2 5a00 	vldr	s11, [r2]
 80003d8:	ed9f 6a59 	vldr	s12, [pc, #356]	@ 8000540 <SpaceVectorMod_Float32_Update+0x174>
 80003dc:	f990 2018 	ldrsb.w	r2, [r0, #24]
 80003e0:	eef6 7a00 	vmov.f32	s15, #96	@ 0x3f000000  0.5
 80003e4:	ee67 7a27 	vmul.f32	s15, s14, s15
 80003e8:	2100      	movs	r1, #0
 80003ea:	eef0 6a67 	vmov.f32	s13, s15
 80003ee:	eee5 6a86 	vfma.f32	s13, s11, s12
 80003f2:	eee5 7ac6 	vfms.f32	s15, s11, s12
 80003f6:	eef5 6ac0 	vcmpe.f32	s13, #0.0
 80003fa:	eef1 fa10 	vmrs	APSR_nzcv, fpscr
 80003fe:	eef5 7ac0 	vcmpe.f32	s15, #0.0
 8000402:	dd25      	ble.n	8000450 <SpaceVectorMod_Float32_Update+0x84>
 8000404:	eef1 fa10 	vmrs	APSR_nzcv, fpscr
 8000408:	eeb5 7ac0 	vcmpe.f32	s14, #0.0
 800040c:	dd0c      	ble.n	8000428 <SpaceVectorMod_Float32_Update+0x5c>
 800040e:	eef1 fa10 	vmrs	APSR_nzcv, fpscr
 8000412:	d432      	bmi.n	800047a <SpaceVectorMod_Float32_Update+0xae>
 8000414:	2a00      	cmp	r2, #0
 8000416:	d053      	beq.n	80004c0 <SpaceVectorMod_Float32_Update+0xf4>
 8000418:	ee76 7aa7 	vadd.f32	s15, s13, s15
 800041c:	edc0 6a03 	vstr	s13, [r0, #12]
 8000420:	edc0 7a04 	vstr	s15, [r0, #16]
 8000424:	6141      	str	r1, [r0, #20]
 8000426:	4770      	bx	lr
 8000428:	eef1 fa10 	vmrs	APSR_nzcv, fpscr
 800042c:	d436      	bmi.n	800049c <SpaceVectorMod_Float32_Update+0xd0>
 800042e:	2a00      	cmp	r2, #0
 8000430:	d17b      	bne.n	800052a <SpaceVectorMod_Float32_Update+0x15e>
 8000432:	ee37 7a67 	vsub.f32	s14, s14, s15
 8000436:	ed80 7a03 	vstr	s14, [r0, #12]
 800043a:	edd3 6a00 	vldr	s13, [r3]
 800043e:	ee76 7aa7 	vadd.f32	s15, s13, s15
 8000442:	eeb1 7a47 	vneg.f32	s14, s14
 8000446:	ed80 7a05 	vstr	s14, [r0, #20]
 800044a:	edc0 7a04 	vstr	s15, [r0, #16]
 800044e:	4770      	bx	lr
 8000450:	eef1 fa10 	vmrs	APSR_nzcv, fpscr
 8000454:	eeb5 7ac0 	vcmpe.f32	s14, #0.0
 8000458:	dd49      	ble.n	80004ee <SpaceVectorMod_Float32_Update+0x122>
 800045a:	eef1 fa10 	vmrs	APSR_nzcv, fpscr
 800045e:	d411      	bmi.n	8000484 <SpaceVectorMod_Float32_Update+0xb8>
 8000460:	b1ea      	cbz	r2, 800049e <SpaceVectorMod_Float32_Update+0xd2>
 8000462:	60c1      	str	r1, [r0, #12]
 8000464:	edd3 7a00 	vldr	s15, [r3]
 8000468:	ee77 7ae6 	vsub.f32	s15, s15, s13
 800046c:	eef1 6a66 	vneg.f32	s13, s13
 8000470:	edc0 7a04 	vstr	s15, [r0, #16]
 8000474:	edc0 6a05 	vstr	s13, [r0, #20]
 8000478:	4770      	bx	lr
 800047a:	2300      	movs	r3, #0
 800047c:	60c3      	str	r3, [r0, #12]
 800047e:	6103      	str	r3, [r0, #16]
 8000480:	6143      	str	r3, [r0, #20]
 8000482:	4770      	bx	lr
 8000484:	2a00      	cmp	r2, #0
 8000486:	d058      	beq.n	800053a <SpaceVectorMod_Float32_Update+0x16e>
 8000488:	edc0 7a04 	vstr	s15, [r0, #16]
 800048c:	60c1      	str	r1, [r0, #12]
 800048e:	ed93 7a00 	vldr	s14, [r3]
 8000492:	ee77 7ac7 	vsub.f32	s15, s15, s14
 8000496:	edc0 7a05 	vstr	s15, [r0, #20]
 800049a:	4770      	bx	lr
 800049c:	bbca      	cbnz	r2, 8000512 <SpaceVectorMod_Float32_Update+0x146>
 800049e:	ee36 7ac7 	vsub.f32	s14, s13, s14
 80004a2:	eef1 6a66 	vneg.f32	s13, s13
 80004a6:	eef1 7a47 	vneg.f32	s15, s14
 80004aa:	ed80 7a03 	vstr	s14, [r0, #12]
 80004ae:	edc0 7a04 	vstr	s15, [r0, #16]
 80004b2:	edd3 7a00 	vldr	s15, [r3]
 80004b6:	ee76 6ae7 	vsub.f32	s13, s13, s15
 80004ba:	edc0 6a05 	vstr	s13, [r0, #20]
 80004be:	4770      	bx	lr
 80004c0:	2203      	movs	r2, #3
 80004c2:	2101      	movs	r1, #1
 80004c4:	fa01 f202 	lsl.w	r2, r1, r2
 80004c8:	f012 0f42 	tst.w	r2, #66	@ 0x42
 80004cc:	d1b1      	bne.n	8000432 <SpaceVectorMod_Float32_Update+0x66>
 80004ce:	f012 0f18 	tst.w	r2, #24
 80004d2:	d0d2      	beq.n	800047a <SpaceVectorMod_Float32_Update+0xae>
 80004d4:	ee76 7ae7 	vsub.f32	s15, s13, s15
 80004d8:	edc0 7a03 	vstr	s15, [r0, #12]
 80004dc:	edd3 7a00 	vldr	s15, [r3]
 80004e0:	eeb1 7a67 	vneg.f32	s14, s15
 80004e4:	edc0 7a04 	vstr	s15, [r0, #16]
 80004e8:	ed80 7a05 	vstr	s14, [r0, #20]
 80004ec:	4770      	bx	lr
 80004ee:	eef1 fa10 	vmrs	APSR_nzcv, fpscr
 80004f2:	d5c2      	bpl.n	800047a <SpaceVectorMod_Float32_Update+0xae>
 80004f4:	b90a      	cbnz	r2, 80004fa <SpaceVectorMod_Float32_Update+0x12e>
 80004f6:	2204      	movs	r2, #4
 80004f8:	e7e3      	b.n	80004c2 <SpaceVectorMod_Float32_Update+0xf6>
 80004fa:	eef1 6a66 	vneg.f32	s13, s13
 80004fe:	ee76 6ae7 	vsub.f32	s13, s13, s15
 8000502:	eef1 7a67 	vneg.f32	s15, s15
 8000506:	edc0 6a05 	vstr	s13, [r0, #20]
 800050a:	edc0 7a03 	vstr	s15, [r0, #12]
 800050e:	6101      	str	r1, [r0, #16]
 8000510:	4770      	bx	lr
 8000512:	ee36 7ac7 	vsub.f32	s14, s13, s14
 8000516:	6101      	str	r1, [r0, #16]
 8000518:	ed80 7a03 	vstr	s14, [r0, #12]
 800051c:	edd3 7a00 	vldr	s15, [r3]
 8000520:	eef1 7a67 	vneg.f32	s15, s15
 8000524:	edc0 7a05 	vstr	s15, [r0, #20]
 8000528:	4770      	bx	lr
 800052a:	ee77 7a67 	vsub.f32	s15, s14, s15
 800052e:	edc0 7a03 	vstr	s15, [r0, #12]
 8000532:	681b      	ldr	r3, [r3, #0]
 8000534:	6103      	str	r3, [r0, #16]
 8000536:	6141      	str	r1, [r0, #20]
 8000538:	4770      	bx	lr
 800053a:	2240      	movs	r2, #64	@ 0x40
 800053c:	e7c4      	b.n	80004c8 <SpaceVectorMod_Float32_Update+0xfc>
 800053e:	bf00      	nop
 8000540:	3f5db3d7 	.word	0x3f5db3d7

08000544 <SpaceVectorMod_Float32_Init>:
 8000544:	2300      	movs	r3, #0
 8000546:	f240 62d3 	movw	r2, #1747	@ 0x6d3
 800054a:	8002      	strh	r2, [r0, #0]
 800054c:	60c3      	str	r3, [r0, #12]
 800054e:	6103      	str	r3, [r0, #16]
 8000550:	6143      	str	r3, [r0, #20]
 8000552:	4770      	bx	lr

08000554 <SpaceVectorMod_Float32_Load>:
 8000554:	b12b      	cbz	r3, 8000562 <SpaceVectorMod_Float32_Load+0xe>
 8000556:	7e03      	ldrb	r3, [r0, #24]
 8000558:	700b      	strb	r3, [r1, #0]
 800055a:	2301      	movs	r3, #1
 800055c:	8013      	strh	r3, [r2, #0]
 800055e:	2000      	movs	r0, #0
 8000560:	4770      	bx	lr
 8000562:	2001      	movs	r0, #1
 8000564:	4770      	bx	lr
 8000566:	bf00      	nop

08000568 <SpaceVectorMod_Float32_Save>:
 8000568:	2a01      	cmp	r2, #1
 800056a:	bf03      	ittte	eq
 800056c:	780b      	ldrbeq	r3, [r1, #0]
 800056e:	7603      	strbeq	r3, [r0, #24]
 8000570:	2000      	moveq	r0, #0
 8000572:	2001      	movne	r0, #1
 8000574:	4770      	bx	lr
 8000576:	bf00      	nop

08000578 <SpaceVectorMod_Float32_GetAddress>:
 8000578:	3901      	subs	r1, #1
 800057a:	2904      	cmp	r1, #4
 800057c:	d80e      	bhi.n	800059c <SpaceVectorMod_Float32_GetAddress+0x24>
 800057e:	e8df f001 	tbb	[pc, r1]
 8000582:	0705      	.short	0x0705
 8000584:	0b09      	.short	0x0b09
 8000586:	03          	.byte	0x03
 8000587:	00          	.byte	0x00
 8000588:	3014      	adds	r0, #20
 800058a:	4770      	bx	lr
 800058c:	6840      	ldr	r0, [r0, #4]
 800058e:	4770      	bx	lr
 8000590:	6880      	ldr	r0, [r0, #8]
 8000592:	4770      	bx	lr
 8000594:	300c      	adds	r0, #12
 8000596:	4770      	bx	lr
 8000598:	3010      	adds	r0, #16
 800059a:	4770      	bx	lr
 800059c:	2000      	movs	r0, #0
 800059e:	4770      	bx	lr

080005a0 <VectorNormLimit_Float32_Update>:
 80005a0:	68c3      	ldr	r3, [r0, #12]
 80005a2:	b510      	push	{r4, lr}
 80005a4:	ed93 0a00 	vldr	s0, [r3]
 80005a8:	4604      	mov	r4, r0
 80005aa:	f004 fe95 	bl	80052d8 <getAbsValR32>
 80005ae:	e9d4 2301 	ldrd	r2, r3, [r4, #4]
 80005b2:	edd3 7a00 	vldr	s15, [r3]
 80005b6:	ed92 7a00 	vldr	s14, [r2]
 80005ba:	ee67 7aa7 	vmul.f32	s15, s15, s15
 80005be:	eee7 7a07 	vfma.f32	s15, s14, s14
 80005c2:	eef1 6ae7 	vsqrt.f32	s13, s15
 80005c6:	eeb4 0ae6 	vcmpe.f32	s0, s13
 80005ca:	eef1 fa10 	vmrs	APSR_nzcv, fpscr
 80005ce:	d50c      	bpl.n	80005ea <VectorNormLimit_Float32_Update+0x4a>
 80005d0:	ee80 6a26 	vdiv.f32	s12, s0, s13
 80005d4:	ee27 7a06 	vmul.f32	s14, s14, s12
 80005d8:	ed84 7a04 	vstr	s14, [r4, #16]
 80005dc:	edd3 7a00 	vldr	s15, [r3]
 80005e0:	ee67 7a86 	vmul.f32	s15, s15, s12
 80005e4:	edc4 7a05 	vstr	s15, [r4, #20]
 80005e8:	bd10      	pop	{r4, pc}
 80005ea:	ed84 7a04 	vstr	s14, [r4, #16]
 80005ee:	681b      	ldr	r3, [r3, #0]
 80005f0:	6163      	str	r3, [r4, #20]
 80005f2:	bd10      	pop	{r4, pc}

080005f4 <VectorNormLimit_Float32_Init>:
 80005f4:	2300      	movs	r3, #0
 80005f6:	f240 72d3 	movw	r2, #2003	@ 0x7d3
 80005fa:	8002      	strh	r2, [r0, #0]
 80005fc:	6103      	str	r3, [r0, #16]
 80005fe:	6143      	str	r3, [r0, #20]
 8000600:	4770      	bx	lr
 8000602:	bf00      	nop

08000604 <VectorNormLimit_Float32_GetAddress>:
 8000604:	3901      	subs	r1, #1
 8000606:	2904      	cmp	r1, #4
 8000608:	d80e      	bhi.n	8000628 <VectorNormLimit_Float32_GetAddress+0x24>
 800060a:	e8df f001 	tbb	[pc, r1]
 800060e:	0705      	.short	0x0705
 8000610:	0b09      	.short	0x0b09
 8000612:	03          	.byte	0x03
 8000613:	00          	.byte	0x00
 8000614:	3014      	adds	r0, #20
 8000616:	4770      	bx	lr
 8000618:	6840      	ldr	r0, [r0, #4]
 800061a:	4770      	bx	lr
 800061c:	6880      	ldr	r0, [r0, #8]
 800061e:	4770      	bx	lr
 8000620:	68c0      	ldr	r0, [r0, #12]
 8000622:	4770      	bx	lr
 8000624:	3010      	adds	r0, #16
 8000626:	4770      	bx	lr
 8000628:	2000      	movs	r0, #0
 800062a:	4770      	bx	lr

0800062c <TFlipFlop_Bool_Update>:
 800062c:	6842      	ldr	r2, [r0, #4]
 800062e:	7813      	ldrb	r3, [r2, #0]
 8000630:	b13b      	cbz	r3, 8000642 <TFlipFlop_Bool_Update+0x16>
 8000632:	7a83      	ldrb	r3, [r0, #10]
 8000634:	b92b      	cbnz	r3, 8000642 <TFlipFlop_Bool_Update+0x16>
 8000636:	7a03      	ldrb	r3, [r0, #8]
 8000638:	7243      	strb	r3, [r0, #9]
 800063a:	f083 0301 	eor.w	r3, r3, #1
 800063e:	7203      	strb	r3, [r0, #8]
 8000640:	7813      	ldrb	r3, [r2, #0]
 8000642:	7283      	strb	r3, [r0, #10]
 8000644:	4770      	bx	lr
 8000646:	bf00      	nop

08000648 <TFlipFlop_Bool_Init>:
 8000648:	f243 22ef 	movw	r2, #13039	@ 0x32ef
 800064c:	f44f 7380 	mov.w	r3, #256	@ 0x100
 8000650:	8002      	strh	r2, [r0, #0]
 8000652:	8103      	strh	r3, [r0, #8]
 8000654:	4770      	bx	lr
 8000656:	bf00      	nop

08000658 <TFlipFlop_Bool_GetAddress>:
 8000658:	2902      	cmp	r1, #2
 800065a:	d005      	beq.n	8000668 <TFlipFlop_Bool_GetAddress+0x10>
 800065c:	2903      	cmp	r1, #3
 800065e:	d007      	beq.n	8000670 <TFlipFlop_Bool_GetAddress+0x18>
 8000660:	2901      	cmp	r1, #1
 8000662:	d003      	beq.n	800066c <TFlipFlop_Bool_GetAddress+0x14>
 8000664:	2000      	movs	r0, #0
 8000666:	4770      	bx	lr
 8000668:	3008      	adds	r0, #8
 800066a:	4770      	bx	lr
 800066c:	6840      	ldr	r0, [r0, #4]
 800066e:	4770      	bx	lr
 8000670:	3009      	adds	r0, #9
 8000672:	4770      	bx	lr

08000674 <__aeabi_dmul>:
 8000674:	b570      	push	{r4, r5, r6, lr}
 8000676:	f04f 0cff 	mov.w	ip, #255	@ 0xff
 800067a:	f44c 6ce0 	orr.w	ip, ip, #1792	@ 0x700
 800067e:	ea1c 5411 	ands.w	r4, ip, r1, lsr #20
 8000682:	bf1d      	ittte	ne
 8000684:	ea1c 5513 	andsne.w	r5, ip, r3, lsr #20
 8000688:	ea94 0f0c 	teqne	r4, ip
 800068c:	ea95 0f0c 	teqne	r5, ip
 8000690:	f000 f8de 	bleq	8000850 <__aeabi_dmul+0x1dc>
 8000694:	442c      	add	r4, r5
 8000696:	ea81 0603 	eor.w	r6, r1, r3
 800069a:	ea21 514c 	bic.w	r1, r1, ip, lsl #21
 800069e:	ea23 534c 	bic.w	r3, r3, ip, lsl #21
 80006a2:	ea50 3501 	orrs.w	r5, r0, r1, lsl #12
 80006a6:	bf18      	it	ne
 80006a8:	ea52 3503 	orrsne.w	r5, r2, r3, lsl #12
 80006ac:	f441 1180 	orr.w	r1, r1, #1048576	@ 0x100000
 80006b0:	f443 1380 	orr.w	r3, r3, #1048576	@ 0x100000
 80006b4:	d038      	beq.n	8000728 <__aeabi_dmul+0xb4>
 80006b6:	fba0 ce02 	umull	ip, lr, r0, r2
 80006ba:	f04f 0500 	mov.w	r5, #0
 80006be:	fbe1 e502 	umlal	lr, r5, r1, r2
 80006c2:	f006 4200 	and.w	r2, r6, #2147483648	@ 0x80000000
 80006c6:	fbe0 e503 	umlal	lr, r5, r0, r3
 80006ca:	f04f 0600 	mov.w	r6, #0
 80006ce:	fbe1 5603 	umlal	r5, r6, r1, r3
 80006d2:	f09c 0f00 	teq	ip, #0
 80006d6:	bf18      	it	ne
 80006d8:	f04e 0e01 	orrne.w	lr, lr, #1
 80006dc:	f1a4 04ff 	sub.w	r4, r4, #255	@ 0xff
 80006e0:	f5b6 7f00 	cmp.w	r6, #512	@ 0x200
 80006e4:	f564 7440 	sbc.w	r4, r4, #768	@ 0x300
 80006e8:	d204      	bcs.n	80006f4 <__aeabi_dmul+0x80>
 80006ea:	ea5f 0e4e 	movs.w	lr, lr, lsl #1
 80006ee:	416d      	adcs	r5, r5
 80006f0:	eb46 0606 	adc.w	r6, r6, r6
 80006f4:	ea42 21c6 	orr.w	r1, r2, r6, lsl #11
 80006f8:	ea41 5155 	orr.w	r1, r1, r5, lsr #21
 80006fc:	ea4f 20c5 	mov.w	r0, r5, lsl #11
 8000700:	ea40 505e 	orr.w	r0, r0, lr, lsr #21
 8000704:	ea4f 2ece 	mov.w	lr, lr, lsl #11
 8000708:	f1b4 0cfd 	subs.w	ip, r4, #253	@ 0xfd
 800070c:	bf88      	it	hi
 800070e:	f5bc 6fe0 	cmphi.w	ip, #1792	@ 0x700
 8000712:	d81e      	bhi.n	8000752 <__aeabi_dmul+0xde>
 8000714:	f1be 4f00 	cmp.w	lr, #2147483648	@ 0x80000000
 8000718:	bf08      	it	eq
 800071a:	ea5f 0e50 	movseq.w	lr, r0, lsr #1
 800071e:	f150 0000 	adcs.w	r0, r0, #0
 8000722:	eb41 5104 	adc.w	r1, r1, r4, lsl #20
 8000726:	bd70      	pop	{r4, r5, r6, pc}
 8000728:	f006 4600 	and.w	r6, r6, #2147483648	@ 0x80000000
 800072c:	ea46 0101 	orr.w	r1, r6, r1
 8000730:	ea40 0002 	orr.w	r0, r0, r2
 8000734:	ea81 0103 	eor.w	r1, r1, r3
 8000738:	ebb4 045c 	subs.w	r4, r4, ip, lsr #1
 800073c:	bfc2      	ittt	gt
 800073e:	ebd4 050c 	rsbsgt	r5, r4, ip
 8000742:	ea41 5104 	orrgt.w	r1, r1, r4, lsl #20
 8000746:	bd70      	popgt	{r4, r5, r6, pc}
 8000748:	f441 1180 	orr.w	r1, r1, #1048576	@ 0x100000
 800074c:	f04f 0e00 	mov.w	lr, #0
 8000750:	3c01      	subs	r4, #1
 8000752:	f300 80ab 	bgt.w	80008ac <__aeabi_dmul+0x238>
 8000756:	f114 0f36 	cmn.w	r4, #54	@ 0x36
 800075a:	bfde      	ittt	le
 800075c:	2000      	movle	r0, #0
 800075e:	f001 4100 	andle.w	r1, r1, #2147483648	@ 0x80000000
 8000762:	bd70      	pople	{r4, r5, r6, pc}
 8000764:	f1c4 0400 	rsb	r4, r4, #0
 8000768:	3c20      	subs	r4, #32
 800076a:	da35      	bge.n	80007d8 <__aeabi_dmul+0x164>
 800076c:	340c      	adds	r4, #12
 800076e:	dc1b      	bgt.n	80007a8 <__aeabi_dmul+0x134>
 8000770:	f104 0414 	add.w	r4, r4, #20
 8000774:	f1c4 0520 	rsb	r5, r4, #32
 8000778:	fa00 f305 	lsl.w	r3, r0, r5
 800077c:	fa20 f004 	lsr.w	r0, r0, r4
 8000780:	fa01 f205 	lsl.w	r2, r1, r5
 8000784:	ea40 0002 	orr.w	r0, r0, r2
 8000788:	f001 4200 	and.w	r2, r1, #2147483648	@ 0x80000000
 800078c:	f021 4100 	bic.w	r1, r1, #2147483648	@ 0x80000000
 8000790:	eb10 70d3 	adds.w	r0, r0, r3, lsr #31
 8000794:	fa21 f604 	lsr.w	r6, r1, r4
 8000798:	eb42 0106 	adc.w	r1, r2, r6
 800079c:	ea5e 0e43 	orrs.w	lr, lr, r3, lsl #1
 80007a0:	bf08      	it	eq
 80007a2:	ea20 70d3 	biceq.w	r0, r0, r3, lsr #31
 80007a6:	bd70      	pop	{r4, r5, r6, pc}
 80007a8:	f1c4 040c 	rsb	r4, r4, #12
 80007ac:	f1c4 0520 	rsb	r5, r4, #32
 80007b0:	fa00 f304 	lsl.w	r3, r0, r4
 80007b4:	fa20 f005 	lsr.w	r0, r0, r5
 80007b8:	fa01 f204 	lsl.w	r2, r1, r4
 80007bc:	ea40 0002 	orr.w	r0, r0, r2
 80007c0:	f001 4100 	and.w	r1, r1, #2147483648	@ 0x80000000
 80007c4:	eb10 70d3 	adds.w	r0, r0, r3, lsr #31
 80007c8:	f141 0100 	adc.w	r1, r1, #0
 80007cc:	ea5e 0e43 	orrs.w	lr, lr, r3, lsl #1
 80007d0:	bf08      	it	eq
 80007d2:	ea20 70d3 	biceq.w	r0, r0, r3, lsr #31
 80007d6:	bd70      	pop	{r4, r5, r6, pc}
 80007d8:	f1c4 0520 	rsb	r5, r4, #32
 80007dc:	fa00 f205 	lsl.w	r2, r0, r5
 80007e0:	ea4e 0e02 	orr.w	lr, lr, r2
 80007e4:	fa20 f304 	lsr.w	r3, r0, r4
 80007e8:	fa01 f205 	lsl.w	r2, r1, r5
 80007ec:	ea43 0302 	orr.w	r3, r3, r2
 80007f0:	fa21 f004 	lsr.w	r0, r1, r4
 80007f4:	f001 4100 	and.w	r1, r1, #2147483648	@ 0x80000000
 80007f8:	fa21 f204 	lsr.w	r2, r1, r4
 80007fc:	ea20 0002 	bic.w	r0, r0, r2
 8000800:	eb00 70d3 	add.w	r0, r0, r3, lsr #31
 8000804:	ea5e 0e43 	orrs.w	lr, lr, r3, lsl #1
 8000808:	bf08      	it	eq
 800080a:	ea20 70d3 	biceq.w	r0, r0, r3, lsr #31
 800080e:	bd70      	pop	{r4, r5, r6, pc}
 8000810:	f094 0f00 	teq	r4, #0
 8000814:	d10f      	bne.n	8000836 <__aeabi_dmul+0x1c2>
 8000816:	f001 4600 	and.w	r6, r1, #2147483648	@ 0x80000000
 800081a:	0040      	lsls	r0, r0, #1
 800081c:	eb41 0101 	adc.w	r1, r1, r1
 8000820:	f411 1f80 	tst.w	r1, #1048576	@ 0x100000
 8000824:	bf08      	it	eq
 8000826:	3c01      	subeq	r4, #1
 8000828:	d0f7      	beq.n	800081a <__aeabi_dmul+0x1a6>
 800082a:	ea41 0106 	orr.w	r1, r1, r6
 800082e:	f095 0f00 	teq	r5, #0
 8000832:	bf18      	it	ne
 8000834:	4770      	bxne	lr
 8000836:	f003 4600 	and.w	r6, r3, #2147483648	@ 0x80000000
 800083a:	0052      	lsls	r2, r2, #1
 800083c:	eb43 0303 	adc.w	r3, r3, r3
 8000840:	f413 1f80 	tst.w	r3, #1048576	@ 0x100000
 8000844:	bf08      	it	eq
 8000846:	3d01      	subeq	r5, #1
 8000848:	d0f7      	beq.n	800083a <__aeabi_dmul+0x1c6>
 800084a:	ea43 0306 	orr.w	r3, r3, r6
 800084e:	4770      	bx	lr
 8000850:	ea94 0f0c 	teq	r4, ip
 8000854:	ea0c 5513 	and.w	r5, ip, r3, lsr #20
 8000858:	bf18      	it	ne
 800085a:	ea95 0f0c 	teqne	r5, ip
 800085e:	d00c      	beq.n	800087a <__aeabi_dmul+0x206>
 8000860:	ea50 0641 	orrs.w	r6, r0, r1, lsl #1
 8000864:	bf18      	it	ne
 8000866:	ea52 0643 	orrsne.w	r6, r2, r3, lsl #1
 800086a:	d1d1      	bne.n	8000810 <__aeabi_dmul+0x19c>
 800086c:	ea81 0103 	eor.w	r1, r1, r3
 8000870:	f001 4100 	and.w	r1, r1, #2147483648	@ 0x80000000
 8000874:	f04f 0000 	mov.w	r0, #0
 8000878:	bd70      	pop	{r4, r5, r6, pc}
 800087a:	ea50 0641 	orrs.w	r6, r0, r1, lsl #1
 800087e:	bf06      	itte	eq
 8000880:	4610      	moveq	r0, r2
 8000882:	4619      	moveq	r1, r3
 8000884:	ea52 0643 	orrsne.w	r6, r2, r3, lsl #1
 8000888:	d019      	beq.n	80008be <__aeabi_dmul+0x24a>
 800088a:	ea94 0f0c 	teq	r4, ip
 800088e:	d102      	bne.n	8000896 <__aeabi_dmul+0x222>
 8000890:	ea50 3601 	orrs.w	r6, r0, r1, lsl #12
 8000894:	d113      	bne.n	80008be <__aeabi_dmul+0x24a>
 8000896:	ea95 0f0c 	teq	r5, ip
 800089a:	d105      	bne.n	80008a8 <__aeabi_dmul+0x234>
 800089c:	ea52 3603 	orrs.w	r6, r2, r3, lsl #12
 80008a0:	bf1c      	itt	ne
 80008a2:	4610      	movne	r0, r2
 80008a4:	4619      	movne	r1, r3
 80008a6:	d10a      	bne.n	80008be <__aeabi_dmul+0x24a>
 80008a8:	ea81 0103 	eor.w	r1, r1, r3
 80008ac:	f001 4100 	and.w	r1, r1, #2147483648	@ 0x80000000
 80008b0:	f041 41fe 	orr.w	r1, r1, #2130706432	@ 0x7f000000
 80008b4:	f441 0170 	orr.w	r1, r1, #15728640	@ 0xf00000
 80008b8:	f04f 0000 	mov.w	r0, #0
 80008bc:	bd70      	pop	{r4, r5, r6, pc}
 80008be:	f041 41fe 	orr.w	r1, r1, #2130706432	@ 0x7f000000
 80008c2:	f441 0178 	orr.w	r1, r1, #16252928	@ 0xf80000
 80008c6:	bd70      	pop	{r4, r5, r6, pc}

080008c8 <__aeabi_drsub>:
 80008c8:	f081 4100 	eor.w	r1, r1, #2147483648	@ 0x80000000
 80008cc:	e002      	b.n	80008d4 <__adddf3>
 80008ce:	bf00      	nop

080008d0 <__aeabi_dsub>:
 80008d0:	f083 4300 	eor.w	r3, r3, #2147483648	@ 0x80000000

080008d4 <__adddf3>:
 80008d4:	b530      	push	{r4, r5, lr}
 80008d6:	ea4f 0441 	mov.w	r4, r1, lsl #1
 80008da:	ea4f 0543 	mov.w	r5, r3, lsl #1
 80008de:	ea94 0f05 	teq	r4, r5
 80008e2:	bf08      	it	eq
 80008e4:	ea90 0f02 	teqeq	r0, r2
 80008e8:	bf1f      	itttt	ne
 80008ea:	ea54 0c00 	orrsne.w	ip, r4, r0
 80008ee:	ea55 0c02 	orrsne.w	ip, r5, r2
 80008f2:	ea7f 5c64 	mvnsne.w	ip, r4, asr #21
 80008f6:	ea7f 5c65 	mvnsne.w	ip, r5, asr #21
 80008fa:	f000 80e2 	beq.w	8000ac2 <__adddf3+0x1ee>
 80008fe:	ea4f 5454 	mov.w	r4, r4, lsr #21
 8000902:	ebd4 5555 	rsbs	r5, r4, r5, lsr #21
 8000906:	bfb8      	it	lt
 8000908:	426d      	neglt	r5, r5
 800090a:	dd0c      	ble.n	8000926 <__adddf3+0x52>
 800090c:	442c      	add	r4, r5
 800090e:	ea80 0202 	eor.w	r2, r0, r2
 8000912:	ea81 0303 	eor.w	r3, r1, r3
 8000916:	ea82 0000 	eor.w	r0, r2, r0
 800091a:	ea83 0101 	eor.w	r1, r3, r1
 800091e:	ea80 0202 	eor.w	r2, r0, r2
 8000922:	ea81 0303 	eor.w	r3, r1, r3
 8000926:	2d36      	cmp	r5, #54	@ 0x36
 8000928:	bf88      	it	hi
 800092a:	bd30      	pophi	{r4, r5, pc}
 800092c:	f011 4f00 	tst.w	r1, #2147483648	@ 0x80000000
 8000930:	ea4f 3101 	mov.w	r1, r1, lsl #12
 8000934:	f44f 1c80 	mov.w	ip, #1048576	@ 0x100000
 8000938:	ea4c 3111 	orr.w	r1, ip, r1, lsr #12
 800093c:	d002      	beq.n	8000944 <__adddf3+0x70>
 800093e:	4240      	negs	r0, r0
 8000940:	eb61 0141 	sbc.w	r1, r1, r1, lsl #1
 8000944:	f013 4f00 	tst.w	r3, #2147483648	@ 0x80000000
 8000948:	ea4f 3303 	mov.w	r3, r3, lsl #12
 800094c:	ea4c 3313 	orr.w	r3, ip, r3, lsr #12
 8000950:	d002      	beq.n	8000958 <__adddf3+0x84>
 8000952:	4252      	negs	r2, r2
 8000954:	eb63 0343 	sbc.w	r3, r3, r3, lsl #1
 8000958:	ea94 0f05 	teq	r4, r5
 800095c:	f000 80a7 	beq.w	8000aae <__adddf3+0x1da>
 8000960:	f1a4 0401 	sub.w	r4, r4, #1
 8000964:	f1d5 0e20 	rsbs	lr, r5, #32
 8000968:	db0d      	blt.n	8000986 <__adddf3+0xb2>
 800096a:	fa02 fc0e 	lsl.w	ip, r2, lr
 800096e:	fa22 f205 	lsr.w	r2, r2, r5
 8000972:	1880      	adds	r0, r0, r2
 8000974:	f141 0100 	adc.w	r1, r1, #0
 8000978:	fa03 f20e 	lsl.w	r2, r3, lr
 800097c:	1880      	adds	r0, r0, r2
 800097e:	fa43 f305 	asr.w	r3, r3, r5
 8000982:	4159      	adcs	r1, r3
 8000984:	e00e      	b.n	80009a4 <__adddf3+0xd0>
 8000986:	f1a5 0520 	sub.w	r5, r5, #32
 800098a:	f10e 0e20 	add.w	lr, lr, #32
 800098e:	2a01      	cmp	r2, #1
 8000990:	fa03 fc0e 	lsl.w	ip, r3, lr
 8000994:	bf28      	it	cs
 8000996:	f04c 0c02 	orrcs.w	ip, ip, #2
 800099a:	fa43 f305 	asr.w	r3, r3, r5
 800099e:	18c0      	adds	r0, r0, r3
 80009a0:	eb51 71e3 	adcs.w	r1, r1, r3, asr #31
 80009a4:	f001 4500 	and.w	r5, r1, #2147483648	@ 0x80000000
 80009a8:	d507      	bpl.n	80009ba <__adddf3+0xe6>
 80009aa:	f04f 0e00 	mov.w	lr, #0
 80009ae:	f1dc 0c00 	rsbs	ip, ip, #0
 80009b2:	eb7e 0000 	sbcs.w	r0, lr, r0
 80009b6:	eb6e 0101 	sbc.w	r1, lr, r1
 80009ba:	f5b1 1f80 	cmp.w	r1, #1048576	@ 0x100000
 80009be:	d31b      	bcc.n	80009f8 <__adddf3+0x124>
 80009c0:	f5b1 1f00 	cmp.w	r1, #2097152	@ 0x200000
 80009c4:	d30c      	bcc.n	80009e0 <__adddf3+0x10c>
 80009c6:	0849      	lsrs	r1, r1, #1
 80009c8:	ea5f 0030 	movs.w	r0, r0, rrx
 80009cc:	ea4f 0c3c 	mov.w	ip, ip, rrx
 80009d0:	f104 0401 	add.w	r4, r4, #1
 80009d4:	ea4f 5244 	mov.w	r2, r4, lsl #21
 80009d8:	f512 0f80 	cmn.w	r2, #4194304	@ 0x400000
 80009dc:	f080 809a 	bcs.w	8000b14 <__adddf3+0x240>
 80009e0:	f1bc 4f00 	cmp.w	ip, #2147483648	@ 0x80000000
 80009e4:	bf08      	it	eq
 80009e6:	ea5f 0c50 	movseq.w	ip, r0, lsr #1
 80009ea:	f150 0000 	adcs.w	r0, r0, #0
 80009ee:	eb41 5104 	adc.w	r1, r1, r4, lsl #20
 80009f2:	ea41 0105 	orr.w	r1, r1, r5
 80009f6:	bd30      	pop	{r4, r5, pc}
 80009f8:	ea5f 0c4c 	movs.w	ip, ip, lsl #1
 80009fc:	4140      	adcs	r0, r0
 80009fe:	eb41 0101 	adc.w	r1, r1, r1
 8000a02:	3c01      	subs	r4, #1
 8000a04:	bf28      	it	cs
 8000a06:	f5b1 1f80 	cmpcs.w	r1, #1048576	@ 0x100000
 8000a0a:	d2e9      	bcs.n	80009e0 <__adddf3+0x10c>
 8000a0c:	f091 0f00 	teq	r1, #0
 8000a10:	bf04      	itt	eq
 8000a12:	4601      	moveq	r1, r0
 8000a14:	2000      	moveq	r0, #0
 8000a16:	fab1 f381 	clz	r3, r1
 8000a1a:	bf08      	it	eq
 8000a1c:	3320      	addeq	r3, #32
 8000a1e:	f1a3 030b 	sub.w	r3, r3, #11
 8000a22:	f1b3 0220 	subs.w	r2, r3, #32
 8000a26:	da0c      	bge.n	8000a42 <__adddf3+0x16e>
 8000a28:	320c      	adds	r2, #12
 8000a2a:	dd08      	ble.n	8000a3e <__adddf3+0x16a>
 8000a2c:	f102 0c14 	add.w	ip, r2, #20
 8000a30:	f1c2 020c 	rsb	r2, r2, #12
 8000a34:	fa01 f00c 	lsl.w	r0, r1, ip
 8000a38:	fa21 f102 	lsr.w	r1, r1, r2
 8000a3c:	e00c      	b.n	8000a58 <__adddf3+0x184>
 8000a3e:	f102 0214 	add.w	r2, r2, #20
 8000a42:	bfd8      	it	le
 8000a44:	f1c2 0c20 	rsble	ip, r2, #32
 8000a48:	fa01 f102 	lsl.w	r1, r1, r2
 8000a4c:	fa20 fc0c 	lsr.w	ip, r0, ip
 8000a50:	bfdc      	itt	le
 8000a52:	ea41 010c 	orrle.w	r1, r1, ip
 8000a56:	4090      	lslle	r0, r2
 8000a58:	1ae4      	subs	r4, r4, r3
 8000a5a:	bfa2      	ittt	ge
 8000a5c:	eb01 5104 	addge.w	r1, r1, r4, lsl #20
 8000a60:	4329      	orrge	r1, r5
 8000a62:	bd30      	popge	{r4, r5, pc}
 8000a64:	ea6f 0404 	mvn.w	r4, r4
 8000a68:	3c1f      	subs	r4, #31
 8000a6a:	da1c      	bge.n	8000aa6 <__adddf3+0x1d2>
 8000a6c:	340c      	adds	r4, #12
 8000a6e:	dc0e      	bgt.n	8000a8e <__adddf3+0x1ba>
 8000a70:	f104 0414 	add.w	r4, r4, #20
 8000a74:	f1c4 0220 	rsb	r2, r4, #32
 8000a78:	fa20 f004 	lsr.w	r0, r0, r4
 8000a7c:	fa01 f302 	lsl.w	r3, r1, r2
 8000a80:	ea40 0003 	orr.w	r0, r0, r3
 8000a84:	fa21 f304 	lsr.w	r3, r1, r4
 8000a88:	ea45 0103 	orr.w	r1, r5, r3
 8000a8c:	bd30      	pop	{r4, r5, pc}
 8000a8e:	f1c4 040c 	rsb	r4, r4, #12
 8000a92:	f1c4 0220 	rsb	r2, r4, #32
 8000a96:	fa20 f002 	lsr.w	r0, r0, r2
 8000a9a:	fa01 f304 	lsl.w	r3, r1, r4
 8000a9e:	ea40 0003 	orr.w	r0, r0, r3
 8000aa2:	4629      	mov	r1, r5
 8000aa4:	bd30      	pop	{r4, r5, pc}
 8000aa6:	fa21 f004 	lsr.w	r0, r1, r4
 8000aaa:	4629      	mov	r1, r5
 8000aac:	bd30      	pop	{r4, r5, pc}
 8000aae:	f094 0f00 	teq	r4, #0
 8000ab2:	f483 1380 	eor.w	r3, r3, #1048576	@ 0x100000
 8000ab6:	bf06      	itte	eq
 8000ab8:	f481 1180 	eoreq.w	r1, r1, #1048576	@ 0x100000
 8000abc:	3401      	addeq	r4, #1
 8000abe:	3d01      	subne	r5, #1
 8000ac0:	e74e      	b.n	8000960 <__adddf3+0x8c>
 8000ac2:	ea7f 5c64 	mvns.w	ip, r4, asr #21
 8000ac6:	bf18      	it	ne
 8000ac8:	ea7f 5c65 	mvnsne.w	ip, r5, asr #21
 8000acc:	d029      	beq.n	8000b22 <__adddf3+0x24e>
 8000ace:	ea94 0f05 	teq	r4, r5
 8000ad2:	bf08      	it	eq
 8000ad4:	ea90 0f02 	teqeq	r0, r2
 8000ad8:	d005      	beq.n	8000ae6 <__adddf3+0x212>
 8000ada:	ea54 0c00 	orrs.w	ip, r4, r0
 8000ade:	bf04      	itt	eq
 8000ae0:	4619      	moveq	r1, r3
 8000ae2:	4610      	moveq	r0, r2
 8000ae4:	bd30      	pop	{r4, r5, pc}
 8000ae6:	ea91 0f03 	teq	r1, r3
 8000aea:	bf1e      	ittt	ne
 8000aec:	2100      	movne	r1, #0
 8000aee:	2000      	movne	r0, #0
 8000af0:	bd30      	popne	{r4, r5, pc}
 8000af2:	ea5f 5c54 	movs.w	ip, r4, lsr #21
 8000af6:	d105      	bne.n	8000b04 <__adddf3+0x230>
 8000af8:	0040      	lsls	r0, r0, #1
 8000afa:	4149      	adcs	r1, r1
 8000afc:	bf28      	it	cs
 8000afe:	f041 4100 	orrcs.w	r1, r1, #2147483648	@ 0x80000000
 8000b02:	bd30      	pop	{r4, r5, pc}
 8000b04:	f514 0480 	adds.w	r4, r4, #4194304	@ 0x400000
 8000b08:	bf3c      	itt	cc
 8000b0a:	f501 1180 	addcc.w	r1, r1, #1048576	@ 0x100000
 8000b0e:	bd30      	popcc	{r4, r5, pc}
 8000b10:	f001 4500 	and.w	r5, r1, #2147483648	@ 0x80000000
 8000b14:	f045 41fe 	orr.w	r1, r5, #2130706432	@ 0x7f000000
 8000b18:	f441 0170 	orr.w	r1, r1, #15728640	@ 0xf00000
 8000b1c:	f04f 0000 	mov.w	r0, #0
 8000b20:	bd30      	pop	{r4, r5, pc}
 8000b22:	ea7f 5c64 	mvns.w	ip, r4, asr #21
 8000b26:	bf1a      	itte	ne
 8000b28:	4619      	movne	r1, r3
 8000b2a:	4610      	movne	r0, r2
 8000b2c:	ea7f 5c65 	mvnseq.w	ip, r5, asr #21
 8000b30:	bf1c      	itt	ne
 8000b32:	460b      	movne	r3, r1
 8000b34:	4602      	movne	r2, r0
 8000b36:	ea50 3401 	orrs.w	r4, r0, r1, lsl #12
 8000b3a:	bf06      	itte	eq
 8000b3c:	ea52 3503 	orrseq.w	r5, r2, r3, lsl #12
 8000b40:	ea91 0f03 	teqeq	r1, r3
 8000b44:	f441 2100 	orrne.w	r1, r1, #524288	@ 0x80000
 8000b48:	bd30      	pop	{r4, r5, pc}
 8000b4a:	bf00      	nop

08000b4c <__aeabi_ui2d>:
 8000b4c:	f090 0f00 	teq	r0, #0
 8000b50:	bf04      	itt	eq
 8000b52:	2100      	moveq	r1, #0
 8000b54:	4770      	bxeq	lr
 8000b56:	b530      	push	{r4, r5, lr}
 8000b58:	f44f 6480 	mov.w	r4, #1024	@ 0x400
 8000b5c:	f104 0432 	add.w	r4, r4, #50	@ 0x32
 8000b60:	f04f 0500 	mov.w	r5, #0
 8000b64:	f04f 0100 	mov.w	r1, #0
 8000b68:	e750      	b.n	8000a0c <__adddf3+0x138>
 8000b6a:	bf00      	nop

08000b6c <__aeabi_i2d>:
 8000b6c:	f090 0f00 	teq	r0, #0
 8000b70:	bf04      	itt	eq
 8000b72:	2100      	moveq	r1, #0
 8000b74:	4770      	bxeq	lr
 8000b76:	b530      	push	{r4, r5, lr}
 8000b78:	f44f 6480 	mov.w	r4, #1024	@ 0x400
 8000b7c:	f104 0432 	add.w	r4, r4, #50	@ 0x32
 8000b80:	f010 4500 	ands.w	r5, r0, #2147483648	@ 0x80000000
 8000b84:	bf48      	it	mi
 8000b86:	4240      	negmi	r0, r0
 8000b88:	f04f 0100 	mov.w	r1, #0
 8000b8c:	e73e      	b.n	8000a0c <__adddf3+0x138>
 8000b8e:	bf00      	nop

08000b90 <__aeabi_f2d>:
 8000b90:	0042      	lsls	r2, r0, #1
 8000b92:	ea4f 01e2 	mov.w	r1, r2, asr #3
 8000b96:	ea4f 0131 	mov.w	r1, r1, rrx
 8000b9a:	ea4f 7002 	mov.w	r0, r2, lsl #28
 8000b9e:	bf1f      	itttt	ne
 8000ba0:	f012 437f 	andsne.w	r3, r2, #4278190080	@ 0xff000000
 8000ba4:	f093 4f7f 	teqne	r3, #4278190080	@ 0xff000000
 8000ba8:	f081 5160 	eorne.w	r1, r1, #939524096	@ 0x38000000
 8000bac:	4770      	bxne	lr
 8000bae:	f032 427f 	bics.w	r2, r2, #4278190080	@ 0xff000000
 8000bb2:	bf08      	it	eq
 8000bb4:	4770      	bxeq	lr
 8000bb6:	f093 4f7f 	teq	r3, #4278190080	@ 0xff000000
 8000bba:	bf04      	itt	eq
 8000bbc:	f441 2100 	orreq.w	r1, r1, #524288	@ 0x80000
 8000bc0:	4770      	bxeq	lr
 8000bc2:	b530      	push	{r4, r5, lr}
 8000bc4:	f44f 7460 	mov.w	r4, #896	@ 0x380
 8000bc8:	f001 4500 	and.w	r5, r1, #2147483648	@ 0x80000000
 8000bcc:	f021 4100 	bic.w	r1, r1, #2147483648	@ 0x80000000
 8000bd0:	e71c      	b.n	8000a0c <__adddf3+0x138>
 8000bd2:	bf00      	nop

08000bd4 <__aeabi_ul2d>:
 8000bd4:	ea50 0201 	orrs.w	r2, r0, r1
 8000bd8:	bf08      	it	eq
 8000bda:	4770      	bxeq	lr
 8000bdc:	b530      	push	{r4, r5, lr}
 8000bde:	f04f 0500 	mov.w	r5, #0
 8000be2:	e00a      	b.n	8000bfa <__aeabi_l2d+0x16>

08000be4 <__aeabi_l2d>:
 8000be4:	ea50 0201 	orrs.w	r2, r0, r1
 8000be8:	bf08      	it	eq
 8000bea:	4770      	bxeq	lr
 8000bec:	b530      	push	{r4, r5, lr}
 8000bee:	f011 4500 	ands.w	r5, r1, #2147483648	@ 0x80000000
 8000bf2:	d502      	bpl.n	8000bfa <__aeabi_l2d+0x16>
 8000bf4:	4240      	negs	r0, r0
 8000bf6:	eb61 0141 	sbc.w	r1, r1, r1, lsl #1
 8000bfa:	f44f 6480 	mov.w	r4, #1024	@ 0x400
 8000bfe:	f104 0432 	add.w	r4, r4, #50	@ 0x32
 8000c02:	ea5f 5c91 	movs.w	ip, r1, lsr #22
 8000c06:	f43f aed8 	beq.w	80009ba <__adddf3+0xe6>
 8000c0a:	f04f 0203 	mov.w	r2, #3
 8000c0e:	ea5f 0cdc 	movs.w	ip, ip, lsr #3
 8000c12:	bf18      	it	ne
 8000c14:	3203      	addne	r2, #3
 8000c16:	ea5f 0cdc 	movs.w	ip, ip, lsr #3
 8000c1a:	bf18      	it	ne
 8000c1c:	3203      	addne	r2, #3
 8000c1e:	eb02 02dc 	add.w	r2, r2, ip, lsr #3
 8000c22:	f1c2 0320 	rsb	r3, r2, #32
 8000c26:	fa00 fc03 	lsl.w	ip, r0, r3
 8000c2a:	fa20 f002 	lsr.w	r0, r0, r2
 8000c2e:	fa01 fe03 	lsl.w	lr, r1, r3
 8000c32:	ea40 000e 	orr.w	r0, r0, lr
 8000c36:	fa21 f102 	lsr.w	r1, r1, r2
 8000c3a:	4414      	add	r4, r2
 8000c3c:	e6bd      	b.n	80009ba <__adddf3+0xe6>
 8000c3e:	bf00      	nop

08000c40 <__gedf2>:
 8000c40:	f04f 3cff 	mov.w	ip, #4294967295
 8000c44:	e006      	b.n	8000c54 <__cmpdf2+0x4>
 8000c46:	bf00      	nop

08000c48 <__ledf2>:
 8000c48:	f04f 0c01 	mov.w	ip, #1
 8000c4c:	e002      	b.n	8000c54 <__cmpdf2+0x4>
 8000c4e:	bf00      	nop

08000c50 <__cmpdf2>:
 8000c50:	f04f 0c01 	mov.w	ip, #1
 8000c54:	f84d cd04 	str.w	ip, [sp, #-4]!
 8000c58:	ea4f 0c41 	mov.w	ip, r1, lsl #1
 8000c5c:	ea7f 5c6c 	mvns.w	ip, ip, asr #21
 8000c60:	ea4f 0c43 	mov.w	ip, r3, lsl #1
 8000c64:	bf18      	it	ne
 8000c66:	ea7f 5c6c 	mvnsne.w	ip, ip, asr #21
 8000c6a:	d01b      	beq.n	8000ca4 <__cmpdf2+0x54>
 8000c6c:	b001      	add	sp, #4
 8000c6e:	ea50 0c41 	orrs.w	ip, r0, r1, lsl #1
 8000c72:	bf0c      	ite	eq
 8000c74:	ea52 0c43 	orrseq.w	ip, r2, r3, lsl #1
 8000c78:	ea91 0f03 	teqne	r1, r3
 8000c7c:	bf02      	ittt	eq
 8000c7e:	ea90 0f02 	teqeq	r0, r2
 8000c82:	2000      	moveq	r0, #0
 8000c84:	4770      	bxeq	lr
 8000c86:	f110 0f00 	cmn.w	r0, #0
 8000c8a:	ea91 0f03 	teq	r1, r3
 8000c8e:	bf58      	it	pl
 8000c90:	4299      	cmppl	r1, r3
 8000c92:	bf08      	it	eq
 8000c94:	4290      	cmpeq	r0, r2
 8000c96:	bf2c      	ite	cs
 8000c98:	17d8      	asrcs	r0, r3, #31
 8000c9a:	ea6f 70e3 	mvncc.w	r0, r3, asr #31
 8000c9e:	f040 0001 	orr.w	r0, r0, #1
 8000ca2:	4770      	bx	lr
 8000ca4:	ea4f 0c41 	mov.w	ip, r1, lsl #1
 8000ca8:	ea7f 5c6c 	mvns.w	ip, ip, asr #21
 8000cac:	d102      	bne.n	8000cb4 <__cmpdf2+0x64>
 8000cae:	ea50 3c01 	orrs.w	ip, r0, r1, lsl #12
 8000cb2:	d107      	bne.n	8000cc4 <__cmpdf2+0x74>
 8000cb4:	ea4f 0c43 	mov.w	ip, r3, lsl #1
 8000cb8:	ea7f 5c6c 	mvns.w	ip, ip, asr #21
 8000cbc:	d1d6      	bne.n	8000c6c <__cmpdf2+0x1c>
 8000cbe:	ea52 3c03 	orrs.w	ip, r2, r3, lsl #12
 8000cc2:	d0d3      	beq.n	8000c6c <__cmpdf2+0x1c>
 8000cc4:	f85d 0b04 	ldr.w	r0, [sp], #4
 8000cc8:	4770      	bx	lr
 8000cca:	bf00      	nop

08000ccc <__aeabi_cdrcmple>:
 8000ccc:	4684      	mov	ip, r0
 8000cce:	4610      	mov	r0, r2
 8000cd0:	4662      	mov	r2, ip
 8000cd2:	468c      	mov	ip, r1
 8000cd4:	4619      	mov	r1, r3
 8000cd6:	4663      	mov	r3, ip
 8000cd8:	e000      	b.n	8000cdc <__aeabi_cdcmpeq>
 8000cda:	bf00      	nop

08000cdc <__aeabi_cdcmpeq>:
 8000cdc:	b501      	push	{r0, lr}
 8000cde:	f7ff ffb7 	bl	8000c50 <__cmpdf2>
 8000ce2:	2800      	cmp	r0, #0
 8000ce4:	bf48      	it	mi
 8000ce6:	f110 0f00 	cmnmi.w	r0, #0
 8000cea:	bd01      	pop	{r0, pc}

08000cec <__aeabi_dcmpeq>:
 8000cec:	f84d ed08 	str.w	lr, [sp, #-8]!
 8000cf0:	f7ff fff4 	bl	8000cdc <__aeabi_cdcmpeq>
 8000cf4:	bf0c      	ite	eq
 8000cf6:	2001      	moveq	r0, #1
 8000cf8:	2000      	movne	r0, #0
 8000cfa:	f85d fb08 	ldr.w	pc, [sp], #8
 8000cfe:	bf00      	nop

08000d00 <__aeabi_dcmplt>:
 8000d00:	f84d ed08 	str.w	lr, [sp, #-8]!
 8000d04:	f7ff ffea 	bl	8000cdc <__aeabi_cdcmpeq>
 8000d08:	bf34      	ite	cc
 8000d0a:	2001      	movcc	r0, #1
 8000d0c:	2000      	movcs	r0, #0
 8000d0e:	f85d fb08 	ldr.w	pc, [sp], #8
 8000d12:	bf00      	nop

08000d14 <__aeabi_dcmple>:
 8000d14:	f84d ed08 	str.w	lr, [sp, #-8]!
 8000d18:	f7ff ffe0 	bl	8000cdc <__aeabi_cdcmpeq>
 8000d1c:	bf94      	ite	ls
 8000d1e:	2001      	movls	r0, #1
 8000d20:	2000      	movhi	r0, #0
 8000d22:	f85d fb08 	ldr.w	pc, [sp], #8
 8000d26:	bf00      	nop

08000d28 <__aeabi_dcmpge>:
 8000d28:	f84d ed08 	str.w	lr, [sp, #-8]!
 8000d2c:	f7ff ffce 	bl	8000ccc <__aeabi_cdrcmple>
 8000d30:	bf94      	ite	ls
 8000d32:	2001      	movls	r0, #1
 8000d34:	2000      	movhi	r0, #0
 8000d36:	f85d fb08 	ldr.w	pc, [sp], #8
 8000d3a:	bf00      	nop

08000d3c <__aeabi_dcmpgt>:
 8000d3c:	f84d ed08 	str.w	lr, [sp, #-8]!
 8000d40:	f7ff ffc4 	bl	8000ccc <__aeabi_cdrcmple>
 8000d44:	bf34      	ite	cc
 8000d46:	2001      	movcc	r0, #1
 8000d48:	2000      	movcs	r0, #0
 8000d4a:	f85d fb08 	ldr.w	pc, [sp], #8
 8000d4e:	bf00      	nop

08000d50 <__aeabi_d2f>:
 8000d50:	ea4f 0241 	mov.w	r2, r1, lsl #1
 8000d54:	f1b2 43e0 	subs.w	r3, r2, #1879048192	@ 0x70000000
 8000d58:	bf24      	itt	cs
 8000d5a:	f5b3 1c00 	subscs.w	ip, r3, #2097152	@ 0x200000
 8000d5e:	f1dc 5cfe 	rsbscs	ip, ip, #532676608	@ 0x1fc00000
 8000d62:	d90d      	bls.n	8000d80 <__aeabi_d2f+0x30>
 8000d64:	f001 4c00 	and.w	ip, r1, #2147483648	@ 0x80000000
 8000d68:	ea4f 02c0 	mov.w	r2, r0, lsl #3
 8000d6c:	ea4c 7050 	orr.w	r0, ip, r0, lsr #29
 8000d70:	f1b2 4f00 	cmp.w	r2, #2147483648	@ 0x80000000
 8000d74:	eb40 0083 	adc.w	r0, r0, r3, lsl #2
 8000d78:	bf08      	it	eq
 8000d7a:	f020 0001 	biceq.w	r0, r0, #1
 8000d7e:	4770      	bx	lr
 8000d80:	f011 4f80 	tst.w	r1, #1073741824	@ 0x40000000
 8000d84:	d121      	bne.n	8000dca <__aeabi_d2f+0x7a>
 8000d86:	f113 7238 	adds.w	r2, r3, #48234496	@ 0x2e00000
 8000d8a:	bfbc      	itt	lt
 8000d8c:	f001 4000 	andlt.w	r0, r1, #2147483648	@ 0x80000000
 8000d90:	4770      	bxlt	lr
 8000d92:	f441 1180 	orr.w	r1, r1, #1048576	@ 0x100000
 8000d96:	ea4f 5252 	mov.w	r2, r2, lsr #21
 8000d9a:	f1c2 0218 	rsb	r2, r2, #24
 8000d9e:	f1c2 0c20 	rsb	ip, r2, #32
 8000da2:	fa10 f30c 	lsls.w	r3, r0, ip
 8000da6:	fa20 f002 	lsr.w	r0, r0, r2
 8000daa:	bf18      	it	ne
 8000dac:	f040 0001 	orrne.w	r0, r0, #1
 8000db0:	ea4f 23c1 	mov.w	r3, r1, lsl #11
 8000db4:	ea4f 23d3 	mov.w	r3, r3, lsr #11
 8000db8:	fa03 fc0c 	lsl.w	ip, r3, ip
 8000dbc:	ea40 000c 	orr.w	r0, r0, ip
 8000dc0:	fa23 f302 	lsr.w	r3, r3, r2
 8000dc4:	ea4f 0343 	mov.w	r3, r3, lsl #1
 8000dc8:	e7cc      	b.n	8000d64 <__aeabi_d2f+0x14>
 8000dca:	ea7f 5362 	mvns.w	r3, r2, asr #21
 8000dce:	d107      	bne.n	8000de0 <__aeabi_d2f+0x90>
 8000dd0:	ea50 3301 	orrs.w	r3, r0, r1, lsl #12
 8000dd4:	bf1e      	ittt	ne
 8000dd6:	f04f 40fe 	movne.w	r0, #2130706432	@ 0x7f000000
 8000dda:	f440 0040 	orrne.w	r0, r0, #12582912	@ 0xc00000
 8000dde:	4770      	bxne	lr
 8000de0:	f001 4000 	and.w	r0, r1, #2147483648	@ 0x80000000
 8000de4:	f040 40fe 	orr.w	r0, r0, #2130706432	@ 0x7f000000
 8000de8:	f440 0000 	orr.w	r0, r0, #8388608	@ 0x800000
 8000dec:	4770      	bx	lr
 8000dee:	bf00      	nop

08000df0 <__aeabi_uldivmod>:
 8000df0:	b953      	cbnz	r3, 8000e08 <__aeabi_uldivmod+0x18>
 8000df2:	b94a      	cbnz	r2, 8000e08 <__aeabi_uldivmod+0x18>
 8000df4:	2900      	cmp	r1, #0
 8000df6:	bf08      	it	eq
 8000df8:	2800      	cmpeq	r0, #0
 8000dfa:	bf1c      	itt	ne
 8000dfc:	f04f 31ff 	movne.w	r1, #4294967295
 8000e00:	f04f 30ff 	movne.w	r0, #4294967295
 8000e04:	f000 b988 	b.w	8001118 <__aeabi_idiv0>
 8000e08:	f1ad 0c08 	sub.w	ip, sp, #8
 8000e0c:	e96d ce04 	strd	ip, lr, [sp, #-16]!
 8000e10:	f000 f806 	bl	8000e20 <__udivmoddi4>
 8000e14:	f8dd e004 	ldr.w	lr, [sp, #4]
 8000e18:	e9dd 2302 	ldrd	r2, r3, [sp, #8]
 8000e1c:	b004      	add	sp, #16
 8000e1e:	4770      	bx	lr

08000e20 <__udivmoddi4>:
 8000e20:	e92d 47f0 	stmdb	sp!, {r4, r5, r6, r7, r8, r9, sl, lr}
 8000e24:	9d08      	ldr	r5, [sp, #32]
 8000e26:	468e      	mov	lr, r1
 8000e28:	4604      	mov	r4, r0
 8000e2a:	4688      	mov	r8, r1
 8000e2c:	2b00      	cmp	r3, #0
 8000e2e:	d14a      	bne.n	8000ec6 <__udivmoddi4+0xa6>
 8000e30:	428a      	cmp	r2, r1
 8000e32:	4617      	mov	r7, r2
 8000e34:	d962      	bls.n	8000efc <__udivmoddi4+0xdc>
 8000e36:	fab2 f682 	clz	r6, r2
 8000e3a:	b14e      	cbz	r6, 8000e50 <__udivmoddi4+0x30>
 8000e3c:	f1c6 0320 	rsb	r3, r6, #32
 8000e40:	fa01 f806 	lsl.w	r8, r1, r6
 8000e44:	fa20 f303 	lsr.w	r3, r0, r3
 8000e48:	40b7      	lsls	r7, r6
 8000e4a:	ea43 0808 	orr.w	r8, r3, r8
 8000e4e:	40b4      	lsls	r4, r6
 8000e50:	ea4f 4e17 	mov.w	lr, r7, lsr #16
 8000e54:	fa1f fc87 	uxth.w	ip, r7
 8000e58:	fbb8 f1fe 	udiv	r1, r8, lr
 8000e5c:	0c23      	lsrs	r3, r4, #16
 8000e5e:	fb0e 8811 	mls	r8, lr, r1, r8
 8000e62:	ea43 4308 	orr.w	r3, r3, r8, lsl #16
 8000e66:	fb01 f20c 	mul.w	r2, r1, ip
 8000e6a:	429a      	cmp	r2, r3
 8000e6c:	d909      	bls.n	8000e82 <__udivmoddi4+0x62>
 8000e6e:	18fb      	adds	r3, r7, r3
 8000e70:	f101 30ff 	add.w	r0, r1, #4294967295
 8000e74:	f080 80ea 	bcs.w	800104c <__udivmoddi4+0x22c>
 8000e78:	429a      	cmp	r2, r3
 8000e7a:	f240 80e7 	bls.w	800104c <__udivmoddi4+0x22c>
 8000e7e:	3902      	subs	r1, #2
 8000e80:	443b      	add	r3, r7
 8000e82:	1a9a      	subs	r2, r3, r2
 8000e84:	b2a3      	uxth	r3, r4
 8000e86:	fbb2 f0fe 	udiv	r0, r2, lr
 8000e8a:	fb0e 2210 	mls	r2, lr, r0, r2
 8000e8e:	ea43 4302 	orr.w	r3, r3, r2, lsl #16
 8000e92:	fb00 fc0c 	mul.w	ip, r0, ip
 8000e96:	459c      	cmp	ip, r3
 8000e98:	d909      	bls.n	8000eae <__udivmoddi4+0x8e>
 8000e9a:	18fb      	adds	r3, r7, r3
 8000e9c:	f100 32ff 	add.w	r2, r0, #4294967295
 8000ea0:	f080 80d6 	bcs.w	8001050 <__udivmoddi4+0x230>
 8000ea4:	459c      	cmp	ip, r3
 8000ea6:	f240 80d3 	bls.w	8001050 <__udivmoddi4+0x230>
 8000eaa:	443b      	add	r3, r7
 8000eac:	3802      	subs	r0, #2
 8000eae:	ea40 4001 	orr.w	r0, r0, r1, lsl #16
 8000eb2:	eba3 030c 	sub.w	r3, r3, ip
 8000eb6:	2100      	movs	r1, #0
 8000eb8:	b11d      	cbz	r5, 8000ec2 <__udivmoddi4+0xa2>
 8000eba:	40f3      	lsrs	r3, r6
 8000ebc:	2200      	movs	r2, #0
 8000ebe:	e9c5 3200 	strd	r3, r2, [r5]
 8000ec2:	e8bd 87f0 	ldmia.w	sp!, {r4, r5, r6, r7, r8, r9, sl, pc}
 8000ec6:	428b      	cmp	r3, r1
 8000ec8:	d905      	bls.n	8000ed6 <__udivmoddi4+0xb6>
 8000eca:	b10d      	cbz	r5, 8000ed0 <__udivmoddi4+0xb0>
 8000ecc:	e9c5 0100 	strd	r0, r1, [r5]
 8000ed0:	2100      	movs	r1, #0
 8000ed2:	4608      	mov	r0, r1
 8000ed4:	e7f5      	b.n	8000ec2 <__udivmoddi4+0xa2>
 8000ed6:	fab3 f183 	clz	r1, r3
 8000eda:	2900      	cmp	r1, #0
 8000edc:	d146      	bne.n	8000f6c <__udivmoddi4+0x14c>
 8000ede:	4573      	cmp	r3, lr
 8000ee0:	d302      	bcc.n	8000ee8 <__udivmoddi4+0xc8>
 8000ee2:	4282      	cmp	r2, r0
 8000ee4:	f200 8105 	bhi.w	80010f2 <__udivmoddi4+0x2d2>
 8000ee8:	1a84      	subs	r4, r0, r2
 8000eea:	eb6e 0203 	sbc.w	r2, lr, r3
 8000eee:	2001      	movs	r0, #1
 8000ef0:	4690      	mov	r8, r2
 8000ef2:	2d00      	cmp	r5, #0
 8000ef4:	d0e5      	beq.n	8000ec2 <__udivmoddi4+0xa2>
 8000ef6:	e9c5 4800 	strd	r4, r8, [r5]
 8000efa:	e7e2      	b.n	8000ec2 <__udivmoddi4+0xa2>
 8000efc:	2a00      	cmp	r2, #0
 8000efe:	f000 8090 	beq.w	8001022 <__udivmoddi4+0x202>
 8000f02:	fab2 f682 	clz	r6, r2
 8000f06:	2e00      	cmp	r6, #0
 8000f08:	f040 80a4 	bne.w	8001054 <__udivmoddi4+0x234>
 8000f0c:	1a8a      	subs	r2, r1, r2
 8000f0e:	0c03      	lsrs	r3, r0, #16
 8000f10:	ea4f 4e17 	mov.w	lr, r7, lsr #16
 8000f14:	b280      	uxth	r0, r0
 8000f16:	b2bc      	uxth	r4, r7
 8000f18:	2101      	movs	r1, #1
 8000f1a:	fbb2 fcfe 	udiv	ip, r2, lr
 8000f1e:	fb0e 221c 	mls	r2, lr, ip, r2
 8000f22:	ea43 4302 	orr.w	r3, r3, r2, lsl #16
 8000f26:	fb04 f20c 	mul.w	r2, r4, ip
 8000f2a:	429a      	cmp	r2, r3
 8000f2c:	d907      	bls.n	8000f3e <__udivmoddi4+0x11e>
 8000f2e:	18fb      	adds	r3, r7, r3
 8000f30:	f10c 38ff 	add.w	r8, ip, #4294967295
 8000f34:	d202      	bcs.n	8000f3c <__udivmoddi4+0x11c>
 8000f36:	429a      	cmp	r2, r3
 8000f38:	f200 80e0 	bhi.w	80010fc <__udivmoddi4+0x2dc>
 8000f3c:	46c4      	mov	ip, r8
 8000f3e:	1a9b      	subs	r3, r3, r2
 8000f40:	fbb3 f2fe 	udiv	r2, r3, lr
 8000f44:	fb0e 3312 	mls	r3, lr, r2, r3
 8000f48:	ea40 4303 	orr.w	r3, r0, r3, lsl #16
 8000f4c:	fb02 f404 	mul.w	r4, r2, r4
 8000f50:	429c      	cmp	r4, r3
 8000f52:	d907      	bls.n	8000f64 <__udivmoddi4+0x144>
 8000f54:	18fb      	adds	r3, r7, r3
 8000f56:	f102 30ff 	add.w	r0, r2, #4294967295
 8000f5a:	d202      	bcs.n	8000f62 <__udivmoddi4+0x142>
 8000f5c:	429c      	cmp	r4, r3
 8000f5e:	f200 80ca 	bhi.w	80010f6 <__udivmoddi4+0x2d6>
 8000f62:	4602      	mov	r2, r0
 8000f64:	1b1b      	subs	r3, r3, r4
 8000f66:	ea42 400c 	orr.w	r0, r2, ip, lsl #16
 8000f6a:	e7a5      	b.n	8000eb8 <__udivmoddi4+0x98>
 8000f6c:	f1c1 0620 	rsb	r6, r1, #32
 8000f70:	408b      	lsls	r3, r1
 8000f72:	fa22 f706 	lsr.w	r7, r2, r6
 8000f76:	431f      	orrs	r7, r3
 8000f78:	fa0e f401 	lsl.w	r4, lr, r1
 8000f7c:	fa20 f306 	lsr.w	r3, r0, r6
 8000f80:	fa2e fe06 	lsr.w	lr, lr, r6
 8000f84:	ea4f 4917 	mov.w	r9, r7, lsr #16
 8000f88:	4323      	orrs	r3, r4
 8000f8a:	fa00 f801 	lsl.w	r8, r0, r1
 8000f8e:	fa1f fc87 	uxth.w	ip, r7
 8000f92:	fbbe f0f9 	udiv	r0, lr, r9
 8000f96:	0c1c      	lsrs	r4, r3, #16
 8000f98:	fb09 ee10 	mls	lr, r9, r0, lr
 8000f9c:	ea44 440e 	orr.w	r4, r4, lr, lsl #16
 8000fa0:	fb00 fe0c 	mul.w	lr, r0, ip
 8000fa4:	45a6      	cmp	lr, r4
 8000fa6:	fa02 f201 	lsl.w	r2, r2, r1
 8000faa:	d909      	bls.n	8000fc0 <__udivmoddi4+0x1a0>
 8000fac:	193c      	adds	r4, r7, r4
 8000fae:	f100 3aff 	add.w	sl, r0, #4294967295
 8000fb2:	f080 809c 	bcs.w	80010ee <__udivmoddi4+0x2ce>
 8000fb6:	45a6      	cmp	lr, r4
 8000fb8:	f240 8099 	bls.w	80010ee <__udivmoddi4+0x2ce>
 8000fbc:	3802      	subs	r0, #2
 8000fbe:	443c      	add	r4, r7
 8000fc0:	eba4 040e 	sub.w	r4, r4, lr
 8000fc4:	fa1f fe83 	uxth.w	lr, r3
 8000fc8:	fbb4 f3f9 	udiv	r3, r4, r9
 8000fcc:	fb09 4413 	mls	r4, r9, r3, r4
 8000fd0:	ea4e 4404 	orr.w	r4, lr, r4, lsl #16
 8000fd4:	fb03 fc0c 	mul.w	ip, r3, ip
 8000fd8:	45a4      	cmp	ip, r4
 8000fda:	d908      	bls.n	8000fee <__udivmoddi4+0x1ce>
 8000fdc:	193c      	adds	r4, r7, r4
 8000fde:	f103 3eff 	add.w	lr, r3, #4294967295
 8000fe2:	f080 8082 	bcs.w	80010ea <__udivmoddi4+0x2ca>
 8000fe6:	45a4      	cmp	ip, r4
 8000fe8:	d97f      	bls.n	80010ea <__udivmoddi4+0x2ca>
 8000fea:	3b02      	subs	r3, #2
 8000fec:	443c      	add	r4, r7
 8000fee:	ea43 4000 	orr.w	r0, r3, r0, lsl #16
 8000ff2:	eba4 040c 	sub.w	r4, r4, ip
 8000ff6:	fba0 ec02 	umull	lr, ip, r0, r2
 8000ffa:	4564      	cmp	r4, ip
 8000ffc:	4673      	mov	r3, lr
 8000ffe:	46e1      	mov	r9, ip
 8001000:	d362      	bcc.n	80010c8 <__udivmoddi4+0x2a8>
 8001002:	d05f      	beq.n	80010c4 <__udivmoddi4+0x2a4>
 8001004:	b15d      	cbz	r5, 800101e <__udivmoddi4+0x1fe>
 8001006:	ebb8 0203 	subs.w	r2, r8, r3
 800100a:	eb64 0409 	sbc.w	r4, r4, r9
 800100e:	fa04 f606 	lsl.w	r6, r4, r6
 8001012:	fa22 f301 	lsr.w	r3, r2, r1
 8001016:	431e      	orrs	r6, r3
 8001018:	40cc      	lsrs	r4, r1
 800101a:	e9c5 6400 	strd	r6, r4, [r5]
 800101e:	2100      	movs	r1, #0
 8001020:	e74f      	b.n	8000ec2 <__udivmoddi4+0xa2>
 8001022:	fbb1 fcf2 	udiv	ip, r1, r2
 8001026:	0c01      	lsrs	r1, r0, #16
 8001028:	ea41 410e 	orr.w	r1, r1, lr, lsl #16
 800102c:	b280      	uxth	r0, r0
 800102e:	ea40 4201 	orr.w	r2, r0, r1, lsl #16
 8001032:	463b      	mov	r3, r7
 8001034:	4638      	mov	r0, r7
 8001036:	463c      	mov	r4, r7
 8001038:	46b8      	mov	r8, r7
 800103a:	46be      	mov	lr, r7
 800103c:	2620      	movs	r6, #32
 800103e:	fbb1 f1f7 	udiv	r1, r1, r7
 8001042:	eba2 0208 	sub.w	r2, r2, r8
 8001046:	ea41 410c 	orr.w	r1, r1, ip, lsl #16
 800104a:	e766      	b.n	8000f1a <__udivmoddi4+0xfa>
 800104c:	4601      	mov	r1, r0
 800104e:	e718      	b.n	8000e82 <__udivmoddi4+0x62>
 8001050:	4610      	mov	r0, r2
 8001052:	e72c      	b.n	8000eae <__udivmoddi4+0x8e>
 8001054:	f1c6 0220 	rsb	r2, r6, #32
 8001058:	fa2e f302 	lsr.w	r3, lr, r2
 800105c:	40b7      	lsls	r7, r6
 800105e:	40b1      	lsls	r1, r6
 8001060:	fa20 f202 	lsr.w	r2, r0, r2
 8001064:	ea4f 4e17 	mov.w	lr, r7, lsr #16
 8001068:	430a      	orrs	r2, r1
 800106a:	fbb3 f8fe 	udiv	r8, r3, lr
 800106e:	b2bc      	uxth	r4, r7
 8001070:	fb0e 3318 	mls	r3, lr, r8, r3
 8001074:	0c11      	lsrs	r1, r2, #16
 8001076:	ea41 4103 	orr.w	r1, r1, r3, lsl #16
 800107a:	fb08 f904 	mul.w	r9, r8, r4
 800107e:	40b0      	lsls	r0, r6
 8001080:	4589      	cmp	r9, r1
 8001082:	ea4f 4310 	mov.w	r3, r0, lsr #16
 8001086:	b280      	uxth	r0, r0
 8001088:	d93e      	bls.n	8001108 <__udivmoddi4+0x2e8>
 800108a:	1879      	adds	r1, r7, r1
 800108c:	f108 3cff 	add.w	ip, r8, #4294967295
 8001090:	d201      	bcs.n	8001096 <__udivmoddi4+0x276>
 8001092:	4589      	cmp	r9, r1
 8001094:	d81f      	bhi.n	80010d6 <__udivmoddi4+0x2b6>
 8001096:	eba1 0109 	sub.w	r1, r1, r9
 800109a:	fbb1 f9fe 	udiv	r9, r1, lr
 800109e:	fb09 f804 	mul.w	r8, r9, r4
 80010a2:	fb0e 1119 	mls	r1, lr, r9, r1
 80010a6:	b292      	uxth	r2, r2
 80010a8:	ea42 4201 	orr.w	r2, r2, r1, lsl #16
 80010ac:	4542      	cmp	r2, r8
 80010ae:	d229      	bcs.n	8001104 <__udivmoddi4+0x2e4>
 80010b0:	18ba      	adds	r2, r7, r2
 80010b2:	f109 31ff 	add.w	r1, r9, #4294967295
 80010b6:	d2c4      	bcs.n	8001042 <__udivmoddi4+0x222>
 80010b8:	4542      	cmp	r2, r8
 80010ba:	d2c2      	bcs.n	8001042 <__udivmoddi4+0x222>
 80010bc:	f1a9 0102 	sub.w	r1, r9, #2
 80010c0:	443a      	add	r2, r7
 80010c2:	e7be      	b.n	8001042 <__udivmoddi4+0x222>
 80010c4:	45f0      	cmp	r8, lr
 80010c6:	d29d      	bcs.n	8001004 <__udivmoddi4+0x1e4>
 80010c8:	ebbe 0302 	subs.w	r3, lr, r2
 80010cc:	eb6c 0c07 	sbc.w	ip, ip, r7
 80010d0:	3801      	subs	r0, #1
 80010d2:	46e1      	mov	r9, ip
 80010d4:	e796      	b.n	8001004 <__udivmoddi4+0x1e4>
 80010d6:	eba7 0909 	sub.w	r9, r7, r9
 80010da:	4449      	add	r1, r9
 80010dc:	f1a8 0c02 	sub.w	ip, r8, #2
 80010e0:	fbb1 f9fe 	udiv	r9, r1, lr
 80010e4:	fb09 f804 	mul.w	r8, r9, r4
 80010e8:	e7db      	b.n	80010a2 <__udivmoddi4+0x282>
 80010ea:	4673      	mov	r3, lr
 80010ec:	e77f      	b.n	8000fee <__udivmoddi4+0x1ce>
 80010ee:	4650      	mov	r0, sl
 80010f0:	e766      	b.n	8000fc0 <__udivmoddi4+0x1a0>
 80010f2:	4608      	mov	r0, r1
 80010f4:	e6fd      	b.n	8000ef2 <__udivmoddi4+0xd2>
 80010f6:	443b      	add	r3, r7
 80010f8:	3a02      	subs	r2, #2
 80010fa:	e733      	b.n	8000f64 <__udivmoddi4+0x144>
 80010fc:	f1ac 0c02 	sub.w	ip, ip, #2
 8001100:	443b      	add	r3, r7
 8001102:	e71c      	b.n	8000f3e <__udivmoddi4+0x11e>
 8001104:	4649      	mov	r1, r9
 8001106:	e79c      	b.n	8001042 <__udivmoddi4+0x222>
 8001108:	eba1 0109 	sub.w	r1, r1, r9
 800110c:	46c4      	mov	ip, r8
 800110e:	fbb1 f9fe 	udiv	r9, r1, lr
 8001112:	fb09 f804 	mul.w	r8, r9, r4
 8001116:	e7c4      	b.n	80010a2 <__udivmoddi4+0x282>

08001118 <__aeabi_idiv0>:
 8001118:	4770      	bx	lr
 800111a:	bf00      	nop

0800111c <stand_im_init_1>:
/*
 * stand_im_init_1
 */
void stand_im_init_1(void) {

}
 800111c:	4770      	bx	lr
 800111e:	bf00      	nop

08001120 <stand_im_init_2>:

/*
 * stand_im_init_2
 */
void stand_im_init_2(void) {
 8001120:	e92d 41f0 	stmdb	sp!, {r4, r5, r6, r7, r8, lr}
	/* X2C */
	initTableStruct();
	initVersionInfo(TableStruct, APPLICATION_VERSION);
 8001124:	4e95      	ldr	r6, [pc, #596]	@ (800137c <stand_im_init_2+0x25c>)
	initTableStruct();
 8001126:	f005 fd41 	bl	8006bac <initTableStruct>
	initVersionInfo(TableStruct, APPLICATION_VERSION);
 800112a:	2101      	movs	r1, #1
 800112c:	6830      	ldr	r0, [r6, #0]
 800112e:	f005 fd65 	bl	8006bfc <initVersionInfo>
	initSerialGeneric(&interface);
 8001132:	4893      	ldr	r0, [pc, #588]	@ (8001380 <stand_im_init_2+0x260>)
 8001134:	f005 f966 	bl	8006404 <initSerialGeneric>
	initSerial(&interface);
 8001138:	4891      	ldr	r0, [pc, #580]	@ (8001380 <stand_im_init_2+0x260>)
 800113a:	f000 fb65 	bl	8001808 <initSerial>
	linkSerial((tProtocol*) &protocol, &interface);
 800113e:	4990      	ldr	r1, [pc, #576]	@ (8001380 <stand_im_init_2+0x260>)
 8001140:	4890      	ldr	r0, [pc, #576]	@ (8001384 <stand_im_init_2+0x264>)
 8001142:	f005 f97b 	bl	800643c <linkSerial>
	initLNet(&protocol, bufferLNet, LNET_BUFFERSIZE, LNET_NODEID);
 8001146:	4990      	ldr	r1, [pc, #576]	@ (8001388 <stand_im_init_2+0x268>)
 8001148:	488e      	ldr	r0, [pc, #568]	@ (8001384 <stand_im_init_2+0x264>)
 800114a:	2301      	movs	r3, #1
 800114c:	22ff      	movs	r2, #255	@ 0xff
 800114e:	f004 fbf1 	bl	8005934 <initLNet>
	initServiceTable((tProtocol*) &protocol);
 8001152:	488c      	ldr	r0, [pc, #560]	@ (8001384 <stand_im_init_2+0x264>)
 8001154:	f005 fcf2 	bl	8006b3c <initServiceTable>
	addCoreServices((tProtocol*) &protocol);
 8001158:	488a      	ldr	r0, [pc, #552]	@ (8001384 <stand_im_init_2+0x264>)
 800115a:	f005 fd01 	bl	8006b60 <addCoreServices>
	addBlockServices((tProtocol*) &protocol);
 800115e:	4889      	ldr	r0, [pc, #548]	@ (8001384 <stand_im_init_2+0x264>)
 8001160:	f004 f884 	bl	800526c <addBlockServices>
	addTableStructProtocol((tProtocol*) &protocol);
 8001164:	4887      	ldr	r0, [pc, #540]	@ (8001384 <stand_im_init_2+0x264>)
 8001166:	f005 fd37 	bl	8006bd8 <addTableStructProtocol>
  * @param  IWDGx IWDG Instance
  * @retval None
  */
__STATIC_INLINE void LL_IWDG_ReloadCounter(IWDG_TypeDef *IWDGx)
{
  WRITE_REG(IWDGx->KR, LL_IWDG_KEY_RELOAD);
 800116a:	4b88      	ldr	r3, [pc, #544]	@ (800138c <stand_im_init_2+0x26c>)
 800116c:	f64a 22aa 	movw	r2, #43690	@ 0xaaaa
 8001170:	601a      	str	r2, [r3, #0]

	KICK_DOG
	;

	TableStruct->DSPState = PRG_LOADED_STATE;
 8001172:	6833      	ldr	r3, [r6, #0]
 8001174:	2201      	movs	r2, #1
 8001176:	731a      	strb	r2, [r3, #12]

	X2C_Init();
 8001178:	f005 fd4c 	bl	8006c14 <X2C_Init>

	//HrtimEnDis.In = (_Bool*) &GlobalEnable;
	HrtimEnDis.Enable = false;
 800117c:	4b84      	ldr	r3, [pc, #528]	@ (8001390 <stand_im_init_2+0x270>)
__STATIC_INLINE void LL_ADC_StartCalibration(ADC_TypeDef *ADCx, uint32_t SingleDiff)
{
  /* Note: Write register with some additional bits forced to state reset     */
  /*       instead of modifying only the selected bit for this function,      */
  /*       to not interfere with bits with HW property "rs".                  */
  MODIFY_REG(ADCx->CR,
 800117e:	4885      	ldr	r0, [pc, #532]	@ (8001394 <stand_im_init_2+0x274>)
 8001180:	f04f 42a0 	mov.w	r2, #1342177280	@ 0x50000000
 8001184:	2100      	movs	r1, #0
 8001186:	7019      	strb	r1, [r3, #0]
 8001188:	6893      	ldr	r3, [r2, #8]
 800118a:	4983      	ldr	r1, [pc, #524]	@ (8001398 <stand_im_init_2+0x278>)
 800118c:	400b      	ands	r3, r1
 800118e:	f043 4300 	orr.w	r3, r3, #2147483648	@ 0x80000000
 8001192:	6093      	str	r3, [r2, #8]
 8001194:	6883      	ldr	r3, [r0, #8]
 8001196:	400b      	ands	r3, r1
 8001198:	f043 4300 	orr.w	r3, r3, #2147483648	@ 0x80000000
 800119c:	6083      	str	r3, [r0, #8]
 800119e:	f8d0 3308 	ldr.w	r3, [r0, #776]	@ 0x308
 80011a2:	400b      	ands	r3, r1
 80011a4:	f043 4300 	orr.w	r3, r3, #2147483648	@ 0x80000000
 80011a8:	f8c0 3308 	str.w	r3, [r0, #776]	@ 0x308
  * @param  ADCx ADC instance
  * @retval 0: calibration complete, 1: calibration in progress.
  */
__STATIC_INLINE uint32_t LL_ADC_IsCalibrationOnGoing(const ADC_TypeDef *ADCx)
{
  return ((READ_BIT(ADCx->CR, ADC_CR_ADCAL) == (ADC_CR_ADCAL)) ? 1UL : 0UL);
 80011ac:	6893      	ldr	r3, [r2, #8]
 80011ae:	2b00      	cmp	r3, #0
 80011b0:	dbfc      	blt.n	80011ac <stand_im_init_2+0x8c>
 80011b2:	4a78      	ldr	r2, [pc, #480]	@ (8001394 <stand_im_init_2+0x274>)
 80011b4:	6893      	ldr	r3, [r2, #8]
 80011b6:	2b00      	cmp	r3, #0
 80011b8:	dbfc      	blt.n	80011b4 <stand_im_init_2+0x94>
 80011ba:	4d78      	ldr	r5, [pc, #480]	@ (800139c <stand_im_init_2+0x27c>)
 80011bc:	68ab      	ldr	r3, [r5, #8]
 80011be:	2b00      	cmp	r3, #0
 80011c0:	dbfc      	blt.n	80011bc <stand_im_init_2+0x9c>
  MODIFY_REG(ADCx->CR,
 80011c2:	f04f 48a0 	mov.w	r8, #1342177280	@ 0x50000000
 80011c6:	4c76      	ldr	r4, [pc, #472]	@ (80013a0 <stand_im_init_2+0x280>)
 80011c8:	f8d8 3008 	ldr.w	r3, [r8, #8]
 80011cc:	4f71      	ldr	r7, [pc, #452]	@ (8001394 <stand_im_init_2+0x274>)
 80011ce:	4023      	ands	r3, r4
 80011d0:	f043 0301 	orr.w	r3, r3, #1
 80011d4:	f8c8 3008 	str.w	r3, [r8, #8]
 80011d8:	68bb      	ldr	r3, [r7, #8]
		;

	LL_ADC_Enable(ADC1);
	LL_ADC_Enable(ADC2);
	LL_ADC_Enable(ADC3);
	LL_mDelay(1);
 80011da:	2001      	movs	r0, #1
 80011dc:	4023      	ands	r3, r4
 80011de:	4303      	orrs	r3, r0
 80011e0:	60bb      	str	r3, [r7, #8]
 80011e2:	68ab      	ldr	r3, [r5, #8]
 80011e4:	4023      	ands	r3, r4
 80011e6:	4303      	orrs	r3, r0
 80011e8:	60ab      	str	r3, [r5, #8]
 80011ea:	f003 fa01 	bl	80045f0 <LL_mDelay>
__STATIC_INLINE void LL_ADC_REG_StartConversion(ADC_TypeDef *ADCx)
{
  /* Note: Write register with some additional bits forced to state reset     */
  /*       instead of modifying only the selected bit for this function,      */
  /*       to not interfere with bits with HW property "rs".                  */
  MODIFY_REG(ADCx->CR,
 80011ee:	f8d8 2008 	ldr.w	r2, [r8, #8]
  * @retval None
  */
__STATIC_INLINE void LL_DMA_SetMemoryAddress(DMA_TypeDef *DMAx, uint32_t Channel, uint32_t MemoryAddress)
{
  uint32_t dma_base_addr = (uint32_t)DMAx;
  WRITE_REG(((DMA_Channel_TypeDef *)((uint32_t)(dma_base_addr + CHANNEL_OFFSET_TAB[Channel])))->CMAR, MemoryAddress);
 80011f2:	4b6c      	ldr	r3, [pc, #432]	@ (80013a4 <stand_im_init_2+0x284>)
  * @retval None
  */
__STATIC_INLINE void LL_DMA_SetPeriphAddress(DMA_TypeDef *DMAx, uint32_t Channel, uint32_t PeriphAddress)
{
  uint32_t dma_base_addr = (uint32_t)DMAx;
  WRITE_REG(((DMA_Channel_TypeDef *)((uint32_t)(dma_base_addr + CHANNEL_OFFSET_TAB[Channel])))->CPAR, PeriphAddress);
 80011f4:	f8df c1e4 	ldr.w	ip, [pc, #484]	@ 80013dc <stand_im_init_2+0x2bc>
	/*
	 * Spusti ADC v dualnim modu
	 * Pozor! Data Length neni v Bytech,
	 * ale jedna se o pocet prenosu v jedne davce
	 */
	LL_DMA_SetMemoryAddress(DMA1, LL_DMA_CHANNEL_1,
 80011f8:	486b      	ldr	r0, [pc, #428]	@ (80013a8 <stand_im_init_2+0x288>)
  MODIFY_REG(((DMA_Channel_TypeDef *)((uint32_t)(dma_base_addr + CHANNEL_OFFSET_TAB[Channel])))->CNDTR,
 80011fa:	496c      	ldr	r1, [pc, #432]	@ (80013ac <stand_im_init_2+0x28c>)
 80011fc:	4022      	ands	r2, r4
 80011fe:	f042 0204 	orr.w	r2, r2, #4
 8001202:	f8c8 2008 	str.w	r2, [r8, #8]
 8001206:	68ba      	ldr	r2, [r7, #8]
 8001208:	4022      	ands	r2, r4
 800120a:	f042 0204 	orr.w	r2, r2, #4
 800120e:	60ba      	str	r2, [r7, #8]
 8001210:	68aa      	ldr	r2, [r5, #8]
 8001212:	4022      	ands	r2, r4
 8001214:	f042 0204 	orr.w	r2, r2, #4
 8001218:	60aa      	str	r2, [r5, #8]
  WRITE_REG(((DMA_Channel_TypeDef *)((uint32_t)(dma_base_addr + CHANNEL_OFFSET_TAB[Channel])))->CMAR, MemoryAddress);
 800121a:	6158      	str	r0, [r3, #20]
  WRITE_REG(((DMA_Channel_TypeDef *)((uint32_t)(dma_base_addr + CHANNEL_OFFSET_TAB[Channel])))->CPAR, PeriphAddress);
 800121c:	f8c3 c010 	str.w	ip, [r3, #16]
  MODIFY_REG(((DMA_Channel_TypeDef *)((uint32_t)(dma_base_addr + CHANNEL_OFFSET_TAB[Channel])))->CNDTR,
 8001220:	68da      	ldr	r2, [r3, #12]
 8001222:	400a      	ands	r2, r1
 8001224:	f042 0201 	orr.w	r2, r2, #1
 8001228:	60da      	str	r2, [r3, #12]
  MODIFY_REG(((DMA_Channel_TypeDef *)((uint32_t)(dma_base_addr + CHANNEL_OFFSET_TAB[Channel])))->CCR, DMA_CCR_PL,
 800122a:	689a      	ldr	r2, [r3, #8]
  WRITE_REG(((DMA_Channel_TypeDef *)((uint32_t)(dma_base_addr + CHANNEL_OFFSET_TAB[Channel])))->CPAR, PeriphAddress);
 800122c:	f507 7750 	add.w	r7, r7, #832	@ 0x340
	LL_DMA_SetPeriphAddress(DMA1, LL_DMA_CHANNEL_1,
			(uint32_t) &ADC12_COMMON->CDR);
	LL_DMA_SetDataLength(DMA1, LL_DMA_CHANNEL_1, ADC12_NUM_OF_SAMPLES);
	LL_DMA_SetChannelPriorityLevel(DMA1, LL_DMA_CHANNEL_1, LL_DMA_PRIORITY_LOW);

	LL_DMA_SetMemoryAddress(DMA1, LL_DMA_CHANNEL_3,
 8001230:	3004      	adds	r0, #4
  MODIFY_REG(((DMA_Channel_TypeDef *)((uint32_t)(dma_base_addr + CHANNEL_OFFSET_TAB[Channel])))->CCR, DMA_CCR_PL,
 8001232:	f422 5240 	bic.w	r2, r2, #12288	@ 0x3000
 8001236:	609a      	str	r2, [r3, #8]
  WRITE_REG(((DMA_Channel_TypeDef *)((uint32_t)(dma_base_addr + CHANNEL_OFFSET_TAB[Channel])))->CMAR, MemoryAddress);
 8001238:	63d8      	str	r0, [r3, #60]	@ 0x3c
  WRITE_REG(((DMA_Channel_TypeDef *)((uint32_t)(dma_base_addr + CHANNEL_OFFSET_TAB[Channel])))->CPAR, PeriphAddress);
 800123a:	639f      	str	r7, [r3, #56]	@ 0x38
  MODIFY_REG(((DMA_Channel_TypeDef *)((uint32_t)(dma_base_addr + CHANNEL_OFFSET_TAB[Channel])))->CNDTR,
 800123c:	6b5a      	ldr	r2, [r3, #52]	@ 0x34
	LL_DMA_EnableChannel(DMA1, LL_DMA_CHANNEL_3);

	LL_DMA_ClearFlag_TC1(DMA1);
	LL_DMA_EnableIT_TC(DMA1, LL_DMA_CHANNEL_1);

	LL_mDelay(1);
 800123e:	2001      	movs	r0, #1
 8001240:	400a      	ands	r2, r1
 8001242:	4302      	orrs	r2, r0
 8001244:	635a      	str	r2, [r3, #52]	@ 0x34
  MODIFY_REG(((DMA_Channel_TypeDef *)((uint32_t)(dma_base_addr + CHANNEL_OFFSET_TAB[Channel])))->CCR, DMA_CCR_PL,
 8001246:	6b1a      	ldr	r2, [r3, #48]	@ 0x30
 8001248:	f422 5240 	bic.w	r2, r2, #12288	@ 0x3000
 800124c:	f442 5200 	orr.w	r2, r2, #8192	@ 0x2000
 8001250:	631a      	str	r2, [r3, #48]	@ 0x30
  SET_BIT(((DMA_Channel_TypeDef *)((uint32_t)(dma_base_addr + CHANNEL_OFFSET_TAB[Channel])))->CCR, DMA_CCR_EN);
 8001252:	689a      	ldr	r2, [r3, #8]
 8001254:	4302      	orrs	r2, r0
 8001256:	609a      	str	r2, [r3, #8]
 8001258:	6b1a      	ldr	r2, [r3, #48]	@ 0x30
  * @param  DMAx DMAx Instance
  * @retval None
  */
__STATIC_INLINE void LL_DMA_ClearFlag_TC1(DMA_TypeDef *DMAx)
{
  WRITE_REG(DMAx->IFCR, DMA_IFCR_CTCIF1);
 800125a:	2402      	movs	r4, #2
  SET_BIT(((DMA_Channel_TypeDef *)((uint32_t)(dma_base_addr + CHANNEL_OFFSET_TAB[Channel])))->CCR, DMA_CCR_EN);
 800125c:	4302      	orrs	r2, r0
 800125e:	631a      	str	r2, [r3, #48]	@ 0x30
  WRITE_REG(DMAx->IFCR, DMA_IFCR_CTCIF1);
 8001260:	605c      	str	r4, [r3, #4]
  * @retval None
  */
__STATIC_INLINE void LL_DMA_EnableIT_TC(DMA_TypeDef *DMAx, uint32_t Channel)
{
  uint32_t dma_base_addr = (uint32_t)DMAx;
  SET_BIT(((DMA_Channel_TypeDef *)((uint32_t)(dma_base_addr + CHANNEL_OFFSET_TAB[Channel])))->CCR, DMA_CCR_TCIE);
 8001262:	689a      	ldr	r2, [r3, #8]
 8001264:	4322      	orrs	r2, r4
 8001266:	609a      	str	r2, [r3, #8]
 8001268:	f003 f9c2 	bl	80045f0 <LL_mDelay>
  uint32_t result;

#if ((defined (__ARM_ARCH_7M__      ) && (__ARM_ARCH_7M__      == 1)) || \
     (defined (__ARM_ARCH_7EM__     ) && (__ARM_ARCH_7EM__     == 1)) || \
     (defined (__ARM_ARCH_8M_MAIN__ ) && (__ARM_ARCH_8M_MAIN__ == 1))    )
   __ASM volatile ("rbit %0, %1" : "=r" (result) : "r" (value) );
 800126c:	2301      	movs	r3, #1
 800126e:	fa93 f2a3 	rbit	r2, r3
  */
__STATIC_INLINE void LL_HRTIM_FLT_DisableBlanking(HRTIM_TypeDef *HRTIMx, uint32_t Fault)
{
  uint32_t iFault = (uint8_t)POSITION_VAL(Fault);
  __IO uint32_t *pReg = (__IO uint32_t *)((uint32_t)((uint32_t)(&HRTIMx->sCommonRegs.FLTINR3) +
                                                     REG_OFFSET_TAB_FLTINR[iFault]));
 8001272:	494f      	ldr	r1, [pc, #316]	@ (80013b0 <stand_im_init_2+0x290>)
  CLEAR_BIT(*pReg, (HRTIM_FLTINR3_FLT1BLKE << REG_SHIFT_TAB_FLTxE[iFault]));
 8001274:	4c4f      	ldr	r4, [pc, #316]	@ (80013b4 <stand_im_init_2+0x294>)
   */
  if (value == 0U)
  {
    return 32U;
  }
  return __builtin_clz(value);
 8001276:	fab2 f282 	clz	r2, r2
                                                     REG_OFFSET_TAB_FLTINR[iFault]));
 800127a:	5c88      	ldrb	r0, [r1, r2]
  __IO uint32_t *pReg = (__IO uint32_t *)((uint32_t)((uint32_t)(&HRTIMx->sCommonRegs.FLTINR3) +
 800127c:	494e      	ldr	r1, [pc, #312]	@ (80013b8 <stand_im_init_2+0x298>)
  CLEAR_BIT(*pReg, (HRTIM_FLTINR3_FLT1BLKE << REG_SHIFT_TAB_FLTxE[iFault]));
 800127e:	5ca4      	ldrb	r4, [r4, r2]
 8001280:	5842      	ldr	r2, [r0, r1]
 8001282:	40a3      	lsls	r3, r4
 8001284:	ea22 0303 	bic.w	r3, r2, r3
 8001288:	5043      	str	r3, [r0, r1]
  SET_BIT(HRTIMx->sMasterRegs.MCR, Timers);
 800128a:	f5a1 6181 	sub.w	r1, r1, #1032	@ 0x408
   __ASM volatile ("rbit %0, %1" : "=r" (result) : "r" (value) );
 800128e:	f44f 3380 	mov.w	r3, #65536	@ 0x10000
 8001292:	680a      	ldr	r2, [r1, #0]
 8001294:	f442 2270 	orr.w	r2, r2, #983040	@ 0xf0000
 8001298:	600a      	str	r2, [r1, #0]
 800129a:	fa93 f3a3 	rbit	r3, r3
  if (value == 0U)
 800129e:	2b00      	cmp	r3, #0
 80012a0:	d06a      	beq.n	8001378 <stand_im_init_2+0x258>
  return __builtin_clz(value);
 80012a2:	fab3 f383 	clz	r3, r3
  uint32_t iTimer = (uint8_t)(POSITION_VAL(Timer) - HRTIM_MCR_MCEN_Pos);
 80012a6:	3b10      	subs	r3, #16
                                                     REG_OFFSET_TAB_TIMER[iTimer]));
 80012a8:	4944      	ldr	r1, [pc, #272]	@ (80013bc <stand_im_init_2+0x29c>)
  __IO uint32_t *pReg = (__IO uint32_t *)((uint32_t)((uint32_t)(&HRTIMx->sMasterRegs.MCMP1R) +
 80012aa:	4a45      	ldr	r2, [pc, #276]	@ (80013c0 <stand_im_init_2+0x2a0>)
  uint32_t iTimer = (uint8_t)(POSITION_VAL(Timer) - HRTIM_MCR_MCEN_Pos);
 80012ac:	b2db      	uxtb	r3, r3
                                                     REG_OFFSET_TAB_TIMER[iTimer]));
 80012ae:	f831 3013 	ldrh.w	r3, [r1, r3, lsl #1]
  __IO uint32_t *pReg = (__IO uint32_t *)((uint32_t)((uint32_t)(&HRTIMx->sMasterRegs.MCMP1R) +
 80012b2:	441a      	add	r2, r3
  MODIFY_REG(* pReg, HRTIM_MCMP1R_MCMP1R, CompareValue);
 80012b4:	6813      	ldr	r3, [r2, #0]
 80012b6:	483d      	ldr	r0, [pc, #244]	@ (80013ac <stand_im_init_2+0x28c>)
	LL_TIM_OC_SetCompareCH2(TIM5, EVAL_TIM_PWMPER);
	LL_TIM_EnableCounter(TIM5);
	LL_TIM_CC_EnableChannel(TIM5, LL_TIM_CHANNEL_CH1);

	// LL_DMAMUX_REQ_TIM5_CH2
	LL_DMA_SetMemoryAddress(DMA2, LL_DMA_CHANNEL_4, (uint32_t)&VelocityPosition.ulPeriod);
 80012b8:	4c42      	ldr	r4, [pc, #264]	@ (80013c4 <stand_im_init_2+0x2a4>)
 80012ba:	4003      	ands	r3, r0
 80012bc:	f443 5304 	orr.w	r3, r3, #8448	@ 0x2100
  * @param  TIMx Timer instance
  * @retval None
  */
__STATIC_INLINE void LL_TIM_EnableCounter(TIM_TypeDef *TIMx)
{
  SET_BIT(TIMx->CR1, TIM_CR1_CEN);
 80012c0:	f04f 4180 	mov.w	r1, #1073741824	@ 0x40000000
 80012c4:	f043 0334 	orr.w	r3, r3, #52	@ 0x34
 80012c8:	6013      	str	r3, [r2, #0]
 80012ca:	680a      	ldr	r2, [r1, #0]
  * @param  AutoReload between Min_Data=0 and Max_Data=65535
  * @retval None
  */
__STATIC_INLINE void LL_TIM_SetAutoReload(TIM_TypeDef *TIMx, uint32_t AutoReload)
{
  WRITE_REG(TIMx->ARR, AutoReload);
 80012cc:	4b3e      	ldr	r3, [pc, #248]	@ (80013c8 <stand_im_init_2+0x2a8>)
  SET_BIT(TIMx->CR1, TIM_CR1_CEN);
 80012ce:	f042 0201 	orr.w	r2, r2, #1
 80012d2:	600a      	str	r2, [r1, #0]
  *         @arg @ref LL_TIM_CHANNEL_CH6
  * @retval None
  */
__STATIC_INLINE void LL_TIM_CC_EnableChannel(TIM_TypeDef *TIMx, uint32_t Channels)
{
  SET_BIT(TIMx->CCER, Channels);
 80012d4:	6a0a      	ldr	r2, [r1, #32]
 80012d6:	f442 7288 	orr.w	r2, r2, #272	@ 0x110
 80012da:	f042 0201 	orr.w	r2, r2, #1
 80012de:	620a      	str	r2, [r1, #32]
  WRITE_REG(TIMx->ARR, AutoReload);
 80012e0:	493a      	ldr	r1, [pc, #232]	@ (80013cc <stand_im_init_2+0x2ac>)
  * @param  CompareValue between Min_Data=0 and Max_Data=65535
  * @retval None
  */
__STATIC_INLINE void LL_TIM_OC_SetCompareCH2(TIM_TypeDef *TIMx, uint32_t CompareValue)
{
  WRITE_REG(TIMx->CCR2, CompareValue);
 80012e2:	4a3b      	ldr	r2, [pc, #236]	@ (80013d0 <stand_im_init_2+0x2b0>)
  WRITE_REG(TIMx->ARR, AutoReload);
 80012e4:	62d9      	str	r1, [r3, #44]	@ 0x2c
  WRITE_REG(TIMx->CCR2, CompareValue);
 80012e6:	639a      	str	r2, [r3, #56]	@ 0x38
  SET_BIT(TIMx->CR1, TIM_CR1_CEN);
 80012e8:	681a      	ldr	r2, [r3, #0]
 80012ea:	f042 0201 	orr.w	r2, r2, #1
 80012ee:	601a      	str	r2, [r3, #0]
  SET_BIT(TIMx->CCER, Channels);
 80012f0:	6a1a      	ldr	r2, [r3, #32]
 80012f2:	f042 0201 	orr.w	r2, r2, #1
 80012f6:	621a      	str	r2, [r3, #32]
  WRITE_REG(((DMA_Channel_TypeDef *)((uint32_t)(dma_base_addr + CHANNEL_OFFSET_TAB[Channel])))->CMAR, MemoryAddress);
 80012f8:	4a36      	ldr	r2, [pc, #216]	@ (80013d4 <stand_im_init_2+0x2b4>)
 80012fa:	6514      	str	r4, [r2, #80]	@ 0x50
	LL_DMA_SetPeriphAddress(DMA2, LL_DMA_CHANNEL_4, (uint32_t)&VelocityPosition.TIM_Period->CCR1);
 80012fc:	f854 1c10 	ldr.w	r1, [r4, #-16]
 8001300:	3134      	adds	r1, #52	@ 0x34
  WRITE_REG(((DMA_Channel_TypeDef *)((uint32_t)(dma_base_addr + CHANNEL_OFFSET_TAB[Channel])))->CPAR, PeriphAddress);
 8001302:	64d1      	str	r1, [r2, #76]	@ 0x4c
  MODIFY_REG(((DMA_Channel_TypeDef *)((uint32_t)(dma_base_addr + CHANNEL_OFFSET_TAB[Channel])))->CNDTR,
 8001304:	6c91      	ldr	r1, [r2, #72]	@ 0x48
 8001306:	4001      	ands	r1, r0
 8001308:	f041 0101 	orr.w	r1, r1, #1
 800130c:	6491      	str	r1, [r2, #72]	@ 0x48
  SET_BIT(((DMA_Channel_TypeDef *)((uint32_t)(dma_base_addr + CHANNEL_OFFSET_TAB[Channel])))->CCR, DMA_CCR_EN);
 800130e:	6c51      	ldr	r1, [r2, #68]	@ 0x44
 8001310:	f041 0101 	orr.w	r1, r1, #1
 8001314:	6451      	str	r1, [r2, #68]	@ 0x44
  WRITE_REG(((DMA_Channel_TypeDef *)((uint32_t)(dma_base_addr + CHANNEL_OFFSET_TAB[Channel])))->CMAR, MemoryAddress);
 8001316:	f5a2 6280 	sub.w	r2, r2, #1024	@ 0x400
	LL_DMA_SetDataLength(DMA2, LL_DMA_CHANNEL_4, 1);
	LL_DMA_EnableChannel(DMA2, LL_DMA_CHANNEL_4);

	// LL_DMAMUX_REQ_TIM5_UP
	LL_DMA_SetMemoryAddress(DMA1, LL_DMA_CHANNEL_4, (uint32_t)&VelocityPosition.ulPosition);
 800131a:	1d21      	adds	r1, r4, #4
 800131c:	6511      	str	r1, [r2, #80]	@ 0x50
	LL_DMA_SetPeriphAddress(DMA1, LL_DMA_CHANNEL_4, (uint32_t)&VelocityPosition.TIM_Position->CNT);
 800131e:	f854 1c14 	ldr.w	r1, [r4, #-20]
 8001322:	3124      	adds	r1, #36	@ 0x24
  WRITE_REG(((DMA_Channel_TypeDef *)((uint32_t)(dma_base_addr + CHANNEL_OFFSET_TAB[Channel])))->CPAR, PeriphAddress);
 8001324:	64d1      	str	r1, [r2, #76]	@ 0x4c
  MODIFY_REG(((DMA_Channel_TypeDef *)((uint32_t)(dma_base_addr + CHANNEL_OFFSET_TAB[Channel])))->CNDTR,
 8001326:	6c91      	ldr	r1, [r2, #72]	@ 0x48
 8001328:	4001      	ands	r1, r0
 800132a:	f041 0101 	orr.w	r1, r1, #1
 800132e:	6491      	str	r1, [r2, #72]	@ 0x48
  SET_BIT(((DMA_Channel_TypeDef *)((uint32_t)(dma_base_addr + CHANNEL_OFFSET_TAB[Channel])))->CCR, DMA_CCR_EN);
 8001330:	6c51      	ldr	r1, [r2, #68]	@ 0x44
  WRITE_REG(DMAx->IFCR, DMA_IFCR_CTCIF4);
 8001332:	f44f 5000 	mov.w	r0, #8192	@ 0x2000
  SET_BIT(((DMA_Channel_TypeDef *)((uint32_t)(dma_base_addr + CHANNEL_OFFSET_TAB[Channel])))->CCR, DMA_CCR_EN);
 8001336:	f041 0101 	orr.w	r1, r1, #1
 800133a:	6451      	str	r1, [r2, #68]	@ 0x44
  WRITE_REG(DMAx->IFCR, DMA_IFCR_CTCIF4);
 800133c:	6050      	str	r0, [r2, #4]
  SET_BIT(((DMA_Channel_TypeDef *)((uint32_t)(dma_base_addr + CHANNEL_OFFSET_TAB[Channel])))->CCR, DMA_CCR_TCIE);
 800133e:	6c50      	ldr	r0, [r2, #68]	@ 0x44
  SET_BIT(TIMx->CR1, TIM_CR1_CEN);
 8001340:	4925      	ldr	r1, [pc, #148]	@ (80013d8 <stand_im_init_2+0x2b8>)
 8001342:	f040 0002 	orr.w	r0, r0, #2
 8001346:	6450      	str	r0, [r2, #68]	@ 0x44
  * @param  TIMx Timer instance
  * @retval None
  */
__STATIC_INLINE void LL_TIM_EnableDMAReq_CC2(TIM_TypeDef *TIMx)
{
  SET_BIT(TIMx->DIER, TIM_DIER_CC2DE);
 8001348:	68da      	ldr	r2, [r3, #12]
 800134a:	f442 6280 	orr.w	r2, r2, #1024	@ 0x400
 800134e:	60da      	str	r2, [r3, #12]
  SET_BIT(TIMx->DIER, TIM_DIER_UDE);
 8001350:	68da      	ldr	r2, [r3, #12]
 8001352:	f442 7280 	orr.w	r2, r2, #256	@ 0x100
 8001356:	60da      	str	r2, [r3, #12]
  SET_BIT(TIMx->CR1, TIM_CR1_CEN);
 8001358:	680b      	ldr	r3, [r1, #0]
  WRITE_REG(TIMx->SR, ~(TIM_SR_UIF));
 800135a:	f06f 0201 	mvn.w	r2, #1
  SET_BIT(TIMx->CR1, TIM_CR1_CEN);
 800135e:	f043 0301 	orr.w	r3, r3, #1
 8001362:	600b      	str	r3, [r1, #0]
  WRITE_REG(TIMx->SR, ~(TIM_SR_UIF));
 8001364:	610a      	str	r2, [r1, #16]
  SET_BIT(TIMx->DIER, TIM_DIER_UIE);
 8001366:	68cb      	ldr	r3, [r1, #12]
 8001368:	f043 0301 	orr.w	r3, r3, #1
 800136c:	60cb      	str	r3, [r1, #12]
	 */
	LL_TIM_EnableCounter(TIM6);
	LL_TIM_ClearFlag_UPDATE(TIM6);
	LL_TIM_EnableIT_UPDATE(TIM6);

	TableStruct->DSPState = INIT_STATE;
 800136e:	6833      	ldr	r3, [r6, #0]
 8001370:	2203      	movs	r2, #3
 8001372:	731a      	strb	r2, [r3, #12]
	//TableStruct->DSPState = RUN_STATE_POWER_ON;
}
 8001374:	e8bd 81f0 	ldmia.w	sp!, {r4, r5, r6, r7, r8, pc}
 8001378:	4a11      	ldr	r2, [pc, #68]	@ (80013c0 <stand_im_init_2+0x2a0>)
 800137a:	e79b      	b.n	80012b4 <stand_im_init_2+0x194>
 800137c:	20000024 	.word	0x20000024
 8001380:	200001a4 	.word	0x200001a4
 8001384:	20000170 	.word	0x20000170
 8001388:	20000070 	.word	0x20000070
 800138c:	40003000 	.word	0x40003000
 8001390:	20000064 	.word	0x20000064
 8001394:	50000100 	.word	0x50000100
 8001398:	3fffffc0 	.word	0x3fffffc0
 800139c:	50000400 	.word	0x50000400
 80013a0:	7fffffc0 	.word	0x7fffffc0
 80013a4:	40020000 	.word	0x40020000
 80013a8:	20000068 	.word	0x20000068
 80013ac:	ffff0000 	.word	0xffff0000
 80013b0:	08007e68 	.word	0x08007e68
 80013b4:	08007e60 	.word	0x08007e60
 80013b8:	40016c08 	.word	0x40016c08
 80013bc:	08007e70 	.word	0x08007e70
 80013c0:	4001681c 	.word	0x4001681c
 80013c4:	20000014 	.word	0x20000014
 80013c8:	40000c00 	.word	0x40000c00
 80013cc:	0002980f 	.word	0x0002980f
 80013d0:	0002980e 	.word	0x0002980e
 80013d4:	40020400 	.word	0x40020400
 80013d8:	40001000 	.word	0x40001000
 80013dc:	5000030c 	.word	0x5000030c

080013e0 <stand_im_loop>:

/*
 * Infinite loop only for communication
 */
void stand_im_loop(void) {
 80013e0:	b508      	push	{r3, lr}
	TableStruct->protocols[0]->pCommunicate(
 80013e2:	4b05      	ldr	r3, [pc, #20]	@ (80013f8 <stand_im_loop+0x18>)
 80013e4:	681b      	ldr	r3, [r3, #0]
 80013e6:	699a      	ldr	r2, [r3, #24]
			(tProtocol*) TableStruct->protocols[0]);
 80013e8:	6998      	ldr	r0, [r3, #24]
	TableStruct->protocols[0]->pCommunicate(
 80013ea:	6813      	ldr	r3, [r2, #0]
 80013ec:	4798      	blx	r3
 80013ee:	4b03      	ldr	r3, [pc, #12]	@ (80013fc <stand_im_loop+0x1c>)
 80013f0:	f64a 22aa 	movw	r2, #43690	@ 0xaaaa
 80013f4:	601a      	str	r2, [r3, #0]
	KICK_DOG
	;
}
 80013f6:	bd08      	pop	{r3, pc}
 80013f8:	20000024 	.word	0x20000024
 80013fc:	40003000 	.word	0x40003000

08001400 <DMA1_Channel1_IRQHandler>:
  WRITE_REG(DMAx->IFCR, DMA_IFCR_CTCIF1);
 8001400:	4b84      	ldr	r3, [pc, #528]	@ (8001614 <DMA1_Channel1_IRQHandler+0x214>)
 * f = 20kHz
 */
void DMA1_Channel1_IRQHandler(void) {
	//GPIOA->BSRR = GPIO_PIN_6;
	LL_DMA_ClearFlag_TC1(DMA1);
	Cntr.Period_500us++;
 8001402:	4a85      	ldr	r2, [pc, #532]	@ (8001618 <DMA1_Channel1_IRQHandler+0x218>)

	x2cModel.inports.bInButton = readBtn();
 8001404:	4885      	ldr	r0, [pc, #532]	@ (800161c <DMA1_Channel1_IRQHandler+0x21c>)

	x2cModel.inports.bInIa = (Ia);// + Ic) / 2;
	x2cModel.inports.bInIb = 0.0f;
	x2cModel.inports.bInIc = Ic; //0.0f;
	x2cModel.inports.bInVdc = ((float) (rawAdcData[0].adc3.samples.Vdc)
			* ADC_VOLTAGE_GAIN);
 8001406:	eddf 6a86 	vldr	s13, [pc, #536]	@ 8001620 <DMA1_Channel1_IRQHandler+0x220>
			- (int32_t) ADCOffsetAccum[0]) * ADC_CURRENT_GAIN);
 800140a:	ed9f 7a86 	vldr	s14, [pc, #536]	@ 8001624 <DMA1_Channel1_IRQHandler+0x224>
 800140e:	2102      	movs	r1, #2
void DMA1_Channel1_IRQHandler(void) {
 8001410:	e92d 41f0 	stmdb	sp!, {r4, r5, r6, r7, r8, lr}
 8001414:	6059      	str	r1, [r3, #4]
	Cntr.Period_500us++;
 8001416:	6853      	ldr	r3, [r2, #4]
	x2cModel.inports.bInButton = readBtn();
 8001418:	4c83      	ldr	r4, [pc, #524]	@ (8001628 <DMA1_Channel1_IRQHandler+0x228>)
	x2cModel.inports.bInPwmFault = readHrtimPWM_Fault();
 800141a:	4984      	ldr	r1, [pc, #528]	@ (800162c <DMA1_Channel1_IRQHandler+0x22c>)
	Cntr.Period_500us++;
 800141c:	3301      	adds	r3, #1
 800141e:	6053      	str	r3, [r2, #4]
	x2cModel.inports.bInEnable = readEnable();
 8001420:	4b83      	ldr	r3, [pc, #524]	@ (8001630 <DMA1_Channel1_IRQHandler+0x230>)
	x2cModel.inports.bInButton = readBtn();
 8001422:	6902      	ldr	r2, [r0, #16]
	x2cModel.inports.bInEnable = readEnable();
 8001424:	691b      	ldr	r3, [r3, #16]

	switch (TableStruct->DSPState) {
 8001426:	4883      	ldr	r0, [pc, #524]	@ (8001634 <DMA1_Channel1_IRQHandler+0x234>)
	x2cModel.inports.bInButton = readBtn();
 8001428:	f3c2 3240 	ubfx	r2, r2, #13, #1
	x2cModel.inports.bInEnable = readEnable();
 800142c:	f3c3 23c0 	ubfx	r3, r3, #11, #1
	x2cModel.inports.bInButton = readBtn();
 8001430:	f884 23c4 	strb.w	r2, [r4, #964]	@ 0x3c4
	x2cModel.inports.bInEnable = readEnable();
 8001434:	f884 33c5 	strb.w	r3, [r4, #965]	@ 0x3c5
	x2cModel.inports.bInPwmFault = readHrtimPWM_Fault();
 8001438:	f8d1 339c 	ldr.w	r3, [r1, #924]	@ 0x39c
 800143c:	f8d1 2394 	ldr.w	r2, [r1, #916]	@ 0x394
	switch (TableStruct->DSPState) {
 8001440:	6800      	ldr	r0, [r0, #0]
	x2cModel.inports.bInPwmFault = readHrtimPWM_Fault();
 8001442:	ea23 0302 	bic.w	r3, r3, r2
	Ia = -((float) (rawAdcData[0].adc12.samples.Ia1
 8001446:	4a7c      	ldr	r2, [pc, #496]	@ (8001638 <DMA1_Channel1_IRQHandler+0x238>)
	x2cModel.inports.bInPwmFault = readHrtimPWM_Fault();
 8001448:	f013 033f 	ands.w	r3, r3, #63	@ 0x3f
	Ia = -((float) (rawAdcData[0].adc12.samples.Ia1
 800144c:	f9b2 c002 	ldrsh.w	ip, [r2, #2]
	Ic = -((float) (rawAdcData[0].adc12.samples.Ic1
 8001450:	f9b2 e000 	ldrsh.w	lr, [r2]
	x2cModel.inports.bInVdc = ((float) (rawAdcData[0].adc3.samples.Vdc)
 8001454:	8892      	ldrh	r2, [r2, #4]
	x2cModel.inports.bInPwmFault = readHrtimPWM_Fault();
 8001456:	bf18      	it	ne
 8001458:	2301      	movne	r3, #1
	x2cModel.inports.bInVdc = ((float) (rawAdcData[0].adc3.samples.Vdc)
 800145a:	ee07 2a90 	vmov	s15, r2
	x2cModel.inports.bInPwmFault = readHrtimPWM_Fault();
 800145e:	f884 33dc 	strb.w	r3, [r4, #988]	@ 0x3dc
			- (int32_t) ADCOffsetAccum[0]) * ADC_CURRENT_GAIN);
 8001462:	4b76      	ldr	r3, [pc, #472]	@ (800163c <DMA1_Channel1_IRQHandler+0x23c>)
	x2cModel.inports.bInVdc = ((float) (rawAdcData[0].adc3.samples.Vdc)
 8001464:	eef8 7a67 	vcvt.f32.u32	s15, s15
			- (int32_t) ADCOffsetAccum[1]) * ADC_CURRENT_GAIN);
 8001468:	e9d3 6500 	ldrd	r6, r5, [r3]
			* ADC_VOLTAGE_GAIN);
 800146c:	ee67 7aa6 	vmul.f32	s15, s15, s13
			- (int32_t) ADCOffsetAccum[0]) * ADC_CURRENT_GAIN);
 8001470:	ebac 0206 	sub.w	r2, ip, r6
	x2cModel.inports.bInVdc = ((float) (rawAdcData[0].adc3.samples.Vdc)
 8001474:	edc4 7af8 	vstr	s15, [r4, #992]	@ 0x3e0
			- (int32_t) ADCOffsetAccum[0]) * ADC_CURRENT_GAIN);
 8001478:	ee07 2a90 	vmov	s15, r2
	Ia = -((float) (rawAdcData[0].adc12.samples.Ia1
 800147c:	eef8 7ae7 	vcvt.f32.s32	s15, s15
			- (int32_t) ADCOffsetAccum[1]) * ADC_CURRENT_GAIN);
 8001480:	ebae 0205 	sub.w	r2, lr, r5
	Ia = -((float) (rawAdcData[0].adc12.samples.Ia1
 8001484:	ee67 7a67 	vnmul.f32	s15, s14, s15
	x2cModel.inports.bInIa = (Ia);// + Ic) / 2;
 8001488:	edc4 7af2 	vstr	s15, [r4, #968]	@ 0x3c8
			- (int32_t) ADCOffsetAccum[1]) * ADC_CURRENT_GAIN);
 800148c:	ee07 2a90 	vmov	s15, r2
	Ic = -((float) (rawAdcData[0].adc12.samples.Ic1
 8001490:	eef8 7ae7 	vcvt.f32.s32	s15, s15
	x2cModel.inports.bInIb = 0.0f;
 8001494:	2200      	movs	r2, #0
	Ic = -((float) (rawAdcData[0].adc12.samples.Ic1
 8001496:	ee27 7a67 	vnmul.f32	s14, s14, s15
	x2cModel.inports.bInIb = 0.0f;
 800149a:	f8c4 23cc 	str.w	r2, [r4, #972]	@ 0x3cc
	x2cModel.inports.bInIc = Ic; //0.0f;
 800149e:	ed84 7af4 	vstr	s14, [r4, #976]	@ 0x3d0
	switch (TableStruct->DSPState) {
 80014a2:	7b02      	ldrb	r2, [r0, #12]
 80014a4:	2a03      	cmp	r2, #3
 80014a6:	f000 808e 	beq.w	80015c6 <DMA1_Channel1_IRQHandler+0x1c6>
 80014aa:	b2d1      	uxtb	r1, r2
 80014ac:	3904      	subs	r1, #4
 80014ae:	2901      	cmp	r1, #1
 80014b0:	d801      	bhi.n	80014b6 <DMA1_Channel1_IRQHandler+0xb6>
			TableStruct->DSPState = RUN_STATE_POWER_OFF;
		}
		break;
	case RUN_STATE_POWER_OFF:
	case RUN_STATE_POWER_ON:
		X2C_Update_1();
 80014b2:	f005 fe95 	bl	80071e0 <X2C_Update_1>
		break;
 80014b6:	4962      	ldr	r1, [pc, #392]	@ (8001640 <DMA1_Channel1_IRQHandler+0x240>)
	case PRG_LOADED_STATE:
	default:
		break;
	}

	HRTIM1->sTimerxRegs[0].CMP1xR = modToCmp(*x2cModel.outports.bOutPWMa);
 80014b8:	f8d4 33f4 	ldr.w	r3, [r4, #1012]	@ 0x3f4

/* Fuinkce slouzi pro prepocet relativniho napeti
*  na CMP1 (set register) PWM modulatoru
*/
static inline uint32_t modToCmp(float x){
	if(x >=  0.999f) return (HRTIM_PERIOD)-32;
 80014bc:	eddf 7a61 	vldr	s15, [pc, #388]	@ 8001644 <DMA1_Channel1_IRQHandler+0x244>
 80014c0:	ed93 7a00 	vldr	s14, [r3]
 80014c4:	eeb4 7ae7 	vcmpe.f32	s14, s15
 80014c8:	eef1 fa10 	vmrs	APSR_nzcv, fpscr
 80014cc:	f280 8092 	bge.w	80015f4 <DMA1_Channel1_IRQHandler+0x1f4>
	if(x <= -0.999f) return 32;
 80014d0:	eddf 7a5d 	vldr	s15, [pc, #372]	@ 8001648 <DMA1_Channel1_IRQHandler+0x248>
 80014d4:	eeb4 7ae7 	vcmpe.f32	s14, s15
 80014d8:	eef1 fa10 	vmrs	APSR_nzcv, fpscr
 80014dc:	f240 8098 	bls.w	8001610 <DMA1_Channel1_IRQHandler+0x210>
	return (uint32_t)(HRTIM_PERIOD) * (0.5f + 0.5f * x);
 80014e0:	eef6 7a00 	vmov.f32	s15, #96	@ 0x3f000000  0.5
 80014e4:	eee7 7a27 	vfma.f32	s15, s14, s15
 80014e8:	ed9f 7a58 	vldr	s14, [pc, #352]	@ 800164c <DMA1_Channel1_IRQHandler+0x24c>
 80014ec:	ee67 7a87 	vmul.f32	s15, s15, s14
 80014f0:	eefc 7ae7 	vcvt.u32.f32	s15, s15
 80014f4:	ee17 3a90 	vmov	r3, s15
	HRTIM1->sTimerxRegs[1].CMP1xR = modToCmp(*x2cModel.outports.bOutPWMb);
 80014f8:	f8d4 03f8 	ldr.w	r0, [r4, #1016]	@ 0x3f8
	if(x >=  0.999f) return (HRTIM_PERIOD)-32;
 80014fc:	eddf 7a51 	vldr	s15, [pc, #324]	@ 8001644 <DMA1_Channel1_IRQHandler+0x244>
 8001500:	ed90 7a00 	vldr	s14, [r0]
	HRTIM1->sTimerxRegs[0].CMP1xR = modToCmp(*x2cModel.outports.bOutPWMa);
 8001504:	4a49      	ldr	r2, [pc, #292]	@ (800162c <DMA1_Channel1_IRQHandler+0x22c>)
 8001506:	eeb4 7ae7 	vcmpe.f32	s14, s15
 800150a:	eef1 fa10 	vmrs	APSR_nzcv, fpscr
 800150e:	f8c2 309c 	str.w	r3, [r2, #156]	@ 0x9c
 8001512:	da6c      	bge.n	80015ee <DMA1_Channel1_IRQHandler+0x1ee>
	if(x <= -0.999f) return 32;
 8001514:	eddf 7a4c 	vldr	s15, [pc, #304]	@ 8001648 <DMA1_Channel1_IRQHandler+0x248>
 8001518:	eeb4 7ae7 	vcmpe.f32	s14, s15
 800151c:	eef1 fa10 	vmrs	APSR_nzcv, fpscr
 8001520:	d972      	bls.n	8001608 <DMA1_Channel1_IRQHandler+0x208>
	return (uint32_t)(HRTIM_PERIOD) * (0.5f + 0.5f * x);
 8001522:	eef6 7a00 	vmov.f32	s15, #96	@ 0x3f000000  0.5
 8001526:	eee7 7a27 	vfma.f32	s15, s14, s15
 800152a:	ed9f 7a48 	vldr	s14, [pc, #288]	@ 800164c <DMA1_Channel1_IRQHandler+0x24c>
 800152e:	ee67 7a87 	vmul.f32	s15, s15, s14
 8001532:	eefc 7ae7 	vcvt.u32.f32	s15, s15
 8001536:	ee17 3a90 	vmov	r3, s15
	HRTIM1->sTimerxRegs[2].CMP1xR = modToCmp(*x2cModel.outports.bOutPWMc);
 800153a:	f8d4 03fc 	ldr.w	r0, [r4, #1020]	@ 0x3fc
	if(x >=  0.999f) return (HRTIM_PERIOD)-32;
 800153e:	eddf 7a41 	vldr	s15, [pc, #260]	@ 8001644 <DMA1_Channel1_IRQHandler+0x244>
 8001542:	ed90 7a00 	vldr	s14, [r0]
	HRTIM1->sTimerxRegs[1].CMP1xR = modToCmp(*x2cModel.outports.bOutPWMb);
 8001546:	4a39      	ldr	r2, [pc, #228]	@ (800162c <DMA1_Channel1_IRQHandler+0x22c>)
 8001548:	eeb4 7ae7 	vcmpe.f32	s14, s15
 800154c:	eef1 fa10 	vmrs	APSR_nzcv, fpscr
 8001550:	f8c2 311c 	str.w	r3, [r2, #284]	@ 0x11c
 8001554:	da48      	bge.n	80015e8 <DMA1_Channel1_IRQHandler+0x1e8>
	if(x <= -0.999f) return 32;
 8001556:	eddf 7a3c 	vldr	s15, [pc, #240]	@ 8001648 <DMA1_Channel1_IRQHandler+0x248>
 800155a:	eeb4 7ae7 	vcmpe.f32	s14, s15
 800155e:	eef1 fa10 	vmrs	APSR_nzcv, fpscr
 8001562:	d953      	bls.n	800160c <DMA1_Channel1_IRQHandler+0x20c>
	return (uint32_t)(HRTIM_PERIOD) * (0.5f + 0.5f * x);
 8001564:	eef6 7a00 	vmov.f32	s15, #96	@ 0x3f000000  0.5
 8001568:	eee7 7a27 	vfma.f32	s15, s14, s15
 800156c:	ed9f 7a37 	vldr	s14, [pc, #220]	@ 800164c <DMA1_Channel1_IRQHandler+0x24c>
 8001570:	ee67 7a87 	vmul.f32	s15, s15, s14
 8001574:	eefc 7ae7 	vcvt.u32.f32	s15, s15
 8001578:	ee17 3a90 	vmov	r3, s15

	writeErrClear(*x2cModel.outports.bOutErrClear);

	HrtimEnDis.Enable = *x2cModel.outports.bOutPWMEnable;
 800157c:	e9d4 02fb 	ldrd	r0, r2, [r4, #1004]	@ 0x3ec
	writeErrClear(*x2cModel.outports.bOutErrClear);
 8001580:	7804      	ldrb	r4, [r0, #0]
	HRTIM1->sTimerxRegs[2].CMP1xR = modToCmp(*x2cModel.outports.bOutPWMc);
 8001582:	482a      	ldr	r0, [pc, #168]	@ (800162c <DMA1_Channel1_IRQHandler+0x22c>)
	HrtimEnDis.Enable = *x2cModel.outports.bOutPWMEnable;
 8001584:	7812      	ldrb	r2, [r2, #0]
	HRTIM1->sTimerxRegs[2].CMP1xR = modToCmp(*x2cModel.outports.bOutPWMc);
 8001586:	f8c0 319c 	str.w	r3, [r0, #412]	@ 0x19c
	writeErrClear(*x2cModel.outports.bOutErrClear);
 800158a:	2c00      	cmp	r4, #0
 800158c:	4b23      	ldr	r3, [pc, #140]	@ (800161c <DMA1_Channel1_IRQHandler+0x21c>)
 800158e:	bf0c      	ite	eq
 8001590:	f04f 5480 	moveq.w	r4, #268435456	@ 0x10000000
 8001594:	f44f 5480 	movne.w	r4, #4096	@ 0x1000
 8001598:	619c      	str	r4, [r3, #24]
	HrtimEnDis.Enable = *x2cModel.outports.bOutPWMEnable;
 800159a:	700a      	strb	r2, [r1, #0]
	if (S->Enable) {
 800159c:	b152      	cbz	r2, 80015b4 <DMA1_Channel1_IRQHandler+0x1b4>
		if (S->lastState == 0)
 800159e:	784b      	ldrb	r3, [r1, #1]
 80015a0:	b92b      	cbnz	r3, 80015ae <DMA1_Channel1_IRQHandler+0x1ae>
			HRTIM1->sCommonRegs.OENR |= HRTIM_PhAll_OENR;
 80015a2:	f8d0 3394 	ldr.w	r3, [r0, #916]	@ 0x394
 80015a6:	f043 033f 	orr.w	r3, r3, #63	@ 0x3f
 80015aa:	f8c0 3394 	str.w	r3, [r0, #916]	@ 0x394
	S->lastState = S->Enable;
 80015ae:	704a      	strb	r2, [r1, #1]
	controlHrtimPWM_EnDis(&HrtimEnDis);
	//GPIOA->BRR = GPIO_PIN_6;
}
 80015b0:	e8bd 81f0 	ldmia.w	sp!, {r4, r5, r6, r7, r8, pc}
		HRTIM1->sCommonRegs.ODISR |= HRTIM_PhAll_ODISR;
 80015b4:	f8d0 3398 	ldr.w	r3, [r0, #920]	@ 0x398
 80015b8:	f043 033f 	orr.w	r3, r3, #63	@ 0x3f
 80015bc:	f8c0 3398 	str.w	r3, [r0, #920]	@ 0x398
	S->lastState = S->Enable;
 80015c0:	704a      	strb	r2, [r1, #1]
 80015c2:	e8bd 81f0 	ldmia.w	sp!, {r4, r5, r6, r7, r8, pc}
		if (ADCOffsetCntr--) {
 80015c6:	4f22      	ldr	r7, [pc, #136]	@ (8001650 <DMA1_Channel1_IRQHandler+0x250>)
		HrtimEnDis.Enable = false;
 80015c8:	491d      	ldr	r1, [pc, #116]	@ (8001640 <DMA1_Channel1_IRQHandler+0x240>)
		if (ADCOffsetCntr--) {
 80015ca:	683a      	ldr	r2, [r7, #0]
		HrtimEnDis.Enable = false;
 80015cc:	f04f 0800 	mov.w	r8, #0
 80015d0:	f881 8000 	strb.w	r8, [r1]
		if (ADCOffsetCntr--) {
 80015d4:	f102 38ff 	add.w	r8, r2, #4294967295
 80015d8:	f8c7 8000 	str.w	r8, [r7]
 80015dc:	b16a      	cbz	r2, 80015fa <DMA1_Channel1_IRQHandler+0x1fa>
			ADCOffsetAccum[0] += rawAdcData[0].adc12.samples.Ic1;
 80015de:	4476      	add	r6, lr
			ADCOffsetAccum[1] += rawAdcData[0].adc12.samples.Ia1;
 80015e0:	4465      	add	r5, ip
 80015e2:	e9c3 6500 	strd	r6, r5, [r3]
 80015e6:	e767      	b.n	80014b8 <DMA1_Channel1_IRQHandler+0xb8>
	if(x >=  0.999f) return (HRTIM_PERIOD)-32;
 80015e8:	f244 2348 	movw	r3, #16968	@ 0x4248
 80015ec:	e7c6      	b.n	800157c <DMA1_Channel1_IRQHandler+0x17c>
 80015ee:	f244 2348 	movw	r3, #16968	@ 0x4248
 80015f2:	e7a2      	b.n	800153a <DMA1_Channel1_IRQHandler+0x13a>
 80015f4:	f244 2348 	movw	r3, #16968	@ 0x4248
 80015f8:	e77e      	b.n	80014f8 <DMA1_Channel1_IRQHandler+0xf8>
			ADCOffsetAccum[0] >>= ADC_OFFSET_SHIFT;
 80015fa:	09b6      	lsrs	r6, r6, #6
			ADCOffsetAccum[1] >>= ADC_OFFSET_SHIFT;
 80015fc:	09ad      	lsrs	r5, r5, #6
			ADCOffsetAccum[0] >>= ADC_OFFSET_SHIFT;
 80015fe:	601e      	str	r6, [r3, #0]
			ADCOffsetAccum[1] >>= ADC_OFFSET_SHIFT;
 8001600:	605d      	str	r5, [r3, #4]
			TableStruct->DSPState = RUN_STATE_POWER_OFF;
 8001602:	2304      	movs	r3, #4
 8001604:	7303      	strb	r3, [r0, #12]
 8001606:	e757      	b.n	80014b8 <DMA1_Channel1_IRQHandler+0xb8>
	if(x <= -0.999f) return 32;
 8001608:	2320      	movs	r3, #32
 800160a:	e796      	b.n	800153a <DMA1_Channel1_IRQHandler+0x13a>
 800160c:	2320      	movs	r3, #32
 800160e:	e7b5      	b.n	800157c <DMA1_Channel1_IRQHandler+0x17c>
 8001610:	2320      	movs	r3, #32
 8001612:	e771      	b.n	80014f8 <DMA1_Channel1_IRQHandler+0xf8>
 8001614:	40020000 	.word	0x40020000
 8001618:	2000004c 	.word	0x2000004c
 800161c:	48000800 	.word	0x48000800
 8001620:	3c4b13b1 	.word	0x3c4b13b1
 8001624:	3c536141 	.word	0x3c536141
 8001628:	200082f0 	.word	0x200082f0
 800162c:	40016800 	.word	0x40016800
 8001630:	48000400 	.word	0x48000400
 8001634:	20000024 	.word	0x20000024
 8001638:	20000068 	.word	0x20000068
 800163c:	2000005c 	.word	0x2000005c
 8001640:	20000064 	.word	0x20000064
 8001644:	3f7fbe77 	.word	0x3f7fbe77
 8001648:	bf7fbe77 	.word	0xbf7fbe77
 800164c:	4684d000 	.word	0x4684d000
 8001650:	20000020 	.word	0x20000020

08001654 <HRTIM1_Master_IRQHandler>:
   __ASM volatile ("rbit %0, %1" : "=r" (result) : "r" (value) );
 8001654:	f44f 3380 	mov.w	r3, #65536	@ 0x10000
 8001658:	fa93 f3a3 	rbit	r3, r3
  if (value == 0U)
 800165c:	b18b      	cbz	r3, 8001682 <HRTIM1_Master_IRQHandler+0x2e>
  return __builtin_clz(value);
 800165e:	fab3 f383 	clz	r3, r3
  *         @arg @ref LL_HRTIM_TIMER_F
  * @retval None
  */
__STATIC_INLINE void LL_HRTIM_ClearFlag_CMP1(HRTIM_TypeDef *HRTIMx, uint32_t Timer)
{
  uint32_t iTimer = (uint8_t)(POSITION_VAL(Timer) - HRTIM_MCR_MCEN_Pos);
 8001662:	3b10      	subs	r3, #16
  __IO uint32_t *pReg = (__IO uint32_t *)((uint32_t)((uint32_t)(&HRTIMx->sMasterRegs.MICR) +
                                                     REG_OFFSET_TAB_TIMER[iTimer]));
 8001664:	4908      	ldr	r1, [pc, #32]	@ (8001688 <HRTIM1_Master_IRQHandler+0x34>)
  __IO uint32_t *pReg = (__IO uint32_t *)((uint32_t)((uint32_t)(&HRTIMx->sMasterRegs.MICR) +
 8001666:	4a09      	ldr	r2, [pc, #36]	@ (800168c <HRTIM1_Master_IRQHandler+0x38>)
  uint32_t iTimer = (uint8_t)(POSITION_VAL(Timer) - HRTIM_MCR_MCEN_Pos);
 8001668:	b2db      	uxtb	r3, r3
                                                     REG_OFFSET_TAB_TIMER[iTimer]));
 800166a:	f831 3013 	ldrh.w	r3, [r1, r3, lsl #1]
  __IO uint32_t *pReg = (__IO uint32_t *)((uint32_t)((uint32_t)(&HRTIMx->sMasterRegs.MICR) +
 800166e:	441a      	add	r2, r3
  SET_BIT(*pReg, HRTIM_MICR_MCMP1);
 8001670:	6813      	ldr	r3, [r2, #0]
 * Nepouziva se
 */
void HRTIM1_Master_IRQHandler(void) {
	//GPIOA->BSRR = LL_GPIO_PIN_6;
	LL_HRTIM_ClearFlag_CMP1(HRTIM1, LL_HRTIM_TIMER_MASTER);
	Cntr.TestHrtim++;
 8001672:	4907      	ldr	r1, [pc, #28]	@ (8001690 <HRTIM1_Master_IRQHandler+0x3c>)
 8001674:	f043 0301 	orr.w	r3, r3, #1
 8001678:	6013      	str	r3, [r2, #0]
 800167a:	68cb      	ldr	r3, [r1, #12]
 800167c:	3301      	adds	r3, #1
 800167e:	60cb      	str	r3, [r1, #12]
	//GPIOA->BRR = LL_GPIO_PIN_6;
}
 8001680:	4770      	bx	lr
 8001682:	4a02      	ldr	r2, [pc, #8]	@ (800168c <HRTIM1_Master_IRQHandler+0x38>)
 8001684:	e7f4      	b.n	8001670 <HRTIM1_Master_IRQHandler+0x1c>
 8001686:	bf00      	nop
 8001688:	08007e70 	.word	0x08007e70
 800168c:	40016808 	.word	0x40016808
 8001690:	2000004c 	.word	0x2000004c

08001694 <TIM6_DAC_IRQHandler>:

/*
 * TIM6 Interrupt service routine
 * period: 1ms
 */
void TIM6_DAC_IRQHandler(void){
 8001694:	b508      	push	{r3, lr}
  WRITE_REG(TIMx->SR, ~(TIM_SR_UIF));
 8001696:	4b16      	ldr	r3, [pc, #88]	@ (80016f0 <TIM6_DAC_IRQHandler+0x5c>)
 * getPosition:
 * Precte aktualni polohu z inkrementalniho cidla.
 * Nutno volat v periodicke funkci pred regulatorem rychlosti/polohy
 */
static inline void getPosition(getVelocityPosition_typedef *S){
	int16_t sPosition = (S->TIM_Position->CNT << (16 - ENCODER_RESOLUTION_BITS));
 8001698:	4a16      	ldr	r2, [pc, #88]	@ (80016f4 <TIM6_DAC_IRQHandler+0x60>)
	S->Position_rad = sPosition * (float) (M_PI / (1 << 15));
 800169a:	ed9f 7a17 	vldr	s14, [pc, #92]	@ 80016f8 <TIM6_DAC_IRQHandler+0x64>
 800169e:	f06f 0101 	mvn.w	r1, #1
 80016a2:	6119      	str	r1, [r3, #16]
	int16_t sPosition = (S->TIM_Position->CNT << (16 - ENCODER_RESOLUTION_BITS));
 80016a4:	6813      	ldr	r3, [r2, #0]
	x2cModel.inports.bInPosition1 = VelocityPosition.Position_rad;

	x2cModel.inports.bInVelocity1_rpm = VelocityPosition.Velocity_rpm;
	x2cModel.inports.bInVelocity1_radps  = VelocityPosition.Velocity_radps;

	switch (TableStruct->DSPState) {
 80016a6:	4915      	ldr	r1, [pc, #84]	@ (80016fc <TIM6_DAC_IRQHandler+0x68>)
 80016a8:	6a5b      	ldr	r3, [r3, #36]	@ 0x24
 80016aa:	6809      	ldr	r1, [r1, #0]
 80016ac:	015b      	lsls	r3, r3, #5
	S->Position_rad = sPosition * (float) (M_PI / (1 << 15));
 80016ae:	b21b      	sxth	r3, r3
 80016b0:	ee07 3a90 	vmov	s15, r3
 80016b4:	eef8 7ae7 	vcvt.f32.s32	s15, s15
	x2cModel.inports.bInPosition1 = VelocityPosition.Position_rad;
 80016b8:	4b11      	ldr	r3, [pc, #68]	@ (8001700 <TIM6_DAC_IRQHandler+0x6c>)
 80016ba:	ee67 7a87 	vmul.f32	s15, s15, s14
 80016be:	edc2 7a04 	vstr	s15, [r2, #16]
 80016c2:	f8d2 c010 	ldr.w	ip, [r2, #16]
	x2cModel.inports.bInVelocity1_rpm = VelocityPosition.Velocity_rpm;
 80016c6:	6890      	ldr	r0, [r2, #8]
	x2cModel.inports.bInVelocity1_radps  = VelocityPosition.Velocity_radps;
 80016c8:	68d2      	ldr	r2, [r2, #12]
	x2cModel.inports.bInPosition1 = VelocityPosition.Position_rad;
 80016ca:	f8c3 c3d4 	str.w	ip, [r3, #980]	@ 0x3d4
	x2cModel.inports.bInVelocity1_rpm = VelocityPosition.Velocity_rpm;
 80016ce:	f8c3 03e8 	str.w	r0, [r3, #1000]	@ 0x3e8
	x2cModel.inports.bInVelocity1_radps  = VelocityPosition.Velocity_radps;
 80016d2:	f8c3 23e4 	str.w	r2, [r3, #996]	@ 0x3e4
	switch (TableStruct->DSPState) {
 80016d6:	7b0b      	ldrb	r3, [r1, #12]
 80016d8:	3b04      	subs	r3, #4
 80016da:	2b01      	cmp	r3, #1
 80016dc:	d904      	bls.n	80016e8 <TIM6_DAC_IRQHandler+0x54>
	default:
		break;
	}

	// LL_TIM_EnableIT_CC1(TIM5);
	Cntr.Period_1ms++;
 80016de:	4a09      	ldr	r2, [pc, #36]	@ (8001704 <TIM6_DAC_IRQHandler+0x70>)
 80016e0:	6813      	ldr	r3, [r2, #0]
 80016e2:	3301      	adds	r3, #1
 80016e4:	6013      	str	r3, [r2, #0]
}
 80016e6:	bd08      	pop	{r3, pc}
		X2C_Update_20();
 80016e8:	f005 fdec 	bl	80072c4 <X2C_Update_20>
		break;
 80016ec:	e7f7      	b.n	80016de <TIM6_DAC_IRQHandler+0x4a>
 80016ee:	bf00      	nop
 80016f0:	40001000 	.word	0x40001000
 80016f4:	20000000 	.word	0x20000000
 80016f8:	38c90fdb 	.word	0x38c90fdb
 80016fc:	20000024 	.word	0x20000024
 8001700:	200082f0 	.word	0x200082f0
 8001704:	2000004c 	.word	0x2000004c

08001708 <DMA1_Channel4_IRQHandler>:
 * Pouziva se pro mereni frekvence inkrementu.
 * Kdyz chodi pulzy od inkrementalu, spousti se priblizne
 * s periodou 1ms
 */
void DMA1_Channel4_IRQHandler(void)
{
 8001708:	b510      	push	{r4, lr}
  WRITE_REG(DMAx->IFCR, DMA_IFCR_CTCIF4);
 800170a:	4b2b      	ldr	r3, [pc, #172]	@ (80017b8 <DMA1_Channel4_IRQHandler+0xb0>)
	int16_t sPosition = (int16_t) (S->ulPosition << (16 - ENCODER_RESOLUTION_BITS));
 800170c:	4c2b      	ldr	r4, [pc, #172]	@ (80017bc <DMA1_Channel4_IRQHandler+0xb4>)
 800170e:	f44f 5200 	mov.w	r2, #8192	@ 0x2000
 8001712:	ed2d 8b02 	vpush	{d8}
 8001716:	605a      	str	r2, [r3, #4]
 8001718:	69a3      	ldr	r3, [r4, #24]
	S->sPosDiff = sPosition - S->sPosition_old;
 800171a:	8be2      	ldrh	r2, [r4, #30]
	int16_t sPosition = (int16_t) (S->ulPosition << (16 - ENCODER_RESOLUTION_BITS));
 800171c:	015b      	lsls	r3, r3, #5
 800171e:	b21b      	sxth	r3, r3
	S->sPosDiff = sPosition - S->sPosition_old;
 8001720:	1a9a      	subs	r2, r3, r2
 8001722:	b212      	sxth	r2, r2
 8001724:	83a2      	strh	r2, [r4, #28]
	S->sPosition_old = sPosition;
 8001726:	83e3      	strh	r3, [r4, #30]
	if(S->sPosDiff > 0)
 8001728:	8ba3      	ldrh	r3, [r4, #28]
 800172a:	b21b      	sxth	r3, r3
 800172c:	2b00      	cmp	r3, #0
		S->sPosDiff -= (1 << (16 - ENCODER_RESOLUTION_BITS));
 800172e:	8ba3      	ldrh	r3, [r4, #28]
	if(S->sPosDiff > 0)
 8001730:	dd37      	ble.n	80017a2 <DMA1_Channel4_IRQHandler+0x9a>
		S->sPosDiff -= (1 << (16 - ENCODER_RESOLUTION_BITS));
 8001732:	3b20      	subs	r3, #32
 8001734:	b21b      	sxth	r3, r3
 8001736:	83a3      	strh	r3, [r4, #28]
	if(S->ulPeriod != 0){
 8001738:	6963      	ldr	r3, [r4, #20]
 800173a:	b373      	cbz	r3, 800179a <DMA1_Channel4_IRQHandler+0x92>
		Velo = (float)S->sPosDiff / (float)S->ulPeriod;
 800173c:	8ba3      	ldrh	r3, [r4, #28]
 800173e:	edd4 6a05 	vldr	s13, [r4, #20]
		VeloRad = Velo * TIM_BASE_FREQ/65536*2*M_PI;
 8001742:	ed9f 6a1f 	vldr	s12, [pc, #124]	@ 80017c0 <DMA1_Channel4_IRQHandler+0xb8>
		Velo = (float)S->sPosDiff / (float)S->ulPeriod;
 8001746:	b21b      	sxth	r3, r3
 8001748:	ee07 3a90 	vmov	s15, r3
 800174c:	eef8 6a66 	vcvt.f32.u32	s13, s13
 8001750:	eeb8 7ae7 	vcvt.f32.s32	s14, s15
 8001754:	eec7 7a26 	vdiv.f32	s15, s14, s13
		VeloRad = Velo * TIM_BASE_FREQ/65536*2*M_PI;
 8001758:	ed9f 7a1a 	vldr	s14, [pc, #104]	@ 80017c4 <DMA1_Channel4_IRQHandler+0xbc>
 800175c:	ee67 7a86 	vmul.f32	s15, s15, s12
 8001760:	ee27 8a87 	vmul.f32	s16, s15, s14
 8001764:	ee78 7a08 	vadd.f32	s15, s16, s16
 8001768:	ee17 0a90 	vmov	r0, s15
 800176c:	f7ff fa10 	bl	8000b90 <__aeabi_f2d>
 8001770:	a30f      	add	r3, pc, #60	@ (adr r3, 80017b0 <DMA1_Channel4_IRQHandler+0xa8>)
 8001772:	e9d3 2300 	ldrd	r2, r3, [r3]
 8001776:	f7fe ff7d 	bl	8000674 <__aeabi_dmul>
 800177a:	f7ff fae9 	bl	8000d50 <__aeabi_d2f>
		Velo = Velo * TIM_BASE_FREQ/65536*60;
 800177e:	eddf 7a12 	vldr	s15, [pc, #72]	@ 80017c8 <DMA1_Channel4_IRQHandler+0xc0>
 8001782:	ee68 7a27 	vmul.f32	s15, s16, s15
	LL_DMA_ClearFlag_TC4(DMA1);
	getVelocity(&VelocityPosition);
	Cntr.TestSpeedMeas_1ms++;
 8001786:	4a11      	ldr	r2, [pc, #68]	@ (80017cc <DMA1_Channel4_IRQHandler+0xc4>)
	S->Velocity_rpm = Velo;
 8001788:	edc4 7a02 	vstr	s15, [r4, #8]
}
 800178c:	ecbd 8b02 	vpop	{d8}
	S->Velocity_radps = VeloRad;
 8001790:	60e0      	str	r0, [r4, #12]
	Cntr.TestSpeedMeas_1ms++;
 8001792:	6893      	ldr	r3, [r2, #8]
 8001794:	3301      	adds	r3, #1
 8001796:	6093      	str	r3, [r2, #8]
}
 8001798:	bd10      	pop	{r4, pc}
	float VeloRad = 0.0f;
 800179a:	2000      	movs	r0, #0
	float Velo = 0.0f;
 800179c:	ee07 0a90 	vmov	s15, r0
 80017a0:	e7f1      	b.n	8001786 <DMA1_Channel4_IRQHandler+0x7e>
	else if(S->sPosDiff < 0)
 80017a2:	041b      	lsls	r3, r3, #16
 80017a4:	d5c8      	bpl.n	8001738 <DMA1_Channel4_IRQHandler+0x30>
		S->sPosDiff += (1 << (16 - ENCODER_RESOLUTION_BITS));
 80017a6:	8ba3      	ldrh	r3, [r4, #28]
 80017a8:	3320      	adds	r3, #32
 80017aa:	b21b      	sxth	r3, r3
 80017ac:	83a3      	strh	r3, [r4, #28]
 80017ae:	e7c3      	b.n	8001738 <DMA1_Channel4_IRQHandler+0x30>
 80017b0:	54442d18 	.word	0x54442d18
 80017b4:	400921fb 	.word	0x400921fb
 80017b8:	40020000 	.word	0x40020000
 80017bc:	20000000 	.word	0x20000000
 80017c0:	4d221fe8 	.word	0x4d221fe8
 80017c4:	37800000 	.word	0x37800000
 80017c8:	42700000 	.word	0x42700000
 80017cc:	2000004c 	.word	0x2000004c

080017d0 <sendSerial>:
 */
static void sendSerial(tSerial* serial, uint8 data)
{
  //LL_LPUART_TransmitData8(LPUART1, data);
	//pX2CHUART.Instance->TDR = data;
	X2CUART->TDR = data;
 80017d0:	4b01      	ldr	r3, [pc, #4]	@ (80017d8 <sendSerial+0x8>)
 80017d2:	6299      	str	r1, [r3, #40]	@ 0x28
}
 80017d4:	4770      	bx	lr
 80017d6:	bf00      	nop
 80017d8:	40008000 	.word	0x40008000

080017dc <receiveSerial>:
static uint8 receiveSerial(tSerial* serial)
{
	//uint8 data;
	// return LL_LPUART_ReceiveData8(X2CUART);
	//return (uint8_t)(pX2CHUART.Instance->RDR & 0xFFU);
	return (uint8_t)(X2CUART->RDR & 0xFFU);
 80017dc:	4b01      	ldr	r3, [pc, #4]	@ (80017e4 <receiveSerial+0x8>)
 80017de:	6a58      	ldr	r0, [r3, #36]	@ 0x24
}
 80017e0:	b2c0      	uxtb	r0, r0
 80017e2:	4770      	bx	lr
 80017e4:	40008000 	.word	0x40008000

080017e8 <isReceiveDataAvailable>:
 * @return 1 when data is available, 0 otherwise.
 */
static uint8 isReceiveDataAvailable(tSerial* serial)
{
	//return ((pX2CHUART.Instance->ISR & USART_ISR_RXNE_RXFNE) ? 1UL : 0UL);
	return ((X2CUART->ISR & USART_ISR_RXNE_RXFNE) ? 1UL : 0UL);
 80017e8:	4b02      	ldr	r3, [pc, #8]	@ (80017f4 <isReceiveDataAvailable+0xc>)
 80017ea:	69d8      	ldr	r0, [r3, #28]
}
 80017ec:	f3c0 1040 	ubfx	r0, r0, #5, #1
 80017f0:	4770      	bx	lr
 80017f2:	bf00      	nop
 80017f4:	40008000 	.word	0x40008000

080017f8 <isSendReady>:
 * @return 1 when data can be send, 0 otherwise.
 */
static uint8 isSendReady(tSerial* serial)
{
	//return ((pX2CHUART.Instance->ISR & USART_ISR_TXE_TXFNF) ? 1UL : 0UL);
	return ((X2CUART->ISR & USART_ISR_TXE_TXFNF) ? 1UL : 0UL);
 80017f8:	4b02      	ldr	r3, [pc, #8]	@ (8001804 <isSendReady+0xc>)
 80017fa:	69d8      	ldr	r0, [r3, #28]
}
 80017fc:	f3c0 10c0 	ubfx	r0, r0, #7, #1
 8001800:	4770      	bx	lr
 8001802:	bf00      	nop
 8001804:	40008000 	.word	0x40008000

08001808 <initSerial>:
  * @param  USARTx USART Instance
  * @retval None
  */
__STATIC_INLINE void LL_USART_Enable(USART_TypeDef *USARTx)
{
  SET_BIT(USARTx->CR1, USART_CR1_UE);
 8001808:	4a08      	ldr	r2, [pc, #32]	@ (800182c <initSerial+0x24>)
	serial->receive = (uint8 (*)(tInterface*))receiveSerial;
 800180a:	4909      	ldr	r1, [pc, #36]	@ (8001830 <initSerial+0x28>)
 800180c:	6813      	ldr	r3, [r2, #0]
 800180e:	f043 0301 	orr.w	r3, r3, #1
{
 8001812:	b410      	push	{r4}
 8001814:	6013      	str	r3, [r2, #0]
	serial->isReceiveDataAvailable = (uint8 (*)(tInterface*))isReceiveDataAvailable;
 8001816:	4a07      	ldr	r2, [pc, #28]	@ (8001834 <initSerial+0x2c>)
	serial->send = (void (*)(tInterface*, uint8))sendSerial;
 8001818:	4c07      	ldr	r4, [pc, #28]	@ (8001838 <initSerial+0x30>)
	serial->isSendReady = (uint8 (*)(tInterface*))isSendReady;
 800181a:	4b08      	ldr	r3, [pc, #32]	@ (800183c <initSerial+0x34>)
	serial->send = (void (*)(tInterface*, uint8))sendSerial;
 800181c:	6004      	str	r4, [r0, #0]
	serial->isReceiveDataAvailable = (uint8 (*)(tInterface*))isReceiveDataAvailable;
 800181e:	e9c0 1201 	strd	r1, r2, [r0, #4]
}
 8001822:	f85d 4b04 	ldr.w	r4, [sp], #4
	serial->isSendReady = (uint8 (*)(tInterface*))isSendReady;
 8001826:	60c3      	str	r3, [r0, #12]
}
 8001828:	4770      	bx	lr
 800182a:	bf00      	nop
 800182c:	40008000 	.word	0x40008000
 8001830:	080017dd 	.word	0x080017dd
 8001834:	080017e9 	.word	0x080017e9
 8001838:	080017d1 	.word	0x080017d1
 800183c:	080017f9 	.word	0x080017f9

08001840 <LL_TIM_IC_SetActiveInput>:
  uint8_t iChannel = TIM_GET_CHANNEL_INDEX(Channel);
 8001840:	2910      	cmp	r1, #16
{
 8001842:	b510      	push	{r4, lr}
 8001844:	d01c      	beq.n	8001880 <LL_TIM_IC_SetActiveInput+0x40>
 8001846:	d905      	bls.n	8001854 <LL_TIM_IC_SetActiveInput+0x14>
  uint8_t iChannel = TIM_GET_CHANNEL_INDEX(Channel);
 8001848:	f5b1 7f80 	cmp.w	r1, #256	@ 0x100
 800184c:	bf0c      	ite	eq
 800184e:	2104      	moveq	r1, #4
 8001850:	2109      	movne	r1, #9
 8001852:	e000      	b.n	8001856 <LL_TIM_IC_SetActiveInput+0x16>
 8001854:	2100      	movs	r1, #0
  __IO uint32_t *pReg = (__IO uint32_t *)((uint32_t)((uint32_t)(&TIMx->CCMR1) + OFFSET_TAB_CCMRx[iChannel]));
 8001856:	4b0b      	ldr	r3, [pc, #44]	@ (8001884 <LL_TIM_IC_SetActiveInput+0x44>)
  MODIFY_REG(*pReg, ((TIM_CCMR1_CC1S) << SHIFT_TAB_ICxx[iChannel]), (ICActiveInput >> 16U) << SHIFT_TAB_ICxx[iChannel]);
 8001858:	4c0b      	ldr	r4, [pc, #44]	@ (8001888 <LL_TIM_IC_SetActiveInput+0x48>)
  __IO uint32_t *pReg = (__IO uint32_t *)((uint32_t)((uint32_t)(&TIMx->CCMR1) + OFFSET_TAB_CCMRx[iChannel]));
 800185a:	f813 c001 	ldrb.w	ip, [r3, r1]
  MODIFY_REG(*pReg, ((TIM_CCMR1_CC1S) << SHIFT_TAB_ICxx[iChannel]), (ICActiveInput >> 16U) << SHIFT_TAB_ICxx[iChannel]);
 800185e:	f814 e001 	ldrb.w	lr, [r4, r1]
  __IO uint32_t *pReg = (__IO uint32_t *)((uint32_t)((uint32_t)(&TIMx->CCMR1) + OFFSET_TAB_CCMRx[iChannel]));
 8001862:	3018      	adds	r0, #24
  MODIFY_REG(*pReg, ((TIM_CCMR1_CC1S) << SHIFT_TAB_ICxx[iChannel]), (ICActiveInput >> 16U) << SHIFT_TAB_ICxx[iChannel]);
 8001864:	2103      	movs	r1, #3
 8001866:	f850 300c 	ldr.w	r3, [r0, ip]
 800186a:	0c12      	lsrs	r2, r2, #16
 800186c:	fa01 f10e 	lsl.w	r1, r1, lr
 8001870:	fa02 f20e 	lsl.w	r2, r2, lr
 8001874:	ea23 0301 	bic.w	r3, r3, r1
 8001878:	4313      	orrs	r3, r2
 800187a:	f840 300c 	str.w	r3, [r0, ip]
}
 800187e:	bd10      	pop	{r4, pc}
  uint8_t iChannel = TIM_GET_CHANNEL_INDEX(Channel);
 8001880:	2102      	movs	r1, #2
 8001882:	e7e8      	b.n	8001856 <LL_TIM_IC_SetActiveInput+0x16>
 8001884:	08007e8c 	.word	0x08007e8c
 8001888:	08007e80 	.word	0x08007e80

0800188c <LL_TIM_IC_SetFilter.constprop.0>:
  uint8_t iChannel = TIM_GET_CHANNEL_INDEX(Channel);
 800188c:	2910      	cmp	r1, #16
 800188e:	d015      	beq.n	80018bc <LL_TIM_IC_SetFilter.constprop.0+0x30>
 8001890:	d905      	bls.n	800189e <LL_TIM_IC_SetFilter.constprop.0+0x12>
 8001892:	f5b1 7f80 	cmp.w	r1, #256	@ 0x100
 8001896:	bf0c      	ite	eq
 8001898:	2304      	moveq	r3, #4
 800189a:	2309      	movne	r3, #9
 800189c:	e000      	b.n	80018a0 <LL_TIM_IC_SetFilter.constprop.0+0x14>
 800189e:	2300      	movs	r3, #0
  __IO uint32_t *pReg = (__IO uint32_t *)((uint32_t)((uint32_t)(&TIMx->CCMR1) + OFFSET_TAB_CCMRx[iChannel]));
 80018a0:	4907      	ldr	r1, [pc, #28]	@ (80018c0 <LL_TIM_IC_SetFilter.constprop.0+0x34>)
  MODIFY_REG(*pReg, ((TIM_CCMR1_IC1F) << SHIFT_TAB_ICxx[iChannel]), (ICFilter >> 16U) << SHIFT_TAB_ICxx[iChannel]);
 80018a2:	4a08      	ldr	r2, [pc, #32]	@ (80018c4 <LL_TIM_IC_SetFilter.constprop.0+0x38>)
  __IO uint32_t *pReg = (__IO uint32_t *)((uint32_t)((uint32_t)(&TIMx->CCMR1) + OFFSET_TAB_CCMRx[iChannel]));
 80018a4:	5cc9      	ldrb	r1, [r1, r3]
  MODIFY_REG(*pReg, ((TIM_CCMR1_IC1F) << SHIFT_TAB_ICxx[iChannel]), (ICFilter >> 16U) << SHIFT_TAB_ICxx[iChannel]);
 80018a6:	f812 c003 	ldrb.w	ip, [r2, r3]
  __IO uint32_t *pReg = (__IO uint32_t *)((uint32_t)((uint32_t)(&TIMx->CCMR1) + OFFSET_TAB_CCMRx[iChannel]));
 80018aa:	3018      	adds	r0, #24
  MODIFY_REG(*pReg, ((TIM_CCMR1_IC1F) << SHIFT_TAB_ICxx[iChannel]), (ICFilter >> 16U) << SHIFT_TAB_ICxx[iChannel]);
 80018ac:	22f0      	movs	r2, #240	@ 0xf0
 80018ae:	5843      	ldr	r3, [r0, r1]
 80018b0:	fa02 f20c 	lsl.w	r2, r2, ip
 80018b4:	ea23 0302 	bic.w	r3, r3, r2
 80018b8:	5043      	str	r3, [r0, r1]
}
 80018ba:	4770      	bx	lr
  uint8_t iChannel = TIM_GET_CHANNEL_INDEX(Channel);
 80018bc:	2302      	movs	r3, #2
 80018be:	e7ef      	b.n	80018a0 <LL_TIM_IC_SetFilter.constprop.0+0x14>
 80018c0:	08007e8c 	.word	0x08007e8c
 80018c4:	08007e80 	.word	0x08007e80

080018c8 <LL_TIM_IC_SetPrescaler.constprop.0>:
  uint8_t iChannel = TIM_GET_CHANNEL_INDEX(Channel);
 80018c8:	2910      	cmp	r1, #16
 80018ca:	d015      	beq.n	80018f8 <LL_TIM_IC_SetPrescaler.constprop.0+0x30>
 80018cc:	d905      	bls.n	80018da <LL_TIM_IC_SetPrescaler.constprop.0+0x12>
 80018ce:	f5b1 7f80 	cmp.w	r1, #256	@ 0x100
 80018d2:	bf0c      	ite	eq
 80018d4:	2304      	moveq	r3, #4
 80018d6:	2309      	movne	r3, #9
 80018d8:	e000      	b.n	80018dc <LL_TIM_IC_SetPrescaler.constprop.0+0x14>
 80018da:	2300      	movs	r3, #0
  __IO uint32_t *pReg = (__IO uint32_t *)((uint32_t)((uint32_t)(&TIMx->CCMR1) + OFFSET_TAB_CCMRx[iChannel]));
 80018dc:	4907      	ldr	r1, [pc, #28]	@ (80018fc <LL_TIM_IC_SetPrescaler.constprop.0+0x34>)
  MODIFY_REG(*pReg, ((TIM_CCMR1_IC1PSC) << SHIFT_TAB_ICxx[iChannel]), (ICPrescaler >> 16U) << SHIFT_TAB_ICxx[iChannel]);
 80018de:	4a08      	ldr	r2, [pc, #32]	@ (8001900 <LL_TIM_IC_SetPrescaler.constprop.0+0x38>)
  __IO uint32_t *pReg = (__IO uint32_t *)((uint32_t)((uint32_t)(&TIMx->CCMR1) + OFFSET_TAB_CCMRx[iChannel]));
 80018e0:	5cc9      	ldrb	r1, [r1, r3]
  MODIFY_REG(*pReg, ((TIM_CCMR1_IC1PSC) << SHIFT_TAB_ICxx[iChannel]), (ICPrescaler >> 16U) << SHIFT_TAB_ICxx[iChannel]);
 80018e2:	f812 c003 	ldrb.w	ip, [r2, r3]
  __IO uint32_t *pReg = (__IO uint32_t *)((uint32_t)((uint32_t)(&TIMx->CCMR1) + OFFSET_TAB_CCMRx[iChannel]));
 80018e6:	3018      	adds	r0, #24
  MODIFY_REG(*pReg, ((TIM_CCMR1_IC1PSC) << SHIFT_TAB_ICxx[iChannel]), (ICPrescaler >> 16U) << SHIFT_TAB_ICxx[iChannel]);
 80018e8:	220c      	movs	r2, #12
 80018ea:	5843      	ldr	r3, [r0, r1]
 80018ec:	fa02 f20c 	lsl.w	r2, r2, ip
 80018f0:	ea23 0302 	bic.w	r3, r3, r2
 80018f4:	5043      	str	r3, [r0, r1]
}
 80018f6:	4770      	bx	lr
  uint8_t iChannel = TIM_GET_CHANNEL_INDEX(Channel);
 80018f8:	2302      	movs	r3, #2
 80018fa:	e7ef      	b.n	80018dc <LL_TIM_IC_SetPrescaler.constprop.0+0x14>
 80018fc:	08007e8c 	.word	0x08007e8c
 8001900:	08007e80 	.word	0x08007e80

08001904 <LL_HRTIM_FLT_SetResetMode.constprop.0>:
   __ASM volatile ("rbit %0, %1" : "=r" (result) : "r" (value) );
 8001904:	fa90 f0a0 	rbit	r0, r0
                                                     REG_OFFSET_TAB_FLTINR[iFault]));
 8001908:	4a08      	ldr	r2, [pc, #32]	@ (800192c <LL_HRTIM_FLT_SetResetMode.constprop.0+0x28>)
  MODIFY_REG(*pReg, (HRTIM_FLTINR3_FLT1RSTM << REG_SHIFT_TAB_FLTxE[iFault]), Mode << REG_SHIFT_TAB_FLTxE[iFault]);
 800190a:	4b09      	ldr	r3, [pc, #36]	@ (8001930 <LL_HRTIM_FLT_SetResetMode.constprop.0+0x2c>)
  __IO uint32_t *pReg = (__IO uint32_t *)((uint32_t)((uint32_t)(&HRTIMx->sCommonRegs.FLTINR3) +
 800190c:	4909      	ldr	r1, [pc, #36]	@ (8001934 <LL_HRTIM_FLT_SetResetMode.constprop.0+0x30>)
  return __builtin_clz(value);
 800190e:	fab0 f080 	clz	r0, r0
                                                     REG_OFFSET_TAB_FLTINR[iFault]));
 8001912:	f812 c000 	ldrb.w	ip, [r2, r0]
  MODIFY_REG(*pReg, (HRTIM_FLTINR3_FLT1RSTM << REG_SHIFT_TAB_FLTxE[iFault]), Mode << REG_SHIFT_TAB_FLTxE[iFault]);
 8001916:	5c18      	ldrb	r0, [r3, r0]
 8001918:	f85c 3001 	ldr.w	r3, [ip, r1]
 800191c:	2280      	movs	r2, #128	@ 0x80
 800191e:	4082      	lsls	r2, r0
 8001920:	ea23 0302 	bic.w	r3, r3, r2
 8001924:	f84c 3001 	str.w	r3, [ip, r1]
}
 8001928:	4770      	bx	lr
 800192a:	bf00      	nop
 800192c:	08007f24 	.word	0x08007f24
 8001930:	08007ecc 	.word	0x08007ecc
 8001934:	40016c08 	.word	0x40016c08

08001938 <LL_HRTIM_FLT_SetCounterThreshold.constprop.0>:
   __ASM volatile ("rbit %0, %1" : "=r" (result) : "r" (value) );
 8001938:	fa90 f0a0 	rbit	r0, r0
                                                     REG_OFFSET_TAB_FLTINR[iFault]));
 800193c:	4a08      	ldr	r2, [pc, #32]	@ (8001960 <LL_HRTIM_FLT_SetCounterThreshold.constprop.0+0x28>)
  MODIFY_REG(*pReg, (HRTIM_FLTINR3_FLT1CNT << REG_SHIFT_TAB_FLTxE[iFault]), (Threshold << REG_SHIFT_TAB_FLTxCNT[iFault]));
 800193e:	4b09      	ldr	r3, [pc, #36]	@ (8001964 <LL_HRTIM_FLT_SetCounterThreshold.constprop.0+0x2c>)
  __IO uint32_t *pReg = (__IO uint32_t *)((uint32_t)((uint32_t)(&HRTIMx->sCommonRegs.FLTINR3) +
 8001940:	4909      	ldr	r1, [pc, #36]	@ (8001968 <LL_HRTIM_FLT_SetCounterThreshold.constprop.0+0x30>)
  return __builtin_clz(value);
 8001942:	fab0 f080 	clz	r0, r0
                                                     REG_OFFSET_TAB_FLTINR[iFault]));
 8001946:	f812 c000 	ldrb.w	ip, [r2, r0]
  MODIFY_REG(*pReg, (HRTIM_FLTINR3_FLT1CNT << REG_SHIFT_TAB_FLTxE[iFault]), (Threshold << REG_SHIFT_TAB_FLTxCNT[iFault]));
 800194a:	5c18      	ldrb	r0, [r3, r0]
 800194c:	f85c 3001 	ldr.w	r3, [ip, r1]
 8001950:	223c      	movs	r2, #60	@ 0x3c
 8001952:	4082      	lsls	r2, r0
 8001954:	ea23 0302 	bic.w	r3, r3, r2
 8001958:	f84c 3001 	str.w	r3, [ip, r1]
}
 800195c:	4770      	bx	lr
 800195e:	bf00      	nop
 8001960:	08007f24 	.word	0x08007f24
 8001964:	08007ecc 	.word	0x08007ecc
 8001968:	40016c08 	.word	0x40016c08

0800196c <LL_HRTIM_FLT_EnableBlanking.constprop.0>:
   __ASM volatile ("rbit %0, %1" : "=r" (result) : "r" (value) );
 800196c:	fa90 f0a0 	rbit	r0, r0
                                                     REG_OFFSET_TAB_FLTINR[iFault]));
 8001970:	4a07      	ldr	r2, [pc, #28]	@ (8001990 <LL_HRTIM_FLT_EnableBlanking.constprop.0+0x24>)
  SET_BIT(*pReg, (uint32_t)(HRTIM_FLTINR3_FLT1BLKE) << REG_SHIFT_TAB_FLTxE[iFault]);
 8001972:	4b08      	ldr	r3, [pc, #32]	@ (8001994 <LL_HRTIM_FLT_EnableBlanking.constprop.0+0x28>)
  return __builtin_clz(value);
 8001974:	fab0 f080 	clz	r0, r0
                                                     REG_OFFSET_TAB_FLTINR[iFault]));
 8001978:	5c11      	ldrb	r1, [r2, r0]
  __IO uint32_t *pReg = (__IO uint32_t *)((uint32_t)((uint32_t)(&HRTIMx->sCommonRegs.FLTINR3) +
 800197a:	4a07      	ldr	r2, [pc, #28]	@ (8001998 <LL_HRTIM_FLT_EnableBlanking.constprop.0+0x2c>)
  SET_BIT(*pReg, (uint32_t)(HRTIM_FLTINR3_FLT1BLKE) << REG_SHIFT_TAB_FLTxE[iFault]);
 800197c:	f813 c000 	ldrb.w	ip, [r3, r0]
 8001980:	5888      	ldr	r0, [r1, r2]
 8001982:	2301      	movs	r3, #1
 8001984:	fa03 f30c 	lsl.w	r3, r3, ip
 8001988:	4303      	orrs	r3, r0
 800198a:	508b      	str	r3, [r1, r2]
}
 800198c:	4770      	bx	lr
 800198e:	bf00      	nop
 8001990:	08007f24 	.word	0x08007f24
 8001994:	08007ecc 	.word	0x08007ecc
 8001998:	40016c08 	.word	0x40016c08

0800199c <LL_HRTIM_FLT_SetFilter.constprop.0>:
__STATIC_INLINE void LL_HRTIM_FLT_SetFilter(HRTIM_TypeDef *HRTIMx, uint32_t Fault, uint32_t Filter)
 800199c:	b570      	push	{r4, r5, r6, lr}
   __ASM volatile ("rbit %0, %1" : "=r" (result) : "r" (value) );
 800199e:	fa90 f0a0 	rbit	r0, r0
  uint64_t flt = (uint64_t)((uint64_t)Filter & (uint64_t)HRTIM_FLTINR1_FLT1F) << REG_SHIFT_TAB_FLTxF[iFault] ;  /* this for filter bits */
 80019a2:	4b16      	ldr	r3, [pc, #88]	@ (80019fc <LL_HRTIM_FLT_SetFilter.constprop.0+0x60>)
  MODIFY_REG(*pReg1, (uint32_t)(mask), (uint32_t)(flt));
 80019a4:	4d16      	ldr	r5, [pc, #88]	@ (8001a00 <LL_HRTIM_FLT_SetFilter.constprop.0+0x64>)
  return __builtin_clz(value);
 80019a6:	fab0 f080 	clz	r0, r0
 80019aa:	f8d5 4bd0 	ldr.w	r4, [r5, #3024]	@ 0xbd0
  uint64_t flt = (uint64_t)((uint64_t)Filter & (uint64_t)HRTIM_FLTINR1_FLT1F) << REG_SHIFT_TAB_FLTxF[iFault] ;  /* this for filter bits */
 80019ae:	5c1b      	ldrb	r3, [r3, r0]
  uint64_t mask = (uint64_t)(HRTIM_FLTINR1_FLT1F) << REG_SHIFT_TAB_FLTxF[iFault] ;  /* this for Polarity bit */
 80019b0:	f04f 0c78 	mov.w	ip, #120	@ 0x78
 80019b4:	fa0c f603 	lsl.w	r6, ip, r3
  uint64_t flt = (uint64_t)((uint64_t)Filter & (uint64_t)HRTIM_FLTINR1_FLT1F) << REG_SHIFT_TAB_FLTxF[iFault] ;  /* this for filter bits */
 80019b8:	fa01 fe03 	lsl.w	lr, r1, r3
  MODIFY_REG(*pReg1, (uint32_t)(mask), (uint32_t)(flt));
 80019bc:	ea24 0406 	bic.w	r4, r4, r6
  uint64_t mask = (uint64_t)(HRTIM_FLTINR1_FLT1F) << REG_SHIFT_TAB_FLTxF[iFault] ;  /* this for Polarity bit */
 80019c0:	f1a3 0020 	sub.w	r0, r3, #32
  MODIFY_REG(*pReg1, (uint32_t)(mask), (uint32_t)(flt));
 80019c4:	ea44 040e 	orr.w	r4, r4, lr
 80019c8:	f8c5 4bd0 	str.w	r4, [r5, #3024]	@ 0xbd0
  uint64_t flt = (uint64_t)((uint64_t)Filter & (uint64_t)HRTIM_FLTINR1_FLT1F) << REG_SHIFT_TAB_FLTxF[iFault] ;  /* this for filter bits */
 80019cc:	4602      	mov	r2, r0
  uint64_t mask = (uint64_t)(HRTIM_FLTINR1_FLT1F) << REG_SHIFT_TAB_FLTxF[iFault] ;  /* this for Polarity bit */
 80019ce:	f1c3 0420 	rsb	r4, r3, #32
  uint64_t flt = (uint64_t)((uint64_t)Filter & (uint64_t)HRTIM_FLTINR1_FLT1F) << REG_SHIFT_TAB_FLTxF[iFault] ;  /* this for filter bits */
 80019d2:	f1c3 0320 	rsb	r3, r3, #32
 80019d6:	fa21 f303 	lsr.w	r3, r1, r3
 80019da:	fa01 f202 	lsl.w	r2, r1, r2
 80019de:	431a      	orrs	r2, r3
  uint64_t mask = (uint64_t)(HRTIM_FLTINR1_FLT1F) << REG_SHIFT_TAB_FLTxF[iFault] ;  /* this for Polarity bit */
 80019e0:	fa0c f000 	lsl.w	r0, ip, r0
  MODIFY_REG(*pReg2, (uint32_t)(mask >> 32U), (uint32_t)(flt  >> 32U));
 80019e4:	f8d5 3bd4 	ldr.w	r3, [r5, #3028]	@ 0xbd4
  uint64_t mask = (uint64_t)(HRTIM_FLTINR1_FLT1F) << REG_SHIFT_TAB_FLTxF[iFault] ;  /* this for Polarity bit */
 80019e8:	fa2c f404 	lsr.w	r4, ip, r4
 80019ec:	4320      	orrs	r0, r4
  MODIFY_REG(*pReg2, (uint32_t)(mask >> 32U), (uint32_t)(flt  >> 32U));
 80019ee:	ea23 0300 	bic.w	r3, r3, r0
 80019f2:	4313      	orrs	r3, r2
 80019f4:	f8c5 3bd4 	str.w	r3, [r5, #3028]	@ 0xbd4
}
 80019f8:	bd70      	pop	{r4, r5, r6, pc}
 80019fa:	bf00      	nop
 80019fc:	08007ec4 	.word	0x08007ec4
 8001a00:	40016000 	.word	0x40016000

08001a04 <LL_HRTIM_FLT_SetPolarity.constprop.0>:
__STATIC_INLINE void LL_HRTIM_FLT_SetPolarity(HRTIM_TypeDef *HRTIMx, uint32_t Fault, uint32_t Polarity)
 8001a04:	b410      	push	{r4}
   __ASM volatile ("rbit %0, %1" : "=r" (result) : "r" (value) );
 8001a06:	fa90 f0a0 	rbit	r0, r0
  uint64_t cfg = (uint64_t)((uint64_t)Polarity & (uint64_t)(HRTIM_FLTINR1_FLT1P)) << REG_SHIFT_TAB_FLTxF[iFault] ;  /* this for Polarity bit */
 8001a0a:	4b0f      	ldr	r3, [pc, #60]	@ (8001a48 <LL_HRTIM_FLT_SetPolarity.constprop.0+0x44>)
  MODIFY_REG(*pReg1, (uint32_t)(mask), (uint32_t)(cfg));
 8001a0c:	490f      	ldr	r1, [pc, #60]	@ (8001a4c <LL_HRTIM_FLT_SetPolarity.constprop.0+0x48>)
  return __builtin_clz(value);
 8001a0e:	fab0 f080 	clz	r0, r0
 8001a12:	f8d1 4bd0 	ldr.w	r4, [r1, #3024]	@ 0xbd0
  uint64_t cfg = (uint64_t)((uint64_t)Polarity & (uint64_t)(HRTIM_FLTINR1_FLT1P)) << REG_SHIFT_TAB_FLTxF[iFault] ;  /* this for Polarity bit */
 8001a16:	5c1b      	ldrb	r3, [r3, r0]
 8001a18:	2002      	movs	r0, #2
 8001a1a:	fa00 fc03 	lsl.w	ip, r0, r3
  MODIFY_REG(*pReg1, (uint32_t)(mask), (uint32_t)(cfg));
 8001a1e:	ea44 040c 	orr.w	r4, r4, ip
 8001a22:	f8c1 4bd0 	str.w	r4, [r1, #3024]	@ 0xbd0
  uint64_t cfg = (uint64_t)((uint64_t)Polarity & (uint64_t)(HRTIM_FLTINR1_FLT1P)) << REG_SHIFT_TAB_FLTxF[iFault] ;  /* this for Polarity bit */
 8001a26:	f1a3 0220 	sub.w	r2, r3, #32
 8001a2a:	f1c3 0320 	rsb	r3, r3, #32
 8001a2e:	fa00 f202 	lsl.w	r2, r0, r2
 8001a32:	fa20 f303 	lsr.w	r3, r0, r3
  MODIFY_REG(*pReg2, (uint32_t)(mask >> 32U), (uint32_t)(cfg  >> 32U));
 8001a36:	f8d1 0bd4 	ldr.w	r0, [r1, #3028]	@ 0xbd4
}
 8001a3a:	f85d 4b04 	ldr.w	r4, [sp], #4
  uint64_t cfg = (uint64_t)((uint64_t)Polarity & (uint64_t)(HRTIM_FLTINR1_FLT1P)) << REG_SHIFT_TAB_FLTxF[iFault] ;  /* this for Polarity bit */
 8001a3e:	431a      	orrs	r2, r3
  MODIFY_REG(*pReg2, (uint32_t)(mask >> 32U), (uint32_t)(cfg  >> 32U));
 8001a40:	4302      	orrs	r2, r0
 8001a42:	f8c1 2bd4 	str.w	r2, [r1, #3028]	@ 0xbd4
}
 8001a46:	4770      	bx	lr
 8001a48:	08007ec4 	.word	0x08007ec4
 8001a4c:	40016000 	.word	0x40016000

08001a50 <LL_HRTIM_FLT_SetSrc.constprop.0>:
__STATIC_INLINE void LL_HRTIM_FLT_SetSrc(HRTIM_TypeDef *HRTIMx, uint32_t Fault, uint32_t Src)
 8001a50:	b410      	push	{r4}
   __ASM volatile ("rbit %0, %1" : "=r" (result) : "r" (value) );
 8001a52:	fa90 f0a0 	rbit	r0, r0
                  (((uint64_t)((uint64_t)Src & (uint64_t)HRTIM_FLT_SRC_1_MASK)    << REG_SHIFT_TAB_FLTx[iFault]) << 32U); /* this for SouRCe 1 bit */
 8001a56:	4a13      	ldr	r2, [pc, #76]	@ (8001aa4 <LL_HRTIM_FLT_SetSrc.constprop.0+0x54>)
  uint64_t  cfg = ((uint64_t)((uint64_t)Src & (uint64_t)HRTIM_FLTINR1_FLT1SRC_0) << REG_SHIFT_TAB_FLTxF[iFault]) |        /* this for SouRCe 0 bit */
 8001a58:	4b13      	ldr	r3, [pc, #76]	@ (8001aa8 <LL_HRTIM_FLT_SetSrc.constprop.0+0x58>)
  return __builtin_clz(value);
 8001a5a:	fab0 f080 	clz	r0, r0
  uint64_t mask = ((uint64_t)(HRTIM_FLTINR1_FLT1SRC_0) << REG_SHIFT_TAB_FLTxF[iFault]) |        /* this for SouRCe bit 0 */
 8001a5e:	2404      	movs	r4, #4
  uint64_t  cfg = ((uint64_t)((uint64_t)Src & (uint64_t)HRTIM_FLTINR1_FLT1SRC_0) << REG_SHIFT_TAB_FLTxF[iFault]) |        /* this for SouRCe 0 bit */
 8001a60:	5c1b      	ldrb	r3, [r3, r0]
                  (((uint64_t)((uint64_t)Src & (uint64_t)HRTIM_FLT_SRC_1_MASK)    << REG_SHIFT_TAB_FLTx[iFault]) << 32U); /* this for SouRCe 1 bit */
 8001a62:	5c10      	ldrb	r0, [r2, r0]
                  (((uint64_t)(HRTIM_FLTINR2_FLT1SRC_1) << REG_SHIFT_TAB_FLTx[iFault]) << 32U); /* this for SouRCe bit 1 */
 8001a64:	f44f 3280 	mov.w	r2, #65536	@ 0x10000
 8001a68:	4082      	lsls	r2, r0
  MODIFY_REG(*pReg1, (uint32_t)(mask), (uint32_t)(cfg));
 8001a6a:	4810      	ldr	r0, [pc, #64]	@ (8001aac <LL_HRTIM_FLT_SetSrc.constprop.0+0x5c>)
  uint64_t mask = ((uint64_t)(HRTIM_FLTINR1_FLT1SRC_0) << REG_SHIFT_TAB_FLTxF[iFault]) |        /* this for SouRCe bit 0 */
 8001a6c:	fa04 fc03 	lsl.w	ip, r4, r3
 8001a70:	f1a3 0120 	sub.w	r1, r3, #32
 8001a74:	f1c3 0320 	rsb	r3, r3, #32
 8001a78:	fa24 f303 	lsr.w	r3, r4, r3
 8001a7c:	fa04 f101 	lsl.w	r1, r4, r1
  MODIFY_REG(*pReg1, (uint32_t)(mask), (uint32_t)(cfg));
 8001a80:	f8d0 4bd0 	ldr.w	r4, [r0, #3024]	@ 0xbd0
 8001a84:	ea24 040c 	bic.w	r4, r4, ip
 8001a88:	f8c0 4bd0 	str.w	r4, [r0, #3024]	@ 0xbd0
  uint64_t mask = ((uint64_t)(HRTIM_FLTINR1_FLT1SRC_0) << REG_SHIFT_TAB_FLTxF[iFault]) |        /* this for SouRCe bit 0 */
 8001a8c:	4319      	orrs	r1, r3
 8001a8e:	ea42 0301 	orr.w	r3, r2, r1
  MODIFY_REG(*pReg2, (uint32_t)(mask >> 32U), (uint32_t)(cfg  >> 32U));
 8001a92:	f8d0 2bd4 	ldr.w	r2, [r0, #3028]	@ 0xbd4
}
 8001a96:	f85d 4b04 	ldr.w	r4, [sp], #4
  MODIFY_REG(*pReg2, (uint32_t)(mask >> 32U), (uint32_t)(cfg  >> 32U));
 8001a9a:	ea22 0303 	bic.w	r3, r2, r3
 8001a9e:	f8c0 3bd4 	str.w	r3, [r0, #3028]	@ 0xbd4
}
 8001aa2:	4770      	bx	lr
 8001aa4:	08007ebc 	.word	0x08007ebc
 8001aa8:	08007ec4 	.word	0x08007ec4
 8001aac:	40016000 	.word	0x40016000

08001ab0 <LL_HRTIM_OUT_SetChopperMode.constprop.0>:
   __ASM volatile ("rbit %0, %1" : "=r" (result) : "r" (value) );
 8001ab0:	fa90 f3a0 	rbit	r3, r0
 8001ab4:	2201      	movs	r2, #1
  return __builtin_clz(value);
 8001ab6:	fab3 f383 	clz	r3, r3
   __ASM volatile ("rbit %0, %1" : "=r" (result) : "r" (value) );
 8001aba:	fa92 f2a2 	rbit	r2, r2
  return __builtin_clz(value);
 8001abe:	fab2 f282 	clz	r2, r2
  uint32_t iOutput = (uint8_t)(POSITION_VAL(Output) - POSITION_VAL(LL_HRTIM_OUTPUT_TA1));
 8001ac2:	1a9b      	subs	r3, r3, r2
 8001ac4:	b2db      	uxtb	r3, r3
                                                     REG_OFFSET_TAB_OUTxR[iOutput]));
 8001ac6:	4907      	ldr	r1, [pc, #28]	@ (8001ae4 <LL_HRTIM_OUT_SetChopperMode.constprop.0+0x34>)
  MODIFY_REG(*pReg, (HRTIM_OUTR_CHP1 << REG_SHIFT_TAB_OUTxR[iOutput]), (ChopperMode << REG_SHIFT_TAB_OUTxR[iOutput]));
 8001ac8:	4a07      	ldr	r2, [pc, #28]	@ (8001ae8 <LL_HRTIM_OUT_SetChopperMode.constprop.0+0x38>)
                                                     REG_OFFSET_TAB_OUTxR[iOutput]));
 8001aca:	f831 0013 	ldrh.w	r0, [r1, r3, lsl #1]
  __IO uint32_t *pReg = (__IO uint32_t *)((uint32_t)((uint32_t)(&HRTIMx->sTimerxRegs[0].OUTxR) +
 8001ace:	4907      	ldr	r1, [pc, #28]	@ (8001aec <LL_HRTIM_OUT_SetChopperMode.constprop.0+0x3c>)
  MODIFY_REG(*pReg, (HRTIM_OUTR_CHP1 << REG_SHIFT_TAB_OUTxR[iOutput]), (ChopperMode << REG_SHIFT_TAB_OUTxR[iOutput]));
 8001ad0:	f812 c003 	ldrb.w	ip, [r2, r3]
 8001ad4:	5843      	ldr	r3, [r0, r1]
 8001ad6:	2240      	movs	r2, #64	@ 0x40
 8001ad8:	fa02 f20c 	lsl.w	r2, r2, ip
 8001adc:	ea23 0302 	bic.w	r3, r3, r2
 8001ae0:	5043      	str	r3, [r0, r1]
}
 8001ae2:	4770      	bx	lr
 8001ae4:	08007f2c 	.word	0x08007f2c
 8001ae8:	08007ed4 	.word	0x08007ed4
 8001aec:	400168e4 	.word	0x400168e4

08001af0 <LL_HRTIM_OUT_SetFaultState.constprop.0>:
   __ASM volatile ("rbit %0, %1" : "=r" (result) : "r" (value) );
 8001af0:	fa90 f3a0 	rbit	r3, r0
 8001af4:	2201      	movs	r2, #1
  return __builtin_clz(value);
 8001af6:	fab3 f383 	clz	r3, r3
   __ASM volatile ("rbit %0, %1" : "=r" (result) : "r" (value) );
 8001afa:	fa92 f2a2 	rbit	r2, r2
  return __builtin_clz(value);
 8001afe:	fab2 f282 	clz	r2, r2
  uint32_t iOutput = (uint8_t)(POSITION_VAL(Output) - POSITION_VAL(LL_HRTIM_OUTPUT_TA1));
 8001b02:	1a9b      	subs	r3, r3, r2
 8001b04:	b2db      	uxtb	r3, r3
                                                     REG_OFFSET_TAB_OUTxR[iOutput]));
 8001b06:	4909      	ldr	r1, [pc, #36]	@ (8001b2c <LL_HRTIM_OUT_SetFaultState.constprop.0+0x3c>)
  MODIFY_REG(*pReg, (HRTIM_OUTR_FAULT1 << REG_SHIFT_TAB_OUTxR[iOutput]), (FaultState << REG_SHIFT_TAB_OUTxR[iOutput]));
 8001b08:	4a09      	ldr	r2, [pc, #36]	@ (8001b30 <LL_HRTIM_OUT_SetFaultState.constprop.0+0x40>)
                                                     REG_OFFSET_TAB_OUTxR[iOutput]));
 8001b0a:	f831 0013 	ldrh.w	r0, [r1, r3, lsl #1]
  __IO uint32_t *pReg = (__IO uint32_t *)((uint32_t)((uint32_t)(&HRTIMx->sTimerxRegs[0].OUTxR) +
 8001b0e:	4909      	ldr	r1, [pc, #36]	@ (8001b34 <LL_HRTIM_OUT_SetFaultState.constprop.0+0x44>)
  MODIFY_REG(*pReg, (HRTIM_OUTR_FAULT1 << REG_SHIFT_TAB_OUTxR[iOutput]), (FaultState << REG_SHIFT_TAB_OUTxR[iOutput]));
 8001b10:	f812 c003 	ldrb.w	ip, [r2, r3]
 8001b14:	5843      	ldr	r3, [r0, r1]
 8001b16:	2230      	movs	r2, #48	@ 0x30
 8001b18:	fa02 f20c 	lsl.w	r2, r2, ip
 8001b1c:	ea23 0302 	bic.w	r3, r3, r2
 8001b20:	2220      	movs	r2, #32
 8001b22:	fa02 f20c 	lsl.w	r2, r2, ip
 8001b26:	4313      	orrs	r3, r2
 8001b28:	5043      	str	r3, [r0, r1]
}
 8001b2a:	4770      	bx	lr
 8001b2c:	08007f2c 	.word	0x08007f2c
 8001b30:	08007ed4 	.word	0x08007ed4
 8001b34:	400168e4 	.word	0x400168e4

08001b38 <LL_HRTIM_OUT_SetIdleLevel.constprop.0>:
   __ASM volatile ("rbit %0, %1" : "=r" (result) : "r" (value) );
 8001b38:	fa90 f3a0 	rbit	r3, r0
 8001b3c:	2201      	movs	r2, #1
  return __builtin_clz(value);
 8001b3e:	fab3 f383 	clz	r3, r3
   __ASM volatile ("rbit %0, %1" : "=r" (result) : "r" (value) );
 8001b42:	fa92 f2a2 	rbit	r2, r2
  return __builtin_clz(value);
 8001b46:	fab2 f282 	clz	r2, r2
  uint32_t iOutput = (uint8_t)(POSITION_VAL(Output) - POSITION_VAL(LL_HRTIM_OUTPUT_TA1));
 8001b4a:	1a9b      	subs	r3, r3, r2
 8001b4c:	b2db      	uxtb	r3, r3
                                                     REG_OFFSET_TAB_OUTxR[iOutput]));
 8001b4e:	4907      	ldr	r1, [pc, #28]	@ (8001b6c <LL_HRTIM_OUT_SetIdleLevel.constprop.0+0x34>)
  MODIFY_REG(*pReg, (HRTIM_OUTR_IDLES1 << REG_SHIFT_TAB_OUTxR[iOutput]), (IdleLevel << REG_SHIFT_TAB_OUTxR[iOutput]));
 8001b50:	4a07      	ldr	r2, [pc, #28]	@ (8001b70 <LL_HRTIM_OUT_SetIdleLevel.constprop.0+0x38>)
                                                     REG_OFFSET_TAB_OUTxR[iOutput]));
 8001b52:	f831 0013 	ldrh.w	r0, [r1, r3, lsl #1]
  __IO uint32_t *pReg = (__IO uint32_t *)((uint32_t)((uint32_t)(&HRTIMx->sTimerxRegs[0].OUTxR) +
 8001b56:	4907      	ldr	r1, [pc, #28]	@ (8001b74 <LL_HRTIM_OUT_SetIdleLevel.constprop.0+0x3c>)
  MODIFY_REG(*pReg, (HRTIM_OUTR_IDLES1 << REG_SHIFT_TAB_OUTxR[iOutput]), (IdleLevel << REG_SHIFT_TAB_OUTxR[iOutput]));
 8001b58:	f812 c003 	ldrb.w	ip, [r2, r3]
 8001b5c:	5843      	ldr	r3, [r0, r1]
 8001b5e:	2208      	movs	r2, #8
 8001b60:	fa02 f20c 	lsl.w	r2, r2, ip
 8001b64:	ea23 0302 	bic.w	r3, r3, r2
 8001b68:	5043      	str	r3, [r0, r1]
}
 8001b6a:	4770      	bx	lr
 8001b6c:	08007f2c 	.word	0x08007f2c
 8001b70:	08007ed4 	.word	0x08007ed4
 8001b74:	400168e4 	.word	0x400168e4

08001b78 <LL_HRTIM_OUT_SetIdleMode.constprop.0>:
   __ASM volatile ("rbit %0, %1" : "=r" (result) : "r" (value) );
 8001b78:	fa90 f3a0 	rbit	r3, r0
 8001b7c:	2201      	movs	r2, #1
  return __builtin_clz(value);
 8001b7e:	fab3 f383 	clz	r3, r3
   __ASM volatile ("rbit %0, %1" : "=r" (result) : "r" (value) );
 8001b82:	fa92 f2a2 	rbit	r2, r2
  return __builtin_clz(value);
 8001b86:	fab2 f282 	clz	r2, r2
  uint32_t iOutput = (uint8_t)(POSITION_VAL(Output) - POSITION_VAL(LL_HRTIM_OUTPUT_TA1));
 8001b8a:	1a9b      	subs	r3, r3, r2
 8001b8c:	b2db      	uxtb	r3, r3
                                                     REG_OFFSET_TAB_OUTxR[iOutput]));
 8001b8e:	4907      	ldr	r1, [pc, #28]	@ (8001bac <LL_HRTIM_OUT_SetIdleMode.constprop.0+0x34>)
  MODIFY_REG(*pReg, (HRTIM_OUTR_IDLM1 << (REG_SHIFT_TAB_OUTxR[iOutput])), (IdleMode << (REG_SHIFT_TAB_OUTxR[iOutput])));
 8001b90:	4a07      	ldr	r2, [pc, #28]	@ (8001bb0 <LL_HRTIM_OUT_SetIdleMode.constprop.0+0x38>)
                                                     REG_OFFSET_TAB_OUTxR[iOutput]));
 8001b92:	f831 0013 	ldrh.w	r0, [r1, r3, lsl #1]
  __IO uint32_t *pReg = (__IO uint32_t *)((uint32_t)((uint32_t)(&HRTIMx->sTimerxRegs[0].OUTxR) +
 8001b96:	4907      	ldr	r1, [pc, #28]	@ (8001bb4 <LL_HRTIM_OUT_SetIdleMode.constprop.0+0x3c>)
  MODIFY_REG(*pReg, (HRTIM_OUTR_IDLM1 << (REG_SHIFT_TAB_OUTxR[iOutput])), (IdleMode << (REG_SHIFT_TAB_OUTxR[iOutput])));
 8001b98:	f812 c003 	ldrb.w	ip, [r2, r3]
 8001b9c:	5843      	ldr	r3, [r0, r1]
 8001b9e:	2204      	movs	r2, #4
 8001ba0:	fa02 f20c 	lsl.w	r2, r2, ip
 8001ba4:	ea23 0302 	bic.w	r3, r3, r2
 8001ba8:	5043      	str	r3, [r0, r1]
}
 8001baa:	4770      	bx	lr
 8001bac:	08007f2c 	.word	0x08007f2c
 8001bb0:	08007ed4 	.word	0x08007ed4
 8001bb4:	400168e4 	.word	0x400168e4

08001bb8 <LL_HRTIM_OUT_SetPolarity.constprop.0>:
   __ASM volatile ("rbit %0, %1" : "=r" (result) : "r" (value) );
 8001bb8:	fa90 f3a0 	rbit	r3, r0
 8001bbc:	2201      	movs	r2, #1
  return __builtin_clz(value);
 8001bbe:	fab3 f383 	clz	r3, r3
   __ASM volatile ("rbit %0, %1" : "=r" (result) : "r" (value) );
 8001bc2:	fa92 f2a2 	rbit	r2, r2
  return __builtin_clz(value);
 8001bc6:	fab2 f282 	clz	r2, r2
  uint32_t iOutput = (uint8_t)(POSITION_VAL(Output) - POSITION_VAL(LL_HRTIM_OUTPUT_TA1));
 8001bca:	1a9b      	subs	r3, r3, r2
 8001bcc:	b2db      	uxtb	r3, r3
                                                     REG_OFFSET_TAB_OUTxR[iOutput]));
 8001bce:	4907      	ldr	r1, [pc, #28]	@ (8001bec <LL_HRTIM_OUT_SetPolarity.constprop.0+0x34>)
  MODIFY_REG(*pReg, (HRTIM_OUTR_POL1 << REG_SHIFT_TAB_OUTxR[iOutput]), (Polarity << REG_SHIFT_TAB_OUTxR[iOutput]));
 8001bd0:	4a07      	ldr	r2, [pc, #28]	@ (8001bf0 <LL_HRTIM_OUT_SetPolarity.constprop.0+0x38>)
                                                     REG_OFFSET_TAB_OUTxR[iOutput]));
 8001bd2:	f831 0013 	ldrh.w	r0, [r1, r3, lsl #1]
  __IO uint32_t *pReg = (__IO uint32_t *)((uint32_t)((uint32_t)(&HRTIMx->sTimerxRegs[0].OUTxR) +
 8001bd6:	4907      	ldr	r1, [pc, #28]	@ (8001bf4 <LL_HRTIM_OUT_SetPolarity.constprop.0+0x3c>)
  MODIFY_REG(*pReg, (HRTIM_OUTR_POL1 << REG_SHIFT_TAB_OUTxR[iOutput]), (Polarity << REG_SHIFT_TAB_OUTxR[iOutput]));
 8001bd8:	f812 c003 	ldrb.w	ip, [r2, r3]
 8001bdc:	5843      	ldr	r3, [r0, r1]
 8001bde:	2202      	movs	r2, #2
 8001be0:	fa02 f20c 	lsl.w	r2, r2, ip
 8001be4:	ea23 0302 	bic.w	r3, r3, r2
 8001be8:	5043      	str	r3, [r0, r1]
}
 8001bea:	4770      	bx	lr
 8001bec:	08007f2c 	.word	0x08007f2c
 8001bf0:	08007ed4 	.word	0x08007ed4
 8001bf4:	400168e4 	.word	0x400168e4

08001bf8 <LL_HRTIM_OUT_SetOutputResetSrc.constprop.0>:
   __ASM volatile ("rbit %0, %1" : "=r" (result) : "r" (value) );
 8001bf8:	fa90 f0a0 	rbit	r0, r0
 8001bfc:	2301      	movs	r3, #1
  return __builtin_clz(value);
 8001bfe:	fab0 f080 	clz	r0, r0
   __ASM volatile ("rbit %0, %1" : "=r" (result) : "r" (value) );
 8001c02:	fa93 f3a3 	rbit	r3, r3
  return __builtin_clz(value);
 8001c06:	fab3 f383 	clz	r3, r3
  uint32_t iOutput = (uint8_t)(POSITION_VAL(Output) - POSITION_VAL(LL_HRTIM_OUTPUT_TA1));
 8001c0a:	1ac0      	subs	r0, r0, r3
                                                     REG_OFFSET_TAB_SETxR[iOutput]));
 8001c0c:	4a03      	ldr	r2, [pc, #12]	@ (8001c1c <LL_HRTIM_OUT_SetOutputResetSrc.constprop.0+0x24>)
  __IO uint32_t *pReg = (__IO uint32_t *)((uint32_t)((uint32_t)(&HRTIMx->sTimerxRegs[0].RSTx1R) +
 8001c0e:	4b04      	ldr	r3, [pc, #16]	@ (8001c20 <LL_HRTIM_OUT_SetOutputResetSrc.constprop.0+0x28>)
  uint32_t iOutput = (uint8_t)(POSITION_VAL(Output) - POSITION_VAL(LL_HRTIM_OUTPUT_TA1));
 8001c10:	b2c0      	uxtb	r0, r0
                                                     REG_OFFSET_TAB_SETxR[iOutput]));
 8001c12:	f832 2010 	ldrh.w	r2, [r2, r0, lsl #1]
  WRITE_REG(*pReg, ResetSrc);
 8001c16:	50d1      	str	r1, [r2, r3]
}
 8001c18:	4770      	bx	lr
 8001c1a:	bf00      	nop
 8001c1c:	08007f44 	.word	0x08007f44
 8001c20:	400168c0 	.word	0x400168c0

08001c24 <LL_HRTIM_OUT_SetOutputSetSrc.constprop.0>:
   __ASM volatile ("rbit %0, %1" : "=r" (result) : "r" (value) );
 8001c24:	fa90 f3a0 	rbit	r3, r0
 8001c28:	2201      	movs	r2, #1
  return __builtin_clz(value);
 8001c2a:	fab3 f383 	clz	r3, r3
   __ASM volatile ("rbit %0, %1" : "=r" (result) : "r" (value) );
 8001c2e:	fa92 f2a2 	rbit	r2, r2
  return __builtin_clz(value);
 8001c32:	fab2 f282 	clz	r2, r2
  uint32_t iOutput = (uint8_t)(POSITION_VAL(Output) - POSITION_VAL(LL_HRTIM_OUTPUT_TA1));
 8001c36:	1a9b      	subs	r3, r3, r2
                                                     REG_OFFSET_TAB_SETxR[iOutput]));
 8001c38:	4903      	ldr	r1, [pc, #12]	@ (8001c48 <LL_HRTIM_OUT_SetOutputSetSrc.constprop.0+0x24>)
  __IO uint32_t *pReg = (__IO uint32_t *)((uint32_t)((uint32_t)(&HRTIMx->sTimerxRegs[0].SETx1R) +
 8001c3a:	4a04      	ldr	r2, [pc, #16]	@ (8001c4c <LL_HRTIM_OUT_SetOutputSetSrc.constprop.0+0x28>)
  uint32_t iOutput = (uint8_t)(POSITION_VAL(Output) - POSITION_VAL(LL_HRTIM_OUTPUT_TA1));
 8001c3c:	b2db      	uxtb	r3, r3
                                                     REG_OFFSET_TAB_SETxR[iOutput]));
 8001c3e:	f831 3013 	ldrh.w	r3, [r1, r3, lsl #1]
  WRITE_REG(*pReg, SetSrc);
 8001c42:	2100      	movs	r1, #0
 8001c44:	5099      	str	r1, [r3, r2]
}
 8001c46:	4770      	bx	lr
 8001c48:	08007f44 	.word	0x08007f44
 8001c4c:	400168bc 	.word	0x400168bc

08001c50 <LL_HRTIM_DT_SetFallingSign.constprop.0>:
   __ASM volatile ("rbit %0, %1" : "=r" (result) : "r" (value) );
 8001c50:	fa90 f3a0 	rbit	r3, r0
  return __builtin_clz(value);
 8001c54:	fab3 f383 	clz	r3, r3
  uint32_t iTimer = (uint8_t)(POSITION_VAL(Timer) - HRTIM_MCR_TACEN_Pos);
 8001c58:	3b11      	subs	r3, #17
 8001c5a:	b2db      	uxtb	r3, r3
                                                     REG_OFFSET_TAB_TIMER[iTimer]));
 8001c5c:	4904      	ldr	r1, [pc, #16]	@ (8001c70 <LL_HRTIM_DT_SetFallingSign.constprop.0+0x20>)
  __IO uint32_t *pReg = (__IO uint32_t *)((uint32_t)((uint32_t)(&HRTIMx->sTimerxRegs[0].DTxR) +
 8001c5e:	4a05      	ldr	r2, [pc, #20]	@ (8001c74 <LL_HRTIM_DT_SetFallingSign.constprop.0+0x24>)
                                                     REG_OFFSET_TAB_TIMER[iTimer]));
 8001c60:	f831 1013 	ldrh.w	r1, [r1, r3, lsl #1]
  MODIFY_REG(*pReg, HRTIM_DTR_SDTF, FallingSign);
 8001c64:	588b      	ldr	r3, [r1, r2]
 8001c66:	f023 7300 	bic.w	r3, r3, #33554432	@ 0x2000000
 8001c6a:	508b      	str	r3, [r1, r2]
}
 8001c6c:	4770      	bx	lr
 8001c6e:	bf00      	nop
 8001c70:	08007f5c 	.word	0x08007f5c
 8001c74:	400168b8 	.word	0x400168b8

08001c78 <LL_HRTIM_DT_SetFallingValue.constprop.0>:
   __ASM volatile ("rbit %0, %1" : "=r" (result) : "r" (value) );
 8001c78:	fa90 f3a0 	rbit	r3, r0
  return __builtin_clz(value);
 8001c7c:	fab3 f383 	clz	r3, r3
  uint32_t iTimer = (uint8_t)(POSITION_VAL(Timer) - HRTIM_MCR_TACEN_Pos);
 8001c80:	3b11      	subs	r3, #17
 8001c82:	b2db      	uxtb	r3, r3
                                                     REG_OFFSET_TAB_TIMER[iTimer]));
 8001c84:	4905      	ldr	r1, [pc, #20]	@ (8001c9c <LL_HRTIM_DT_SetFallingValue.constprop.0+0x24>)
  __IO uint32_t *pReg = (__IO uint32_t *)((uint32_t)((uint32_t)(&HRTIMx->sTimerxRegs[0].DTxR) +
 8001c86:	4a06      	ldr	r2, [pc, #24]	@ (8001ca0 <LL_HRTIM_DT_SetFallingValue.constprop.0+0x28>)
                                                     REG_OFFSET_TAB_TIMER[iTimer]));
 8001c88:	f831 1013 	ldrh.w	r1, [r1, r3, lsl #1]
  MODIFY_REG(*pReg, HRTIM_DTR_DTF, FallingValue << HRTIM_DTR_DTF_Pos);
 8001c8c:	588b      	ldr	r3, [r1, r2]
 8001c8e:	f36f 4318 	bfc	r3, #16, #9
 8001c92:	f443 032a 	orr.w	r3, r3, #11141120	@ 0xaa0000
 8001c96:	508b      	str	r3, [r1, r2]
}
 8001c98:	4770      	bx	lr
 8001c9a:	bf00      	nop
 8001c9c:	08007f5c 	.word	0x08007f5c
 8001ca0:	400168b8 	.word	0x400168b8

08001ca4 <LL_HRTIM_DT_SetRisingSign.constprop.0>:
   __ASM volatile ("rbit %0, %1" : "=r" (result) : "r" (value) );
 8001ca4:	fa90 f3a0 	rbit	r3, r0
  return __builtin_clz(value);
 8001ca8:	fab3 f383 	clz	r3, r3
  uint32_t iTimer = (uint8_t)(POSITION_VAL(Timer) - HRTIM_MCR_TACEN_Pos);
 8001cac:	3b11      	subs	r3, #17
 8001cae:	b2db      	uxtb	r3, r3
                                                     REG_OFFSET_TAB_TIMER[iTimer]));
 8001cb0:	4904      	ldr	r1, [pc, #16]	@ (8001cc4 <LL_HRTIM_DT_SetRisingSign.constprop.0+0x20>)
  __IO uint32_t *pReg = (__IO uint32_t *)((uint32_t)((uint32_t)(&HRTIMx->sTimerxRegs[0].DTxR) +
 8001cb2:	4a05      	ldr	r2, [pc, #20]	@ (8001cc8 <LL_HRTIM_DT_SetRisingSign.constprop.0+0x24>)
                                                     REG_OFFSET_TAB_TIMER[iTimer]));
 8001cb4:	f831 1013 	ldrh.w	r1, [r1, r3, lsl #1]
  MODIFY_REG(*pReg, HRTIM_DTR_SDTR, RisingSign);
 8001cb8:	588b      	ldr	r3, [r1, r2]
 8001cba:	f423 7300 	bic.w	r3, r3, #512	@ 0x200
 8001cbe:	508b      	str	r3, [r1, r2]
}
 8001cc0:	4770      	bx	lr
 8001cc2:	bf00      	nop
 8001cc4:	08007f5c 	.word	0x08007f5c
 8001cc8:	400168b8 	.word	0x400168b8

08001ccc <LL_HRTIM_DT_SetRisingValue.constprop.0>:
   __ASM volatile ("rbit %0, %1" : "=r" (result) : "r" (value) );
 8001ccc:	fa90 f3a0 	rbit	r3, r0
  return __builtin_clz(value);
 8001cd0:	fab3 f383 	clz	r3, r3
  uint32_t iTimer = (uint8_t)(POSITION_VAL(Timer) - HRTIM_MCR_TACEN_Pos);
 8001cd4:	3b11      	subs	r3, #17
 8001cd6:	b2db      	uxtb	r3, r3
                                                     REG_OFFSET_TAB_TIMER[iTimer]));
 8001cd8:	4905      	ldr	r1, [pc, #20]	@ (8001cf0 <LL_HRTIM_DT_SetRisingValue.constprop.0+0x24>)
  __IO uint32_t *pReg = (__IO uint32_t *)((uint32_t)((uint32_t)(&HRTIMx->sTimerxRegs[0].DTxR) +
 8001cda:	4a06      	ldr	r2, [pc, #24]	@ (8001cf4 <LL_HRTIM_DT_SetRisingValue.constprop.0+0x28>)
                                                     REG_OFFSET_TAB_TIMER[iTimer]));
 8001cdc:	f831 1013 	ldrh.w	r1, [r1, r3, lsl #1]
  MODIFY_REG(*pReg, HRTIM_DTR_DTR, RisingValue);
 8001ce0:	588b      	ldr	r3, [r1, r2]
 8001ce2:	f36f 0308 	bfc	r3, #0, #9
 8001ce6:	f043 03aa 	orr.w	r3, r3, #170	@ 0xaa
 8001cea:	508b      	str	r3, [r1, r2]
}
 8001cec:	4770      	bx	lr
 8001cee:	bf00      	nop
 8001cf0:	08007f5c 	.word	0x08007f5c
 8001cf4:	400168b8 	.word	0x400168b8

08001cf8 <LL_HRTIM_DT_SetPrescaler.constprop.0>:
   __ASM volatile ("rbit %0, %1" : "=r" (result) : "r" (value) );
 8001cf8:	fa90 f3a0 	rbit	r3, r0
  return __builtin_clz(value);
 8001cfc:	fab3 f383 	clz	r3, r3
  uint32_t iTimer = (uint8_t)(POSITION_VAL(Timer) - HRTIM_MCR_TACEN_Pos);
 8001d00:	3b11      	subs	r3, #17
 8001d02:	b2db      	uxtb	r3, r3
                                                     REG_OFFSET_TAB_TIMER[iTimer]));
 8001d04:	4905      	ldr	r1, [pc, #20]	@ (8001d1c <LL_HRTIM_DT_SetPrescaler.constprop.0+0x24>)
  __IO uint32_t *pReg = (__IO uint32_t *)((uint32_t)((uint32_t)(&HRTIMx->sTimerxRegs[0].DTxR) +
 8001d06:	4a06      	ldr	r2, [pc, #24]	@ (8001d20 <LL_HRTIM_DT_SetPrescaler.constprop.0+0x28>)
                                                     REG_OFFSET_TAB_TIMER[iTimer]));
 8001d08:	f831 1013 	ldrh.w	r1, [r1, r3, lsl #1]
  MODIFY_REG(*pReg, HRTIM_DTR_DTPRSC, Prescaler);
 8001d0c:	588b      	ldr	r3, [r1, r2]
 8001d0e:	f423 53e0 	bic.w	r3, r3, #7168	@ 0x1c00
 8001d12:	f443 6340 	orr.w	r3, r3, #3072	@ 0xc00
 8001d16:	508b      	str	r3, [r1, r2]
}
 8001d18:	4770      	bx	lr
 8001d1a:	bf00      	nop
 8001d1c:	08007f5c 	.word	0x08007f5c
 8001d20:	400168b8 	.word	0x400168b8

08001d24 <LL_HRTIM_TIM_SetCountingMode.constprop.0>:
   __ASM volatile ("rbit %0, %1" : "=r" (result) : "r" (value) );
 8001d24:	fa90 f3a0 	rbit	r3, r0
 8001d28:	f44f 3200 	mov.w	r2, #131072	@ 0x20000
  return __builtin_clz(value);
 8001d2c:	fab3 f383 	clz	r3, r3
   __ASM volatile ("rbit %0, %1" : "=r" (result) : "r" (value) );
 8001d30:	fa92 f2a2 	rbit	r2, r2
  return __builtin_clz(value);
 8001d34:	fab2 f282 	clz	r2, r2
  uint32_t iTimer = (uint8_t)(POSITION_VAL(Timer) - POSITION_VAL(LL_HRTIM_TIMER_A));
 8001d38:	1a9b      	subs	r3, r3, r2
 8001d3a:	b2db      	uxtb	r3, r3
                                                     REG_OFFSET_TAB_TIMER[iTimer]));
 8001d3c:	4904      	ldr	r1, [pc, #16]	@ (8001d50 <LL_HRTIM_TIM_SetCountingMode.constprop.0+0x2c>)
  __IO uint32_t *pReg = (__IO uint32_t *)((uint32_t)((uint32_t)(&HRTIMx->sTimerxRegs[0].TIMxCR2) +
 8001d3e:	4a05      	ldr	r2, [pc, #20]	@ (8001d54 <LL_HRTIM_TIM_SetCountingMode.constprop.0+0x30>)
                                                     REG_OFFSET_TAB_TIMER[iTimer]));
 8001d40:	f831 1013 	ldrh.w	r1, [r1, r3, lsl #1]
  MODIFY_REG(* pReg, HRTIM_TIMCR2_UDM, Mode);
 8001d44:	588b      	ldr	r3, [r1, r2]
 8001d46:	f043 0310 	orr.w	r3, r3, #16
 8001d4a:	508b      	str	r3, [r1, r2]
}
 8001d4c:	4770      	bx	lr
 8001d4e:	bf00      	nop
 8001d50:	08007f5c 	.word	0x08007f5c
 8001d54:	400168ec 	.word	0x400168ec

08001d58 <LL_HRTIM_TIM_SetOutputRollOverMode.constprop.0>:
   __ASM volatile ("rbit %0, %1" : "=r" (result) : "r" (value) );
 8001d58:	fa90 f3a0 	rbit	r3, r0
 8001d5c:	f44f 3200 	mov.w	r2, #131072	@ 0x20000
  return __builtin_clz(value);
 8001d60:	fab3 f383 	clz	r3, r3
   __ASM volatile ("rbit %0, %1" : "=r" (result) : "r" (value) );
 8001d64:	fa92 f2a2 	rbit	r2, r2
  return __builtin_clz(value);
 8001d68:	fab2 f282 	clz	r2, r2
  uint32_t iTimer = (uint8_t)(POSITION_VAL(Timer) - POSITION_VAL(LL_HRTIM_TIMER_A));
 8001d6c:	1a9b      	subs	r3, r3, r2
 8001d6e:	b2db      	uxtb	r3, r3
                                                     REG_OFFSET_TAB_TIMER[iTimer]));
 8001d70:	4904      	ldr	r1, [pc, #16]	@ (8001d84 <LL_HRTIM_TIM_SetOutputRollOverMode.constprop.0+0x2c>)
  __IO uint32_t *pReg = (__IO uint32_t *)((uint32_t)((uint32_t)(&HRTIMx->sTimerxRegs[0].TIMxCR2) +
 8001d72:	4a05      	ldr	r2, [pc, #20]	@ (8001d88 <LL_HRTIM_TIM_SetOutputRollOverMode.constprop.0+0x30>)
                                                     REG_OFFSET_TAB_TIMER[iTimer]));
 8001d74:	f831 1013 	ldrh.w	r1, [r1, r3, lsl #1]
  MODIFY_REG(* pReg, HRTIM_TIMCR2_OUTROM, (Mode << HRTIM_TIMCR2_OUTROM_Pos));
 8001d78:	588b      	ldr	r3, [r1, r2]
 8001d7a:	f423 7340 	bic.w	r3, r3, #768	@ 0x300
 8001d7e:	508b      	str	r3, [r1, r2]
}
 8001d80:	4770      	bx	lr
 8001d82:	bf00      	nop
 8001d84:	08007f5c 	.word	0x08007f5c
 8001d88:	400168ec 	.word	0x400168ec

08001d8c <LL_HRTIM_TIM_SetADCRollOverMode.constprop.0>:
   __ASM volatile ("rbit %0, %1" : "=r" (result) : "r" (value) );
 8001d8c:	fa90 f3a0 	rbit	r3, r0
 8001d90:	f44f 3200 	mov.w	r2, #131072	@ 0x20000
  return __builtin_clz(value);
 8001d94:	fab3 f383 	clz	r3, r3
   __ASM volatile ("rbit %0, %1" : "=r" (result) : "r" (value) );
 8001d98:	fa92 f2a2 	rbit	r2, r2
  return __builtin_clz(value);
 8001d9c:	fab2 f282 	clz	r2, r2
  uint32_t iTimer = (uint8_t)(POSITION_VAL(Timer) - POSITION_VAL(LL_HRTIM_TIMER_A));
 8001da0:	1a9b      	subs	r3, r3, r2
 8001da2:	b2db      	uxtb	r3, r3
                                                     REG_OFFSET_TAB_TIMER[iTimer]));
 8001da4:	4904      	ldr	r1, [pc, #16]	@ (8001db8 <LL_HRTIM_TIM_SetADCRollOverMode.constprop.0+0x2c>)
  __IO uint32_t *pReg = (__IO uint32_t *)((uint32_t)((uint32_t)(&HRTIMx->sTimerxRegs[0].TIMxCR2) +
 8001da6:	4a05      	ldr	r2, [pc, #20]	@ (8001dbc <LL_HRTIM_TIM_SetADCRollOverMode.constprop.0+0x30>)
                                                     REG_OFFSET_TAB_TIMER[iTimer]));
 8001da8:	f831 1013 	ldrh.w	r1, [r1, r3, lsl #1]
  MODIFY_REG(* pReg, HRTIM_TIMCR2_ADROM, (Mode << HRTIM_TIMCR2_ADROM_Pos));
 8001dac:	588b      	ldr	r3, [r1, r2]
 8001dae:	f423 6340 	bic.w	r3, r3, #3072	@ 0xc00
 8001db2:	508b      	str	r3, [r1, r2]
}
 8001db4:	4770      	bx	lr
 8001db6:	bf00      	nop
 8001db8:	08007f5c 	.word	0x08007f5c
 8001dbc:	400168ec 	.word	0x400168ec

08001dc0 <LL_HRTIM_TIM_SetBMRollOverMode.constprop.0>:
   __ASM volatile ("rbit %0, %1" : "=r" (result) : "r" (value) );
 8001dc0:	fa90 f3a0 	rbit	r3, r0
 8001dc4:	f44f 3200 	mov.w	r2, #131072	@ 0x20000
  return __builtin_clz(value);
 8001dc8:	fab3 f383 	clz	r3, r3
   __ASM volatile ("rbit %0, %1" : "=r" (result) : "r" (value) );
 8001dcc:	fa92 f2a2 	rbit	r2, r2
  return __builtin_clz(value);
 8001dd0:	fab2 f282 	clz	r2, r2
  uint32_t iTimer = (uint8_t)(POSITION_VAL(Timer) - POSITION_VAL(LL_HRTIM_TIMER_A));
 8001dd4:	1a9b      	subs	r3, r3, r2
 8001dd6:	b2db      	uxtb	r3, r3
                                                     REG_OFFSET_TAB_TIMER[iTimer]));
 8001dd8:	4904      	ldr	r1, [pc, #16]	@ (8001dec <LL_HRTIM_TIM_SetBMRollOverMode.constprop.0+0x2c>)
  __IO uint32_t *pReg = (__IO uint32_t *)((uint32_t)((uint32_t)(&HRTIMx->sTimerxRegs[0].TIMxCR2) +
 8001dda:	4a05      	ldr	r2, [pc, #20]	@ (8001df0 <LL_HRTIM_TIM_SetBMRollOverMode.constprop.0+0x30>)
                                                     REG_OFFSET_TAB_TIMER[iTimer]));
 8001ddc:	f831 1013 	ldrh.w	r1, [r1, r3, lsl #1]
  MODIFY_REG(* pReg, HRTIM_TIMCR2_BMROM, (Mode << HRTIM_TIMCR2_BMROM_Pos));
 8001de0:	588b      	ldr	r3, [r1, r2]
 8001de2:	f423 5340 	bic.w	r3, r3, #12288	@ 0x3000
 8001de6:	508b      	str	r3, [r1, r2]
}
 8001de8:	4770      	bx	lr
 8001dea:	bf00      	nop
 8001dec:	08007f5c 	.word	0x08007f5c
 8001df0:	400168ec 	.word	0x400168ec

08001df4 <LL_HRTIM_TIM_SetFaultEventRollOverMode.constprop.0>:
   __ASM volatile ("rbit %0, %1" : "=r" (result) : "r" (value) );
 8001df4:	fa90 f3a0 	rbit	r3, r0
 8001df8:	f44f 3200 	mov.w	r2, #131072	@ 0x20000
  return __builtin_clz(value);
 8001dfc:	fab3 f383 	clz	r3, r3
   __ASM volatile ("rbit %0, %1" : "=r" (result) : "r" (value) );
 8001e00:	fa92 f2a2 	rbit	r2, r2
  return __builtin_clz(value);
 8001e04:	fab2 f282 	clz	r2, r2
  uint32_t iTimer = (uint8_t)(POSITION_VAL(Timer) - POSITION_VAL(LL_HRTIM_TIMER_A));
 8001e08:	1a9b      	subs	r3, r3, r2
 8001e0a:	b2db      	uxtb	r3, r3
                                                     REG_OFFSET_TAB_TIMER[iTimer]));
 8001e0c:	4904      	ldr	r1, [pc, #16]	@ (8001e20 <LL_HRTIM_TIM_SetFaultEventRollOverMode.constprop.0+0x2c>)
  __IO uint32_t *pReg = (__IO uint32_t *)((uint32_t)((uint32_t)(&HRTIMx->sTimerxRegs[0].TIMxCR2) +
 8001e0e:	4a05      	ldr	r2, [pc, #20]	@ (8001e24 <LL_HRTIM_TIM_SetFaultEventRollOverMode.constprop.0+0x30>)
                                                     REG_OFFSET_TAB_TIMER[iTimer]));
 8001e10:	f831 1013 	ldrh.w	r1, [r1, r3, lsl #1]
  MODIFY_REG(* pReg, HRTIM_TIMCR2_FEROM, (Mode << HRTIM_TIMCR2_FEROM_Pos));
 8001e14:	588b      	ldr	r3, [r1, r2]
 8001e16:	f423 4340 	bic.w	r3, r3, #49152	@ 0xc000
 8001e1a:	508b      	str	r3, [r1, r2]
}
 8001e1c:	4770      	bx	lr
 8001e1e:	bf00      	nop
 8001e20:	08007f5c 	.word	0x08007f5c
 8001e24:	400168ec 	.word	0x400168ec

08001e28 <LL_HRTIM_TIM_SetRollOverMode.constprop.0>:
   __ASM volatile ("rbit %0, %1" : "=r" (result) : "r" (value) );
 8001e28:	fa90 f3a0 	rbit	r3, r0
 8001e2c:	f44f 3200 	mov.w	r2, #131072	@ 0x20000
  return __builtin_clz(value);
 8001e30:	fab3 f383 	clz	r3, r3
   __ASM volatile ("rbit %0, %1" : "=r" (result) : "r" (value) );
 8001e34:	fa92 f2a2 	rbit	r2, r2
  return __builtin_clz(value);
 8001e38:	fab2 f282 	clz	r2, r2
  uint32_t iTimer = (uint8_t)(POSITION_VAL(Timer) - POSITION_VAL(LL_HRTIM_TIMER_A));
 8001e3c:	1a9b      	subs	r3, r3, r2
 8001e3e:	b2db      	uxtb	r3, r3
                                                     REG_OFFSET_TAB_TIMER[iTimer]));
 8001e40:	4904      	ldr	r1, [pc, #16]	@ (8001e54 <LL_HRTIM_TIM_SetRollOverMode.constprop.0+0x2c>)
  __IO uint32_t *pReg = (__IO uint32_t *)((uint32_t)((uint32_t)(&HRTIMx->sTimerxRegs[0].TIMxCR2) +
 8001e42:	4a05      	ldr	r2, [pc, #20]	@ (8001e58 <LL_HRTIM_TIM_SetRollOverMode.constprop.0+0x30>)
                                                     REG_OFFSET_TAB_TIMER[iTimer]));
 8001e44:	f831 1013 	ldrh.w	r1, [r1, r3, lsl #1]
  MODIFY_REG(* pReg, HRTIM_TIMCR2_ROM, (Mode << HRTIM_TIMCR2_ROM_Pos));
 8001e48:	588b      	ldr	r3, [r1, r2]
 8001e4a:	f023 03c0 	bic.w	r3, r3, #192	@ 0xc0
 8001e4e:	508b      	str	r3, [r1, r2]
}
 8001e50:	4770      	bx	lr
 8001e52:	bf00      	nop
 8001e54:	08007f5c 	.word	0x08007f5c
 8001e58:	400168ec 	.word	0x400168ec

08001e5c <LL_HRTIM_TIM_SetComp1Mode.constprop.0>:
   __ASM volatile ("rbit %0, %1" : "=r" (result) : "r" (value) );
 8001e5c:	fa90 f3a0 	rbit	r3, r0
 8001e60:	f44f 3200 	mov.w	r2, #131072	@ 0x20000
  return __builtin_clz(value);
 8001e64:	fab3 f383 	clz	r3, r3
   __ASM volatile ("rbit %0, %1" : "=r" (result) : "r" (value) );
 8001e68:	fa92 f2a2 	rbit	r2, r2
  return __builtin_clz(value);
 8001e6c:	fab2 f282 	clz	r2, r2
  uint32_t iTimer = (uint8_t)(POSITION_VAL(Timer) - POSITION_VAL(LL_HRTIM_TIMER_A));
 8001e70:	1a9b      	subs	r3, r3, r2
 8001e72:	b2db      	uxtb	r3, r3
                                                     REG_OFFSET_TAB_TIMER[iTimer]));
 8001e74:	4904      	ldr	r1, [pc, #16]	@ (8001e88 <LL_HRTIM_TIM_SetComp1Mode.constprop.0+0x2c>)
  __IO uint32_t *pReg = (__IO uint32_t *)((uint32_t)((uint32_t)(&HRTIMx->sTimerxRegs[0].TIMxCR2) +
 8001e76:	4a05      	ldr	r2, [pc, #20]	@ (8001e8c <LL_HRTIM_TIM_SetComp1Mode.constprop.0+0x30>)
                                                     REG_OFFSET_TAB_TIMER[iTimer]));
 8001e78:	f831 1013 	ldrh.w	r1, [r1, r3, lsl #1]
  MODIFY_REG(* pReg, HRTIM_TIMCR2_GTCMP1, Mode);
 8001e7c:	588b      	ldr	r3, [r1, r2]
 8001e7e:	f423 3380 	bic.w	r3, r3, #65536	@ 0x10000
 8001e82:	508b      	str	r3, [r1, r2]
}
 8001e84:	4770      	bx	lr
 8001e86:	bf00      	nop
 8001e88:	08007f5c 	.word	0x08007f5c
 8001e8c:	400168ec 	.word	0x400168ec

08001e90 <LL_HRTIM_TIM_EnableFault.constprop.0>:
   __ASM volatile ("rbit %0, %1" : "=r" (result) : "r" (value) );
 8001e90:	fa90 f3a0 	rbit	r3, r0
  return __builtin_clz(value);
 8001e94:	fab3 f383 	clz	r3, r3
  uint32_t iTimer = (uint8_t)(POSITION_VAL(Timer) - HRTIM_MCR_TACEN_Pos);
 8001e98:	3b11      	subs	r3, #17
 8001e9a:	b2db      	uxtb	r3, r3
                                                     REG_OFFSET_TAB_TIMER[iTimer]));
 8001e9c:	4904      	ldr	r1, [pc, #16]	@ (8001eb0 <LL_HRTIM_TIM_EnableFault.constprop.0+0x20>)
  __IO uint32_t *pReg = (__IO uint32_t *)((uint32_t)((uint32_t)(&HRTIMx->sTimerxRegs[0].FLTxR) +
 8001e9e:	4a05      	ldr	r2, [pc, #20]	@ (8001eb4 <LL_HRTIM_TIM_EnableFault.constprop.0+0x24>)
                                                     REG_OFFSET_TAB_TIMER[iTimer]));
 8001ea0:	f831 1013 	ldrh.w	r1, [r1, r3, lsl #1]
  SET_BIT(*pReg, Faults);
 8001ea4:	588b      	ldr	r3, [r1, r2]
 8001ea6:	f043 0301 	orr.w	r3, r3, #1
 8001eaa:	508b      	str	r3, [r1, r2]
}
 8001eac:	4770      	bx	lr
 8001eae:	bf00      	nop
 8001eb0:	08007f5c 	.word	0x08007f5c
 8001eb4:	400168e8 	.word	0x400168e8

08001eb8 <LL_HRTIM_TIM_EnableDeadTime.constprop.0>:
   __ASM volatile ("rbit %0, %1" : "=r" (result) : "r" (value) );
 8001eb8:	fa90 f3a0 	rbit	r3, r0
  return __builtin_clz(value);
 8001ebc:	fab3 f383 	clz	r3, r3
  uint32_t iTimer = (uint8_t)(POSITION_VAL(Timer) - HRTIM_MCR_TACEN_Pos);
 8001ec0:	3b11      	subs	r3, #17
 8001ec2:	b2db      	uxtb	r3, r3
                                                     REG_OFFSET_TAB_TIMER[iTimer]));
 8001ec4:	4904      	ldr	r1, [pc, #16]	@ (8001ed8 <LL_HRTIM_TIM_EnableDeadTime.constprop.0+0x20>)
  __IO uint32_t *pReg = (__IO uint32_t *)((uint32_t)((uint32_t)(&HRTIMx->sTimerxRegs[0].OUTxR) +
 8001ec6:	4a05      	ldr	r2, [pc, #20]	@ (8001edc <LL_HRTIM_TIM_EnableDeadTime.constprop.0+0x24>)
                                                     REG_OFFSET_TAB_TIMER[iTimer]));
 8001ec8:	f831 1013 	ldrh.w	r1, [r1, r3, lsl #1]
  SET_BIT(*pReg, HRTIM_OUTR_DTEN);
 8001ecc:	588b      	ldr	r3, [r1, r2]
 8001ece:	f443 7380 	orr.w	r3, r3, #256	@ 0x100
 8001ed2:	508b      	str	r3, [r1, r2]
}
 8001ed4:	4770      	bx	lr
 8001ed6:	bf00      	nop
 8001ed8:	08007f5c 	.word	0x08007f5c
 8001edc:	400168e4 	.word	0x400168e4

08001ee0 <LL_HRTIM_TIM_SetRepetition.constprop.0>:
   __ASM volatile ("rbit %0, %1" : "=r" (result) : "r" (value) );
 8001ee0:	fa90 f3a0 	rbit	r3, r0
  return __builtin_clz(value);
 8001ee4:	fab3 f383 	clz	r3, r3
  uint32_t iTimer = (uint8_t)(POSITION_VAL(Timer) - HRTIM_MCR_MCEN_Pos);
 8001ee8:	3b10      	subs	r3, #16
 8001eea:	b2db      	uxtb	r3, r3
                                                     REG_OFFSET_TAB_TIMER[iTimer]));
 8001eec:	4904      	ldr	r1, [pc, #16]	@ (8001f00 <LL_HRTIM_TIM_SetRepetition.constprop.0+0x20>)
  __IO uint32_t *pReg = (__IO uint32_t *)((uint32_t)((uint32_t)(&HRTIMx->sMasterRegs.MREP) +
 8001eee:	4a05      	ldr	r2, [pc, #20]	@ (8001f04 <LL_HRTIM_TIM_SetRepetition.constprop.0+0x24>)
                                                     REG_OFFSET_TAB_TIMER[iTimer]));
 8001ef0:	f831 1013 	ldrh.w	r1, [r1, r3, lsl #1]
  MODIFY_REG(* pReg, HRTIM_MREP_MREP, Repetition);
 8001ef4:	588b      	ldr	r3, [r1, r2]
 8001ef6:	f023 03ff 	bic.w	r3, r3, #255	@ 0xff
 8001efa:	508b      	str	r3, [r1, r2]
}
 8001efc:	4770      	bx	lr
 8001efe:	bf00      	nop
 8001f00:	08007f5c 	.word	0x08007f5c
 8001f04:	40016818 	.word	0x40016818

08001f08 <LL_HRTIM_TIM_SetPeriod.constprop.0>:
   __ASM volatile ("rbit %0, %1" : "=r" (result) : "r" (value) );
 8001f08:	fa90 f3a0 	rbit	r3, r0
  return __builtin_clz(value);
 8001f0c:	fab3 f383 	clz	r3, r3
  uint32_t iTimer = (uint8_t)(POSITION_VAL(Timer) - HRTIM_MCR_MCEN_Pos);
 8001f10:	3b10      	subs	r3, #16
 8001f12:	b2db      	uxtb	r3, r3
                                                     REG_OFFSET_TAB_TIMER[iTimer]));
 8001f14:	4906      	ldr	r1, [pc, #24]	@ (8001f30 <LL_HRTIM_TIM_SetPeriod.constprop.0+0x28>)
  __IO uint32_t *pReg = (__IO uint32_t *)((uint32_t)((uint32_t)(&HRTIMx->sMasterRegs.MPER) +
 8001f16:	4a07      	ldr	r2, [pc, #28]	@ (8001f34 <LL_HRTIM_TIM_SetPeriod.constprop.0+0x2c>)
                                                     REG_OFFSET_TAB_TIMER[iTimer]));
 8001f18:	f831 1013 	ldrh.w	r1, [r1, r3, lsl #1]
  MODIFY_REG(* pReg, HRTIM_MPER_MPER, Period);
 8001f1c:	588b      	ldr	r3, [r1, r2]
 8001f1e:	f36f 030f 	bfc	r3, #0, #16
 8001f22:	f443 4384 	orr.w	r3, r3, #16896	@ 0x4200
 8001f26:	f043 0368 	orr.w	r3, r3, #104	@ 0x68
 8001f2a:	508b      	str	r3, [r1, r2]
}
 8001f2c:	4770      	bx	lr
 8001f2e:	bf00      	nop
 8001f30:	08007f5c 	.word	0x08007f5c
 8001f34:	40016814 	.word	0x40016814

08001f38 <LL_HRTIM_TIM_DisablePushPullMode.constprop.0>:
   __ASM volatile ("rbit %0, %1" : "=r" (result) : "r" (value) );
 8001f38:	fa90 f3a0 	rbit	r3, r0
  return __builtin_clz(value);
 8001f3c:	fab3 f383 	clz	r3, r3
  uint32_t iTimer = (uint8_t)(POSITION_VAL(Timer) - HRTIM_MCR_TACEN_Pos);
 8001f40:	3b11      	subs	r3, #17
 8001f42:	b2db      	uxtb	r3, r3
                                                     REG_OFFSET_TAB_TIMER[iTimer]));
 8001f44:	4904      	ldr	r1, [pc, #16]	@ (8001f58 <LL_HRTIM_TIM_DisablePushPullMode.constprop.0+0x20>)
  __IO uint32_t *pReg = (__IO uint32_t *)((uint32_t)((uint32_t)(&HRTIMx->sTimerxRegs[0].TIMxCR) +
 8001f46:	4a05      	ldr	r2, [pc, #20]	@ (8001f5c <LL_HRTIM_TIM_DisablePushPullMode.constprop.0+0x24>)
                                                     REG_OFFSET_TAB_TIMER[iTimer]));
 8001f48:	f831 1013 	ldrh.w	r1, [r1, r3, lsl #1]
  CLEAR_BIT(*pReg, HRTIM_TIMCR_PSHPLL);
 8001f4c:	588b      	ldr	r3, [r1, r2]
 8001f4e:	f023 0340 	bic.w	r3, r3, #64	@ 0x40
 8001f52:	508b      	str	r3, [r1, r2]
}
 8001f54:	4770      	bx	lr
 8001f56:	bf00      	nop
 8001f58:	08007f5c 	.word	0x08007f5c
 8001f5c:	40016880 	.word	0x40016880

08001f60 <LL_HRTIM_TIM_SetUpdateGating.constprop.0>:
   __ASM volatile ("rbit %0, %1" : "=r" (result) : "r" (value) );
 8001f60:	fa90 f3a0 	rbit	r3, r0
  return __builtin_clz(value);
 8001f64:	fab3 f383 	clz	r3, r3
  uint32_t iTimer = (uint8_t)(POSITION_VAL(Timer) - HRTIM_MCR_MCEN_Pos);
 8001f68:	3b10      	subs	r3, #16
 8001f6a:	b2db      	uxtb	r3, r3
  __IO uint32_t *pReg = (__IO uint32_t *)((uint32_t)((uint32_t)(&HRTIMx->sMasterRegs.MCR) + REG_OFFSET_TAB_TIMER[iTimer]));
 8001f6c:	4a07      	ldr	r2, [pc, #28]	@ (8001f8c <LL_HRTIM_TIM_SetUpdateGating.constprop.0+0x2c>)
  MODIFY_REG(*pReg, REG_MASK_TAB_UPDATEGATING[iTimer], (UpdateGating << REG_SHIFT_TAB_UPDATEGATING[iTimer]));
 8001f6e:	4908      	ldr	r1, [pc, #32]	@ (8001f90 <LL_HRTIM_TIM_SetUpdateGating.constprop.0+0x30>)
  __IO uint32_t *pReg = (__IO uint32_t *)((uint32_t)((uint32_t)(&HRTIMx->sMasterRegs.MCR) + REG_OFFSET_TAB_TIMER[iTimer]));
 8001f70:	f832 2013 	ldrh.w	r2, [r2, r3, lsl #1]
  MODIFY_REG(*pReg, REG_MASK_TAB_UPDATEGATING[iTimer], (UpdateGating << REG_SHIFT_TAB_UPDATEGATING[iTimer]));
 8001f74:	f851 1023 	ldr.w	r1, [r1, r3, lsl #2]
  __IO uint32_t *pReg = (__IO uint32_t *)((uint32_t)((uint32_t)(&HRTIMx->sMasterRegs.MCR) + REG_OFFSET_TAB_TIMER[iTimer]));
 8001f78:	f102 4380 	add.w	r3, r2, #1073741824	@ 0x40000000
 8001f7c:	f503 33b4 	add.w	r3, r3, #92160	@ 0x16800
  MODIFY_REG(*pReg, REG_MASK_TAB_UPDATEGATING[iTimer], (UpdateGating << REG_SHIFT_TAB_UPDATEGATING[iTimer]));
 8001f80:	681a      	ldr	r2, [r3, #0]
 8001f82:	ea22 0201 	bic.w	r2, r2, r1
 8001f86:	601a      	str	r2, [r3, #0]
}
 8001f88:	4770      	bx	lr
 8001f8a:	bf00      	nop
 8001f8c:	08007f5c 	.word	0x08007f5c
 8001f90:	08007ee0 	.word	0x08007ee0

08001f94 <LL_HRTIM_TIM_SetUpdateTrig.constprop.0>:
__STATIC_INLINE void LL_HRTIM_TIM_SetUpdateTrig(HRTIM_TypeDef *HRTIMx, uint32_t Timer, uint32_t UpdateTrig)
 8001f94:	b430      	push	{r4, r5}
   __ASM volatile ("rbit %0, %1" : "=r" (result) : "r" (value) );
 8001f96:	fa90 f3a0 	rbit	r3, r0
  return __builtin_clz(value);
 8001f9a:	fab3 f383 	clz	r3, r3
  uint32_t iTimer = (uint8_t)(POSITION_VAL(Timer) - HRTIM_MCR_MCEN_Pos);
 8001f9e:	3b10      	subs	r3, #16
 8001fa0:	b2db      	uxtb	r3, r3
  __IO uint32_t *pReg = (__IO uint32_t *)((uint32_t)((uint32_t)(&HRTIMx->sMasterRegs.MCR) + REG_OFFSET_TAB_TIMER[iTimer]));
 8001fa2:	4a0b      	ldr	r2, [pc, #44]	@ (8001fd0 <LL_HRTIM_TIM_SetUpdateTrig.constprop.0+0x3c>)
  MODIFY_REG(*pReg, REG_MASK_TAB_UPDATETRIG[iTimer], UpdateTrig << REG_SHIFT_TAB_UPDATETRIG[iTimer]);
 8001fa4:	480b      	ldr	r0, [pc, #44]	@ (8001fd4 <LL_HRTIM_TIM_SetUpdateTrig.constprop.0+0x40>)
  __IO uint32_t *pReg = (__IO uint32_t *)((uint32_t)((uint32_t)(&HRTIMx->sMasterRegs.MCR) + REG_OFFSET_TAB_TIMER[iTimer]));
 8001fa6:	f832 2013 	ldrh.w	r2, [r2, r3, lsl #1]
  MODIFY_REG(*pReg, REG_MASK_TAB_UPDATETRIG[iTimer], UpdateTrig << REG_SHIFT_TAB_UPDATETRIG[iTimer]);
 8001faa:	4d0b      	ldr	r5, [pc, #44]	@ (8001fd8 <LL_HRTIM_TIM_SetUpdateTrig.constprop.0+0x44>)
 8001fac:	f850 4023 	ldr.w	r4, [r0, r3, lsl #2]
 8001fb0:	f815 c003 	ldrb.w	ip, [r5, r3]
  __IO uint32_t *pReg = (__IO uint32_t *)((uint32_t)((uint32_t)(&HRTIMx->sMasterRegs.MCR) + REG_OFFSET_TAB_TIMER[iTimer]));
 8001fb4:	f102 4280 	add.w	r2, r2, #1073741824	@ 0x40000000
 8001fb8:	f502 32b4 	add.w	r2, r2, #92160	@ 0x16800
  MODIFY_REG(*pReg, REG_MASK_TAB_UPDATETRIG[iTimer], UpdateTrig << REG_SHIFT_TAB_UPDATETRIG[iTimer]);
 8001fbc:	fa01 f10c 	lsl.w	r1, r1, ip
 8001fc0:	6810      	ldr	r0, [r2, #0]
 8001fc2:	ea20 0304 	bic.w	r3, r0, r4
 8001fc6:	4319      	orrs	r1, r3
}
 8001fc8:	bc30      	pop	{r4, r5}
  MODIFY_REG(*pReg, REG_MASK_TAB_UPDATETRIG[iTimer], UpdateTrig << REG_SHIFT_TAB_UPDATETRIG[iTimer]);
 8001fca:	6011      	str	r1, [r2, #0]
}
 8001fcc:	4770      	bx	lr
 8001fce:	bf00      	nop
 8001fd0:	08007f5c 	.word	0x08007f5c
 8001fd4:	08007f04 	.word	0x08007f04
 8001fd8:	08007efc 	.word	0x08007efc

08001fdc <LL_HRTIM_TIM_EnablePreload.constprop.0>:
   __ASM volatile ("rbit %0, %1" : "=r" (result) : "r" (value) );
 8001fdc:	fa90 f3a0 	rbit	r3, r0
  return __builtin_clz(value);
 8001fe0:	fab3 f383 	clz	r3, r3
  uint32_t iTimer = (uint8_t)(POSITION_VAL(Timer) - HRTIM_MCR_MCEN_Pos);
 8001fe4:	3b10      	subs	r3, #16
  __IO uint32_t *pReg = (__IO uint32_t *)((uint32_t)((uint32_t)(&HRTIMx->sMasterRegs.MCR) + REG_OFFSET_TAB_TIMER[iTimer]));
 8001fe6:	4a06      	ldr	r2, [pc, #24]	@ (8002000 <LL_HRTIM_TIM_EnablePreload.constprop.0+0x24>)
  uint32_t iTimer = (uint8_t)(POSITION_VAL(Timer) - HRTIM_MCR_MCEN_Pos);
 8001fe8:	b2db      	uxtb	r3, r3
  __IO uint32_t *pReg = (__IO uint32_t *)((uint32_t)((uint32_t)(&HRTIMx->sMasterRegs.MCR) + REG_OFFSET_TAB_TIMER[iTimer]));
 8001fea:	f832 3013 	ldrh.w	r3, [r2, r3, lsl #1]
 8001fee:	f103 4380 	add.w	r3, r3, #1073741824	@ 0x40000000
 8001ff2:	f503 33b4 	add.w	r3, r3, #92160	@ 0x16800
  SET_BIT(*pReg, HRTIM_MCR_PREEN);
 8001ff6:	681a      	ldr	r2, [r3, #0]
 8001ff8:	f042 6200 	orr.w	r2, r2, #134217728	@ 0x8000000
 8001ffc:	601a      	str	r2, [r3, #0]
}
 8001ffe:	4770      	bx	lr
 8002000:	08007f5c 	.word	0x08007f5c

08002004 <LL_HRTIM_TIM_SetDACTrig.constprop.0>:
   __ASM volatile ("rbit %0, %1" : "=r" (result) : "r" (value) );
 8002004:	fa90 f3a0 	rbit	r3, r0
  return __builtin_clz(value);
 8002008:	fab3 f383 	clz	r3, r3
  uint32_t iTimer = (uint8_t)(POSITION_VAL(Timer) - HRTIM_MCR_MCEN_Pos);
 800200c:	3b10      	subs	r3, #16
  __IO uint32_t *pReg = (__IO uint32_t *)((uint32_t)((uint32_t)(&HRTIMx->sMasterRegs.MCR) + REG_OFFSET_TAB_TIMER[iTimer]));
 800200e:	4a06      	ldr	r2, [pc, #24]	@ (8002028 <LL_HRTIM_TIM_SetDACTrig.constprop.0+0x24>)
  uint32_t iTimer = (uint8_t)(POSITION_VAL(Timer) - HRTIM_MCR_MCEN_Pos);
 8002010:	b2db      	uxtb	r3, r3
  __IO uint32_t *pReg = (__IO uint32_t *)((uint32_t)((uint32_t)(&HRTIMx->sMasterRegs.MCR) + REG_OFFSET_TAB_TIMER[iTimer]));
 8002012:	f832 3013 	ldrh.w	r3, [r2, r3, lsl #1]
 8002016:	f103 4380 	add.w	r3, r3, #1073741824	@ 0x40000000
 800201a:	f503 33b4 	add.w	r3, r3, #92160	@ 0x16800
  MODIFY_REG(*pReg, HRTIM_MCR_DACSYNC, DACTrig);
 800201e:	681a      	ldr	r2, [r3, #0]
 8002020:	f022 62c0 	bic.w	r2, r2, #100663296	@ 0x6000000
 8002024:	601a      	str	r2, [r3, #0]
}
 8002026:	4770      	bx	lr
 8002028:	08007f5c 	.word	0x08007f5c

0800202c <LL_HRTIM_TIM_DisableResetOnSync.constprop.0>:
   __ASM volatile ("rbit %0, %1" : "=r" (result) : "r" (value) );
 800202c:	fa90 f3a0 	rbit	r3, r0
  return __builtin_clz(value);
 8002030:	fab3 f383 	clz	r3, r3
  uint32_t iTimer = (uint8_t)(POSITION_VAL(Timer) - HRTIM_MCR_MCEN_Pos);
 8002034:	3b10      	subs	r3, #16
  __IO uint32_t *pReg = (__IO uint32_t *)((uint32_t)((uint32_t)(&HRTIMx->sMasterRegs.MCR) + REG_OFFSET_TAB_TIMER[iTimer]));
 8002036:	4a06      	ldr	r2, [pc, #24]	@ (8002050 <LL_HRTIM_TIM_DisableResetOnSync.constprop.0+0x24>)
  uint32_t iTimer = (uint8_t)(POSITION_VAL(Timer) - HRTIM_MCR_MCEN_Pos);
 8002038:	b2db      	uxtb	r3, r3
  __IO uint32_t *pReg = (__IO uint32_t *)((uint32_t)((uint32_t)(&HRTIMx->sMasterRegs.MCR) + REG_OFFSET_TAB_TIMER[iTimer]));
 800203a:	f832 3013 	ldrh.w	r3, [r2, r3, lsl #1]
 800203e:	f103 4380 	add.w	r3, r3, #1073741824	@ 0x40000000
 8002042:	f503 33b4 	add.w	r3, r3, #92160	@ 0x16800
  CLEAR_BIT(*pReg, HRTIM_MCR_SYNCRSTM);
 8002046:	681a      	ldr	r2, [r3, #0]
 8002048:	f422 6280 	bic.w	r2, r2, #1024	@ 0x400
 800204c:	601a      	str	r2, [r3, #0]
}
 800204e:	4770      	bx	lr
 8002050:	08007f5c 	.word	0x08007f5c

08002054 <LL_HRTIM_TIM_DisableStartOnSync.constprop.0>:
   __ASM volatile ("rbit %0, %1" : "=r" (result) : "r" (value) );
 8002054:	fa90 f3a0 	rbit	r3, r0
  return __builtin_clz(value);
 8002058:	fab3 f383 	clz	r3, r3
  uint32_t iTimer = (uint8_t)(POSITION_VAL(Timer) - HRTIM_MCR_MCEN_Pos);
 800205c:	3b10      	subs	r3, #16
  __IO uint32_t *pReg = (__IO uint32_t *)((uint32_t)((uint32_t)(&HRTIMx->sMasterRegs.MCR) + REG_OFFSET_TAB_TIMER[iTimer]));
 800205e:	4a06      	ldr	r2, [pc, #24]	@ (8002078 <LL_HRTIM_TIM_DisableStartOnSync.constprop.0+0x24>)
  uint32_t iTimer = (uint8_t)(POSITION_VAL(Timer) - HRTIM_MCR_MCEN_Pos);
 8002060:	b2db      	uxtb	r3, r3
  __IO uint32_t *pReg = (__IO uint32_t *)((uint32_t)((uint32_t)(&HRTIMx->sMasterRegs.MCR) + REG_OFFSET_TAB_TIMER[iTimer]));
 8002062:	f832 3013 	ldrh.w	r3, [r2, r3, lsl #1]
 8002066:	f103 4380 	add.w	r3, r3, #1073741824	@ 0x40000000
 800206a:	f503 33b4 	add.w	r3, r3, #92160	@ 0x16800
  CLEAR_BIT(*pReg, HRTIM_MCR_SYNCSTRTM);
 800206e:	681a      	ldr	r2, [r3, #0]
 8002070:	f422 6200 	bic.w	r2, r2, #2048	@ 0x800
 8002074:	601a      	str	r2, [r3, #0]
}
 8002076:	4770      	bx	lr
 8002078:	08007f5c 	.word	0x08007f5c

0800207c <LL_HRTIM_TIM_SetInterleavedMode.constprop.0>:
   __ASM volatile ("rbit %0, %1" : "=r" (result) : "r" (value) );
 800207c:	fa90 f3a0 	rbit	r3, r0
  return __builtin_clz(value);
 8002080:	fab3 f383 	clz	r3, r3
  uint32_t iTimer = (uint8_t)(POSITION_VAL(Timer) - HRTIM_MCR_MCEN_Pos);
 8002084:	3b10      	subs	r3, #16
 8002086:	b2db      	uxtb	r3, r3
  __IO uint32_t *pReg = (__IO uint32_t *)((uint32_t)((uint32_t)(&HRTIMx->sMasterRegs.MCR) + REG_OFFSET_TAB_TIMER[iTimer]));
 8002088:	4a07      	ldr	r2, [pc, #28]	@ (80020a8 <LL_HRTIM_TIM_SetInterleavedMode.constprop.0+0x2c>)
  MODIFY_REG(*pReg, REG_MASK_TAB_INTLVD[iTimer],
 800208a:	4908      	ldr	r1, [pc, #32]	@ (80020ac <LL_HRTIM_TIM_SetInterleavedMode.constprop.0+0x30>)
  __IO uint32_t *pReg = (__IO uint32_t *)((uint32_t)((uint32_t)(&HRTIMx->sMasterRegs.MCR) + REG_OFFSET_TAB_TIMER[iTimer]));
 800208c:	f832 2013 	ldrh.w	r2, [r2, r3, lsl #1]
  MODIFY_REG(*pReg, REG_MASK_TAB_INTLVD[iTimer],
 8002090:	f851 1023 	ldr.w	r1, [r1, r3, lsl #2]
  __IO uint32_t *pReg = (__IO uint32_t *)((uint32_t)((uint32_t)(&HRTIMx->sMasterRegs.MCR) + REG_OFFSET_TAB_TIMER[iTimer]));
 8002094:	f102 4380 	add.w	r3, r2, #1073741824	@ 0x40000000
 8002098:	f503 33b4 	add.w	r3, r3, #92160	@ 0x16800
  MODIFY_REG(*pReg, REG_MASK_TAB_INTLVD[iTimer],
 800209c:	681a      	ldr	r2, [r3, #0]
 800209e:	ea22 0201 	bic.w	r2, r2, r1
 80020a2:	601a      	str	r2, [r3, #0]
}
 80020a4:	4770      	bx	lr
 80020a6:	bf00      	nop
 80020a8:	08007f5c 	.word	0x08007f5c
 80020ac:	08007e98 	.word	0x08007e98

080020b0 <LL_HRTIM_TIM_DisableResyncUpdate.constprop.0>:
   __ASM volatile ("rbit %0, %1" : "=r" (result) : "r" (value) );
 80020b0:	fa90 f3a0 	rbit	r3, r0
  return __builtin_clz(value);
 80020b4:	fab3 f383 	clz	r3, r3
  uint32_t iTimer = (uint8_t)(POSITION_VAL(Timer) - HRTIM_MCR_TACEN_Pos);
 80020b8:	3b11      	subs	r3, #17
 80020ba:	b2db      	uxtb	r3, r3
                                                     REG_OFFSET_TAB_TIMER[iTimer]));
 80020bc:	4904      	ldr	r1, [pc, #16]	@ (80020d0 <LL_HRTIM_TIM_DisableResyncUpdate.constprop.0+0x20>)
  __IO uint32_t *pReg = (__IO uint32_t *)((uint32_t)((uint32_t)(&HRTIMx->sTimerxRegs[0].TIMxCR) +
 80020be:	4a05      	ldr	r2, [pc, #20]	@ (80020d4 <LL_HRTIM_TIM_DisableResyncUpdate.constprop.0+0x24>)
                                                     REG_OFFSET_TAB_TIMER[iTimer]));
 80020c0:	f831 1013 	ldrh.w	r1, [r1, r3, lsl #1]
  CLEAR_BIT(*pReg, HRTIM_TIMCR_RSYNCU);
 80020c4:	588b      	ldr	r3, [r1, r2]
 80020c6:	f423 7300 	bic.w	r3, r3, #512	@ 0x200
 80020ca:	508b      	str	r3, [r1, r2]
}
 80020cc:	4770      	bx	lr
 80020ce:	bf00      	nop
 80020d0:	08007f5c 	.word	0x08007f5c
 80020d4:	40016880 	.word	0x40016880

080020d8 <LL_HRTIM_TIM_DisableHalfMode.constprop.0>:
   __ASM volatile ("rbit %0, %1" : "=r" (result) : "r" (value) );
 80020d8:	fa90 f3a0 	rbit	r3, r0
  return __builtin_clz(value);
 80020dc:	fab3 f383 	clz	r3, r3
  uint32_t iTimer = (uint8_t)(POSITION_VAL(Timer) - HRTIM_MCR_MCEN_Pos);
 80020e0:	3b10      	subs	r3, #16
 80020e2:	b2db      	uxtb	r3, r3
  __IO uint32_t *pReg = (__IO uint32_t *)((uint32_t)((uint32_t)(&HRTIMx->sMasterRegs.MCR) + REG_OFFSET_TAB_TIMER[iTimer]));
 80020e4:	4a09      	ldr	r2, [pc, #36]	@ (800210c <LL_HRTIM_TIM_DisableHalfMode.constprop.0+0x34>)
  CLEAR_BIT(*pReg, HRTIM_MCR_INTLVD << REG_SHIFT_TAB_INTLVD[iTimer]);
 80020e6:	490a      	ldr	r1, [pc, #40]	@ (8002110 <LL_HRTIM_TIM_DisableHalfMode.constprop.0+0x38>)
  __IO uint32_t *pReg = (__IO uint32_t *)((uint32_t)((uint32_t)(&HRTIMx->sMasterRegs.MCR) + REG_OFFSET_TAB_TIMER[iTimer]));
 80020e8:	f832 2013 	ldrh.w	r2, [r2, r3, lsl #1]
  CLEAR_BIT(*pReg, HRTIM_MCR_INTLVD << REG_SHIFT_TAB_INTLVD[iTimer]);
 80020ec:	5cc8      	ldrb	r0, [r1, r3]
  __IO uint32_t *pReg = (__IO uint32_t *)((uint32_t)((uint32_t)(&HRTIMx->sMasterRegs.MCR) + REG_OFFSET_TAB_TIMER[iTimer]));
 80020ee:	f102 4380 	add.w	r3, r2, #1073741824	@ 0x40000000
 80020f2:	f503 33b4 	add.w	r3, r3, #92160	@ 0x16800
  CLEAR_BIT(*pReg, HRTIM_MCR_INTLVD << REG_SHIFT_TAB_INTLVD[iTimer]);
 80020f6:	21c0      	movs	r1, #192	@ 0xc0
  CLEAR_BIT(*pReg, HRTIM_MCR_HALF);
 80020f8:	681a      	ldr	r2, [r3, #0]
 80020fa:	f022 0220 	bic.w	r2, r2, #32
 80020fe:	601a      	str	r2, [r3, #0]
  CLEAR_BIT(*pReg, HRTIM_MCR_INTLVD << REG_SHIFT_TAB_INTLVD[iTimer]);
 8002100:	681a      	ldr	r2, [r3, #0]
 8002102:	4081      	lsls	r1, r0
 8002104:	ea22 0201 	bic.w	r2, r2, r1
 8002108:	601a      	str	r2, [r3, #0]
}
 800210a:	4770      	bx	lr
 800210c:	08007f5c 	.word	0x08007f5c
 8002110:	08007eb4 	.word	0x08007eb4

08002114 <LL_HRTIM_TIM_SetCounterMode.constprop.0>:
   __ASM volatile ("rbit %0, %1" : "=r" (result) : "r" (value) );
 8002114:	fa90 f3a0 	rbit	r3, r0
  return __builtin_clz(value);
 8002118:	fab3 f383 	clz	r3, r3
  uint32_t iTimer = (uint8_t)(POSITION_VAL(Timer) - HRTIM_MCR_MCEN_Pos);
 800211c:	3b10      	subs	r3, #16
  __IO uint32_t *pReg = (__IO uint32_t *)((uint32_t)((uint32_t)(&HRTIMx->sMasterRegs.MCR) + REG_OFFSET_TAB_TIMER[iTimer]));
 800211e:	4a07      	ldr	r2, [pc, #28]	@ (800213c <LL_HRTIM_TIM_SetCounterMode.constprop.0+0x28>)
  uint32_t iTimer = (uint8_t)(POSITION_VAL(Timer) - HRTIM_MCR_MCEN_Pos);
 8002120:	b2db      	uxtb	r3, r3
  __IO uint32_t *pReg = (__IO uint32_t *)((uint32_t)((uint32_t)(&HRTIMx->sMasterRegs.MCR) + REG_OFFSET_TAB_TIMER[iTimer]));
 8002122:	f832 3013 	ldrh.w	r3, [r2, r3, lsl #1]
 8002126:	f103 4380 	add.w	r3, r3, #1073741824	@ 0x40000000
 800212a:	f503 33b4 	add.w	r3, r3, #92160	@ 0x16800
  MODIFY_REG(*pReg, (HRTIM_TIMCR_RETRIG | HRTIM_MCR_CONT), Mode);
 800212e:	681a      	ldr	r2, [r3, #0]
 8002130:	f022 0218 	bic.w	r2, r2, #24
 8002134:	f042 0208 	orr.w	r2, r2, #8
 8002138:	601a      	str	r2, [r3, #0]
}
 800213a:	4770      	bx	lr
 800213c:	08007f5c 	.word	0x08007f5c

08002140 <LL_HRTIM_TIM_SetPrescaler.constprop.0>:
   __ASM volatile ("rbit %0, %1" : "=r" (result) : "r" (value) );
 8002140:	fa90 f0a0 	rbit	r0, r0
  return __builtin_clz(value);
 8002144:	fab0 f080 	clz	r0, r0
  uint32_t iTimer = (uint8_t)(POSITION_VAL(Timer) - HRTIM_MCR_MCEN_Pos);
 8002148:	3810      	subs	r0, #16
  __IO uint32_t *pReg = (__IO uint32_t *)((uint32_t)((uint32_t)(&HRTIMx->sMasterRegs.MCR) + REG_OFFSET_TAB_TIMER[iTimer]));
 800214a:	4b07      	ldr	r3, [pc, #28]	@ (8002168 <LL_HRTIM_TIM_SetPrescaler.constprop.0+0x28>)
  uint32_t iTimer = (uint8_t)(POSITION_VAL(Timer) - HRTIM_MCR_MCEN_Pos);
 800214c:	b2c0      	uxtb	r0, r0
  __IO uint32_t *pReg = (__IO uint32_t *)((uint32_t)((uint32_t)(&HRTIMx->sMasterRegs.MCR) + REG_OFFSET_TAB_TIMER[iTimer]));
 800214e:	f833 3010 	ldrh.w	r3, [r3, r0, lsl #1]
 8002152:	f103 4380 	add.w	r3, r3, #1073741824	@ 0x40000000
 8002156:	f503 33b4 	add.w	r3, r3, #92160	@ 0x16800
  MODIFY_REG(*pReg, HRTIM_MCR_CK_PSC, Prescaler);
 800215a:	681a      	ldr	r2, [r3, #0]
 800215c:	f022 0207 	bic.w	r2, r2, #7
 8002160:	4311      	orrs	r1, r2
 8002162:	6019      	str	r1, [r3, #0]
}
 8002164:	4770      	bx	lr
 8002166:	bf00      	nop
 8002168:	08007f5c 	.word	0x08007f5c

0800216c <NVIC_EncodePriority.constprop.0>:
{
  uint32_t PriorityGroupTmp = (PriorityGroup & (uint32_t)0x07UL);   /* only values 0..7 are used          */
  uint32_t PreemptPriorityBits;
  uint32_t SubPriorityBits;

  PreemptPriorityBits = ((7UL - PriorityGroupTmp) > (uint32_t)(__NVIC_PRIO_BITS)) ? (uint32_t)(__NVIC_PRIO_BITS) : (uint32_t)(7UL - PriorityGroupTmp);
 800216c:	f1c0 0207 	rsb	r2, r0, #7
  SubPriorityBits     = ((PriorityGroupTmp + (uint32_t)(__NVIC_PRIO_BITS)) < (uint32_t)7UL) ? (uint32_t)0UL : (uint32_t)((PriorityGroupTmp - 7UL) + (uint32_t)(__NVIC_PRIO_BITS));
 8002170:	1d03      	adds	r3, r0, #4
  PreemptPriorityBits = ((7UL - PriorityGroupTmp) > (uint32_t)(__NVIC_PRIO_BITS)) ? (uint32_t)(__NVIC_PRIO_BITS) : (uint32_t)(7UL - PriorityGroupTmp);
 8002172:	2a04      	cmp	r2, #4
 8002174:	bf28      	it	cs
 8002176:	2204      	movcs	r2, #4
  SubPriorityBits     = ((PriorityGroupTmp + (uint32_t)(__NVIC_PRIO_BITS)) < (uint32_t)7UL) ? (uint32_t)0UL : (uint32_t)((PriorityGroupTmp - 7UL) + (uint32_t)(__NVIC_PRIO_BITS));
 8002178:	2b06      	cmp	r3, #6

  return (
           ((PreemptPriority & (uint32_t)((1UL << (PreemptPriorityBits)) - 1UL)) << SubPriorityBits) |
 800217a:	f04f 33ff 	mov.w	r3, #4294967295
 800217e:	fa03 f302 	lsl.w	r3, r3, r2
  SubPriorityBits     = ((PriorityGroupTmp + (uint32_t)(__NVIC_PRIO_BITS)) < (uint32_t)7UL) ? (uint32_t)0UL : (uint32_t)((PriorityGroupTmp - 7UL) + (uint32_t)(__NVIC_PRIO_BITS));
 8002182:	bf8c      	ite	hi
 8002184:	3803      	subhi	r0, #3
 8002186:	2000      	movls	r0, #0
           ((PreemptPriority & (uint32_t)((1UL << (PreemptPriorityBits)) - 1UL)) << SubPriorityBits) |
 8002188:	ea21 0103 	bic.w	r1, r1, r3
           ((SubPriority     & (uint32_t)((1UL << (SubPriorityBits    )) - 1UL)))
         );
}
 800218c:	fa01 f000 	lsl.w	r0, r1, r0
 8002190:	4770      	bx	lr
 8002192:	bf00      	nop

08002194 <SystemClock_Config>:
  *         (*) value not defined in all devices.
  * @retval None
  */
__STATIC_INLINE void LL_FLASH_SetLatency(uint32_t Latency)
{
  MODIFY_REG(FLASH->ACR, FLASH_ACR_LATENCY, Latency);
 8002194:	4a35      	ldr	r2, [pc, #212]	@ (800226c <SystemClock_Config+0xd8>)
/**
  * @brief System Clock Configuration
  * @retval None
  */
void SystemClock_Config(void)
{
 8002196:	b500      	push	{lr}
 8002198:	6813      	ldr	r3, [r2, #0]
 800219a:	f023 030f 	bic.w	r3, r3, #15
 800219e:	f043 0304 	orr.w	r3, r3, #4
 80021a2:	b083      	sub	sp, #12
 80021a4:	6013      	str	r3, [r2, #0]
  *
  *         (*) value not defined in all devices.
  */
__STATIC_INLINE uint32_t LL_FLASH_GetLatency(void)
{
  return (uint32_t)(READ_BIT(FLASH->ACR, FLASH_ACR_LATENCY));
 80021a6:	6813      	ldr	r3, [r2, #0]
 80021a8:	f003 030f 	and.w	r3, r3, #15
  LL_FLASH_SetLatency(LL_FLASH_LATENCY_4);
  while(LL_FLASH_GetLatency() != LL_FLASH_LATENCY_4)
 80021ac:	2b04      	cmp	r3, #4
 80021ae:	d1fa      	bne.n	80021a6 <SystemClock_Config+0x12>
  * @rmtoll CR5          R1MODE        LL_PWR_EnableRange1BoostMode
  * @retval None
  */
__STATIC_INLINE void LL_PWR_EnableRange1BoostMode(void)
{
  CLEAR_BIT(PWR->CR5, PWR_CR5_R1MODE);
 80021b0:	492f      	ldr	r1, [pc, #188]	@ (8002270 <SystemClock_Config+0xdc>)
  * @rmtoll CR           HSEON         LL_RCC_HSE_Enable
  * @retval None
  */
__STATIC_INLINE void LL_RCC_HSE_Enable(void)
{
  SET_BIT(RCC->CR, RCC_CR_HSEON);
 80021b2:	4a30      	ldr	r2, [pc, #192]	@ (8002274 <SystemClock_Config+0xe0>)
 80021b4:	f8d1 3080 	ldr.w	r3, [r1, #128]	@ 0x80
 80021b8:	f423 7380 	bic.w	r3, r3, #256	@ 0x100
 80021bc:	f8c1 3080 	str.w	r3, [r1, #128]	@ 0x80
 80021c0:	6813      	ldr	r3, [r2, #0]
 80021c2:	f443 3380 	orr.w	r3, r3, #65536	@ 0x10000
 80021c6:	6013      	str	r3, [r2, #0]
  * @rmtoll CR           HSERDY        LL_RCC_HSE_IsReady
  * @retval State of bit (1 or 0).
  */
__STATIC_INLINE uint32_t LL_RCC_HSE_IsReady(void)
{
  return ((READ_BIT(RCC->CR, RCC_CR_HSERDY) == (RCC_CR_HSERDY)) ? 1UL : 0UL);
 80021c8:	6813      	ldr	r3, [r2, #0]
 80021ca:	0399      	lsls	r1, r3, #14
 80021cc:	d5fc      	bpl.n	80021c8 <SystemClock_Config+0x34>
  * @rmtoll CSR          LSION         LL_RCC_LSI_Enable
  * @retval None
  */
__STATIC_INLINE void LL_RCC_LSI_Enable(void)
{
  SET_BIT(RCC->CSR, RCC_CSR_LSION);
 80021ce:	f8d2 1094 	ldr.w	r1, [r2, #148]	@ 0x94
  * @rmtoll CSR          LSIRDY        LL_RCC_LSI_IsReady
  * @retval State of bit (1 or 0).
  */
__STATIC_INLINE uint32_t LL_RCC_LSI_IsReady(void)
{
  return ((READ_BIT(RCC->CSR, RCC_CSR_LSIRDY) == (RCC_CSR_LSIRDY)) ? 1UL : 0UL);
 80021d2:	4b28      	ldr	r3, [pc, #160]	@ (8002274 <SystemClock_Config+0xe0>)
  SET_BIT(RCC->CSR, RCC_CSR_LSION);
 80021d4:	f041 0101 	orr.w	r1, r1, #1
 80021d8:	f8c2 1094 	str.w	r1, [r2, #148]	@ 0x94
  return ((READ_BIT(RCC->CSR, RCC_CSR_LSIRDY) == (RCC_CSR_LSIRDY)) ? 1UL : 0UL);
 80021dc:	f8d3 2094 	ldr.w	r2, [r3, #148]	@ 0x94
 80021e0:	0792      	lsls	r2, r2, #30
 80021e2:	d5fb      	bpl.n	80021dc <SystemClock_Config+0x48>
  *         @arg @ref LL_RCC_PLLR_DIV_8
  * @retval None
  */
__STATIC_INLINE void LL_RCC_PLL_ConfigDomain_SYS(uint32_t Source, uint32_t PLLM, uint32_t PLLN, uint32_t PLLR)
{
  MODIFY_REG(RCC->PLLCFGR, RCC_PLLCFGR_PLLSRC | RCC_PLLCFGR_PLLM | RCC_PLLCFGR_PLLN | RCC_PLLCFGR_PLLR,
 80021e4:	68d8      	ldr	r0, [r3, #12]
 80021e6:	4a24      	ldr	r2, [pc, #144]	@ (8002278 <SystemClock_Config+0xe4>)
  return ((READ_BIT(RCC->CR, RCC_CR_PLLRDY) == (RCC_CR_PLLRDY)) ? 1UL : 0UL);
 80021e8:	4922      	ldr	r1, [pc, #136]	@ (8002274 <SystemClock_Config+0xe0>)
  MODIFY_REG(RCC->PLLCFGR, RCC_PLLCFGR_PLLSRC | RCC_PLLCFGR_PLLM | RCC_PLLCFGR_PLLN | RCC_PLLCFGR_PLLR,
 80021ea:	4002      	ands	r2, r0
 80021ec:	f442 42aa 	orr.w	r2, r2, #21760	@ 0x5500
 80021f0:	f042 0253 	orr.w	r2, r2, #83	@ 0x53
 80021f4:	60da      	str	r2, [r3, #12]
  * @rmtoll PLLCFGR      PLLREN        LL_RCC_PLL_EnableDomain_SYS
  * @retval None
  */
__STATIC_INLINE void LL_RCC_PLL_EnableDomain_SYS(void)
{
  SET_BIT(RCC->PLLCFGR, RCC_PLLCFGR_PLLREN);
 80021f6:	68da      	ldr	r2, [r3, #12]
 80021f8:	f042 7280 	orr.w	r2, r2, #16777216	@ 0x1000000
 80021fc:	60da      	str	r2, [r3, #12]
  SET_BIT(RCC->CR, RCC_CR_PLLON);
 80021fe:	681a      	ldr	r2, [r3, #0]
 8002200:	f042 7280 	orr.w	r2, r2, #16777216	@ 0x1000000
 8002204:	601a      	str	r2, [r3, #0]
  return ((READ_BIT(RCC->CR, RCC_CR_PLLRDY) == (RCC_CR_PLLRDY)) ? 1UL : 0UL);
 8002206:	680b      	ldr	r3, [r1, #0]
 8002208:	019b      	lsls	r3, r3, #6
 800220a:	d5fc      	bpl.n	8002206 <SystemClock_Config+0x72>
  MODIFY_REG(RCC->CFGR, RCC_CFGR_SW, Source);
 800220c:	688b      	ldr	r3, [r1, #8]
  return (uint32_t)(READ_BIT(RCC->CFGR, RCC_CFGR_SWS));
 800220e:	4a19      	ldr	r2, [pc, #100]	@ (8002274 <SystemClock_Config+0xe0>)
  MODIFY_REG(RCC->CFGR, RCC_CFGR_SW, Source);
 8002210:	f043 0303 	orr.w	r3, r3, #3
 8002214:	608b      	str	r3, [r1, #8]
  MODIFY_REG(RCC->CFGR, RCC_CFGR_HPRE, Prescaler);
 8002216:	688b      	ldr	r3, [r1, #8]
 8002218:	f023 03f0 	bic.w	r3, r3, #240	@ 0xf0
 800221c:	f043 0380 	orr.w	r3, r3, #128	@ 0x80
 8002220:	608b      	str	r3, [r1, #8]
  return (uint32_t)(READ_BIT(RCC->CFGR, RCC_CFGR_SWS));
 8002222:	6893      	ldr	r3, [r2, #8]
 8002224:	f003 030c 	and.w	r3, r3, #12
  }

  LL_RCC_SetSysClkSource(LL_RCC_SYS_CLKSOURCE_PLL);
  LL_RCC_SetAHBPrescaler(LL_RCC_SYSCLK_DIV_2);
   /* Wait till System clock is ready */
  while(LL_RCC_GetSysClkSource() != LL_RCC_SYS_CLKSOURCE_STATUS_PLL)
 8002228:	2b0c      	cmp	r3, #12
 800222a:	d1fa      	bne.n	8002222 <SystemClock_Config+0x8e>
  {
  }

  /* Insure 1us transition state at intermediate medium speed clock*/
  for (__IO uint32_t i = (170 >> 1); i !=0; i--);
 800222c:	2355      	movs	r3, #85	@ 0x55
 800222e:	9301      	str	r3, [sp, #4]
 8002230:	9b01      	ldr	r3, [sp, #4]
 8002232:	b12b      	cbz	r3, 8002240 <SystemClock_Config+0xac>
 8002234:	9b01      	ldr	r3, [sp, #4]
 8002236:	3b01      	subs	r3, #1
 8002238:	9301      	str	r3, [sp, #4]
 800223a:	9b01      	ldr	r3, [sp, #4]
 800223c:	2b00      	cmp	r3, #0
 800223e:	d1f9      	bne.n	8002234 <SystemClock_Config+0xa0>
  MODIFY_REG(RCC->CFGR, RCC_CFGR_HPRE, Prescaler);
 8002240:	4b0c      	ldr	r3, [pc, #48]	@ (8002274 <SystemClock_Config+0xe0>)
  /* Set AHB prescaler*/
  LL_RCC_SetAHBPrescaler(LL_RCC_SYSCLK_DIV_1);
  LL_RCC_SetAPB1Prescaler(LL_RCC_APB1_DIV_1);
  LL_RCC_SetAPB2Prescaler(LL_RCC_APB2_DIV_1);

  LL_Init1msTick(170000000);
 8002242:	480e      	ldr	r0, [pc, #56]	@ (800227c <SystemClock_Config+0xe8>)
 8002244:	689a      	ldr	r2, [r3, #8]
 8002246:	f022 02f0 	bic.w	r2, r2, #240	@ 0xf0
 800224a:	609a      	str	r2, [r3, #8]
  MODIFY_REG(RCC->CFGR, RCC_CFGR_PPRE1, Prescaler);
 800224c:	689a      	ldr	r2, [r3, #8]
 800224e:	f422 62e0 	bic.w	r2, r2, #1792	@ 0x700
 8002252:	609a      	str	r2, [r3, #8]
  MODIFY_REG(RCC->CFGR, RCC_CFGR_PPRE2, Prescaler);
 8002254:	689a      	ldr	r2, [r3, #8]
 8002256:	f422 5260 	bic.w	r2, r2, #14336	@ 0x3800
 800225a:	609a      	str	r2, [r3, #8]
 800225c:	f002 f9b8 	bl	80045d0 <LL_Init1msTick>

  LL_SetSystemCoreClock(170000000);
 8002260:	4806      	ldr	r0, [pc, #24]	@ (800227c <SystemClock_Config+0xe8>)
}
 8002262:	b003      	add	sp, #12
 8002264:	f85d eb04 	ldr.w	lr, [sp], #4
  LL_SetSystemCoreClock(170000000);
 8002268:	f002 b9d6 	b.w	8004618 <LL_SetSystemCoreClock>
 800226c:	40022000 	.word	0x40022000
 8002270:	40007000 	.word	0x40007000
 8002274:	40021000 	.word	0x40021000
 8002278:	f9ff800c 	.word	0xf9ff800c
 800227c:	0a21fe80 	.word	0x0a21fe80

08002280 <main>:
  * @retval None
  */
__STATIC_INLINE void LL_APB2_GRP1_EnableClock(uint32_t Periphs)
{
  __IO uint32_t tmpreg;
  SET_BIT(RCC->APB2ENR, Periphs);
 8002280:	4dc1      	ldr	r5, [pc, #772]	@ (8002588 <main+0x308>)
  *         @arg @ref LL_GPIO_PIN_ALL
  * @retval None
  */
__STATIC_INLINE void LL_GPIO_ResetOutputPin(GPIO_TypeDef *GPIOx, uint32_t PinMask)
{
  WRITE_REG(GPIOx->BRR, PinMask);
 8002282:	f8df 831c 	ldr.w	r8, [pc, #796]	@ 80025a0 <main+0x320>
 8002286:	6e2a      	ldr	r2, [r5, #96]	@ 0x60
 8002288:	f8df 9318 	ldr.w	r9, [pc, #792]	@ 80025a4 <main+0x324>
{
 800228c:	e92d 4880 	stmdb	sp!, {r7, fp, lr}
 8002290:	f042 0201 	orr.w	r2, r2, #1
 8002294:	b0bf      	sub	sp, #252	@ 0xfc
 8002296:	662a      	str	r2, [r5, #96]	@ 0x60
  /* Delay after an RCC peripheral clock enabling */
  tmpreg = READ_BIT(RCC->APB2ENR, Periphs);
 8002298:	6e29      	ldr	r1, [r5, #96]	@ 0x60
  reg_value  =  SCB->AIRCR;                                                   /* read old register configuration    */
 800229a:	f8df b30c 	ldr.w	fp, [pc, #780]	@ 80025a8 <main+0x328>
  reg_value  =  (reg_value                                   |
 800229e:	4abb      	ldr	r2, [pc, #748]	@ (800258c <main+0x30c>)
 80022a0:	f001 0101 	and.w	r1, r1, #1
 80022a4:	9101      	str	r1, [sp, #4]
  (void)tmpreg;
 80022a6:	9901      	ldr	r1, [sp, #4]
  SET_BIT(RCC->APB1ENR1, Periphs);
 80022a8:	6da9      	ldr	r1, [r5, #88]	@ 0x58
 80022aa:	f041 5180 	orr.w	r1, r1, #268435456	@ 0x10000000
 80022ae:	65a9      	str	r1, [r5, #88]	@ 0x58
  tmpreg = READ_BIT(RCC->APB1ENR1, Periphs);
 80022b0:	6da9      	ldr	r1, [r5, #88]	@ 0x58
 80022b2:	f001 5180 	and.w	r1, r1, #268435456	@ 0x10000000
 80022b6:	9100      	str	r1, [sp, #0]
  (void)tmpreg;
 80022b8:	9900      	ldr	r1, [sp, #0]
  reg_value  =  SCB->AIRCR;                                                   /* read old register configuration    */
 80022ba:	f8db 100c 	ldr.w	r1, [fp, #12]
  reg_value &= ~((uint32_t)(SCB_AIRCR_VECTKEY_Msk | SCB_AIRCR_PRIGROUP_Msk)); /* clear bits to change               */
 80022be:	f64f 00ff 	movw	r0, #63743	@ 0xf8ff
 80022c2:	4001      	ands	r1, r0
  reg_value  =  (reg_value                                   |
 80022c4:	430a      	orrs	r2, r1
  * @rmtoll CR3          UCPD_DBDIS           LL_PWR_DisableUCPDDeadBattery
  * @retval None
  */
__STATIC_INLINE void LL_PWR_DisableUCPDDeadBattery(void)
{
  SET_BIT(PWR->CR3, PWR_CR3_UCPD_DBDIS);
 80022c6:	48b2      	ldr	r0, [pc, #712]	@ (8002590 <main+0x310>)
  SCB->AIRCR =  reg_value;
 80022c8:	f8cb 200c 	str.w	r2, [fp, #12]
 80022cc:	6882      	ldr	r2, [r0, #8]
 80022ce:	f442 4280 	orr.w	r2, r2, #16384	@ 0x4000
  * @param None
  * @retval None
  */
static void MX_GPIO_Init(void)
{
  LL_GPIO_InitTypeDef GPIO_InitStruct = {0};
 80022d2:	2400      	movs	r4, #0
 80022d4:	6082      	str	r2, [r0, #8]
  stand_im_init_1();
 80022d6:	f7fe ff21 	bl	800111c <stand_im_init_1>
  SystemClock_Config();
 80022da:	f7ff ff5b 	bl	8002194 <SystemClock_Config>
  LL_GPIO_InitTypeDef GPIO_InitStruct = {0};
 80022de:	e9cd 4435 	strd	r4, r4, [sp, #212]	@ 0xd4
 80022e2:	e9cd 4437 	strd	r4, r4, [sp, #220]	@ 0xdc
 80022e6:	9439      	str	r4, [sp, #228]	@ 0xe4
  SET_BIT(RCC->AHB2ENR, Periphs);
 80022e8:	6cea      	ldr	r2, [r5, #76]	@ 0x4c
 80022ea:	f042 0204 	orr.w	r2, r2, #4
 80022ee:	64ea      	str	r2, [r5, #76]	@ 0x4c
  tmpreg = READ_BIT(RCC->AHB2ENR, Periphs);
 80022f0:	6cea      	ldr	r2, [r5, #76]	@ 0x4c
 80022f2:	f002 0204 	and.w	r2, r2, #4
 80022f6:	9221      	str	r2, [sp, #132]	@ 0x84
  (void)tmpreg;
 80022f8:	9a21      	ldr	r2, [sp, #132]	@ 0x84
  SET_BIT(RCC->AHB2ENR, Periphs);
 80022fa:	6cea      	ldr	r2, [r5, #76]	@ 0x4c
 80022fc:	f042 0220 	orr.w	r2, r2, #32
 8002300:	64ea      	str	r2, [r5, #76]	@ 0x4c
  tmpreg = READ_BIT(RCC->AHB2ENR, Periphs);
 8002302:	6cea      	ldr	r2, [r5, #76]	@ 0x4c
 8002304:	f002 0220 	and.w	r2, r2, #32
 8002308:	9222      	str	r2, [sp, #136]	@ 0x88
  (void)tmpreg;
 800230a:	9a22      	ldr	r2, [sp, #136]	@ 0x88
  SET_BIT(RCC->AHB2ENR, Periphs);
 800230c:	6cea      	ldr	r2, [r5, #76]	@ 0x4c
 800230e:	f042 0201 	orr.w	r2, r2, #1
 8002312:	64ea      	str	r2, [r5, #76]	@ 0x4c
  tmpreg = READ_BIT(RCC->AHB2ENR, Periphs);
 8002314:	6cea      	ldr	r2, [r5, #76]	@ 0x4c
 8002316:	f002 0201 	and.w	r2, r2, #1
 800231a:	9223      	str	r2, [sp, #140]	@ 0x8c
  (void)tmpreg;
 800231c:	9a23      	ldr	r2, [sp, #140]	@ 0x8c
  SET_BIT(RCC->AHB2ENR, Periphs);
 800231e:	6cea      	ldr	r2, [r5, #76]	@ 0x4c
 8002320:	f042 0202 	orr.w	r2, r2, #2
 8002324:	64ea      	str	r2, [r5, #76]	@ 0x4c
  tmpreg = READ_BIT(RCC->AHB2ENR, Periphs);
 8002326:	6cea      	ldr	r2, [r5, #76]	@ 0x4c
 8002328:	f002 0202 	and.w	r2, r2, #2
 800232c:	9224      	str	r2, [sp, #144]	@ 0x90
  (void)tmpreg;
 800232e:	9a24      	ldr	r2, [sp, #144]	@ 0x90
  SET_BIT(RCC->AHB2ENR, Periphs);
 8002330:	6cea      	ldr	r2, [r5, #76]	@ 0x4c
 8002332:	f042 0208 	orr.w	r2, r2, #8
 8002336:	64ea      	str	r2, [r5, #76]	@ 0x4c
  tmpreg = READ_BIT(RCC->AHB2ENR, Periphs);
 8002338:	6cea      	ldr	r2, [r5, #76]	@ 0x4c
 800233a:	f04f 4390 	mov.w	r3, #1207959552	@ 0x48000000
 800233e:	f002 0208 	and.w	r2, r2, #8
 8002342:	9225      	str	r2, [sp, #148]	@ 0x94
 8002344:	2640      	movs	r6, #64	@ 0x40
  (void)tmpreg;
 8002346:	9a25      	ldr	r2, [sp, #148]	@ 0x94
 8002348:	629e      	str	r6, [r3, #40]	@ 0x28
 800234a:	f44f 4200 	mov.w	r2, #32768	@ 0x8000
 800234e:	f44f 5380 	mov.w	r3, #4096	@ 0x1000
 8002352:	f44f 4780 	mov.w	r7, #16384	@ 0x4000
 8002356:	f04f 0a20 	mov.w	sl, #32

  /**/
  LL_GPIO_ResetOutputPin(GPIOB, LL_GPIO_PIN_5);

  /**/
  GPIO_InitStruct.Pin = BUTTON_Pin;
 800235a:	f44f 5100 	mov.w	r1, #8192	@ 0x2000
 800235e:	f8c8 7028 	str.w	r7, [r8, #40]	@ 0x28
  GPIO_InitStruct.Mode = LL_GPIO_MODE_INPUT;
  GPIO_InitStruct.Pull = LL_GPIO_PULL_NO;
  LL_GPIO_Init(BUTTON_GPIO_Port, &GPIO_InitStruct);
 8002362:	4648      	mov	r0, r9
 8002364:	f8c8 2028 	str.w	r2, [r8, #40]	@ 0x28
 8002368:	f8c9 3028 	str.w	r3, [r9, #40]	@ 0x28
 800236c:	f8c8 a028 	str.w	sl, [r8, #40]	@ 0x28
  GPIO_InitStruct.Pin = BUTTON_Pin;
 8002370:	9134      	str	r1, [sp, #208]	@ 0xd0
  LL_GPIO_Init(BUTTON_GPIO_Port, &GPIO_InitStruct);
 8002372:	a934      	add	r1, sp, #208	@ 0xd0
 8002374:	f001 fbdc 	bl	8003b30 <LL_GPIO_Init>

  /**/
  GPIO_InitStruct.Pin = LL_GPIO_PIN_6;
 8002378:	9634      	str	r6, [sp, #208]	@ 0xd0
  GPIO_InitStruct.Mode = LL_GPIO_MODE_OUTPUT;
  GPIO_InitStruct.Speed = LL_GPIO_SPEED_FREQ_LOW;
  GPIO_InitStruct.OutputType = LL_GPIO_OUTPUT_PUSHPULL;
  GPIO_InitStruct.Pull = LL_GPIO_PULL_NO;
  LL_GPIO_Init(GPIOA, &GPIO_InitStruct);
 800237a:	a934      	add	r1, sp, #208	@ 0xd0
  GPIO_InitStruct.Mode = LL_GPIO_MODE_OUTPUT;
 800237c:	2601      	movs	r6, #1
  LL_GPIO_Init(GPIOA, &GPIO_InitStruct);
 800237e:	f04f 4090 	mov.w	r0, #1207959552	@ 0x48000000
  GPIO_InitStruct.OutputType = LL_GPIO_OUTPUT_PUSHPULL;
 8002382:	e9cd 4436 	strd	r4, r4, [sp, #216]	@ 0xd8
  GPIO_InitStruct.Pull = LL_GPIO_PULL_NO;
 8002386:	9438      	str	r4, [sp, #224]	@ 0xe0
  GPIO_InitStruct.Mode = LL_GPIO_MODE_OUTPUT;
 8002388:	9635      	str	r6, [sp, #212]	@ 0xd4
  LL_GPIO_Init(GPIOA, &GPIO_InitStruct);
 800238a:	f001 fbd1 	bl	8003b30 <LL_GPIO_Init>
  GPIO_InitStruct.Pin = LL_GPIO_PIN_14;
  GPIO_InitStruct.Mode = LL_GPIO_MODE_OUTPUT;
  GPIO_InitStruct.Speed = LL_GPIO_SPEED_FREQ_LOW;
  GPIO_InitStruct.OutputType = LL_GPIO_OUTPUT_PUSHPULL;
  GPIO_InitStruct.Pull = LL_GPIO_PULL_NO;
  LL_GPIO_Init(GPIOB, &GPIO_InitStruct);
 800238e:	a934      	add	r1, sp, #208	@ 0xd0
 8002390:	4640      	mov	r0, r8
  GPIO_InitStruct.Mode = LL_GPIO_MODE_OUTPUT;
 8002392:	e9cd 7634 	strd	r7, r6, [sp, #208]	@ 0xd0
  GPIO_InitStruct.OutputType = LL_GPIO_OUTPUT_PUSHPULL;
 8002396:	e9cd 4436 	strd	r4, r4, [sp, #216]	@ 0xd8
  GPIO_InitStruct.Pull = LL_GPIO_PULL_NO;
 800239a:	9438      	str	r4, [sp, #224]	@ 0xe0
  LL_GPIO_Init(GPIOB, &GPIO_InitStruct);
 800239c:	f001 fbc8 	bl	8003b30 <LL_GPIO_Init>

  /**/
  GPIO_InitStruct.Pin = LL_GPIO_PIN_15;
 80023a0:	f44f 4200 	mov.w	r2, #32768	@ 0x8000
  GPIO_InitStruct.Mode = LL_GPIO_MODE_OUTPUT;
  GPIO_InitStruct.Speed = LL_GPIO_SPEED_FREQ_LOW;
  GPIO_InitStruct.OutputType = LL_GPIO_OUTPUT_PUSHPULL;
  GPIO_InitStruct.Pull = LL_GPIO_PULL_NO;
  LL_GPIO_Init(GPIOB, &GPIO_InitStruct);
 80023a4:	a934      	add	r1, sp, #208	@ 0xd0
 80023a6:	4640      	mov	r0, r8
  GPIO_InitStruct.Mode = LL_GPIO_MODE_OUTPUT;
 80023a8:	e9cd 2634 	strd	r2, r6, [sp, #208]	@ 0xd0
  GPIO_InitStruct.OutputType = LL_GPIO_OUTPUT_PUSHPULL;
 80023ac:	e9cd 4436 	strd	r4, r4, [sp, #216]	@ 0xd8
  GPIO_InitStruct.Pull = LL_GPIO_PULL_NO;
 80023b0:	9438      	str	r4, [sp, #224]	@ 0xe0
  LL_GPIO_Init(GPIOB, &GPIO_InitStruct);
 80023b2:	f001 fbbd 	bl	8003b30 <LL_GPIO_Init>

  /**/
  GPIO_InitStruct.Pin = LL_GPIO_PIN_12;
 80023b6:	f44f 5380 	mov.w	r3, #4096	@ 0x1000
  GPIO_InitStruct.Mode = LL_GPIO_MODE_OUTPUT;
  GPIO_InitStruct.Speed = LL_GPIO_SPEED_FREQ_LOW;
  GPIO_InitStruct.OutputType = LL_GPIO_OUTPUT_PUSHPULL;
  GPIO_InitStruct.Pull = LL_GPIO_PULL_NO;
  LL_GPIO_Init(GPIOC, &GPIO_InitStruct);
 80023ba:	a934      	add	r1, sp, #208	@ 0xd0
 80023bc:	4648      	mov	r0, r9
  GPIO_InitStruct.Mode = LL_GPIO_MODE_OUTPUT;
 80023be:	e9cd 3634 	strd	r3, r6, [sp, #208]	@ 0xd0
  GPIO_InitStruct.OutputType = LL_GPIO_OUTPUT_PUSHPULL;
 80023c2:	e9cd 4436 	strd	r4, r4, [sp, #216]	@ 0xd8
  GPIO_InitStruct.Pull = LL_GPIO_PULL_NO;
 80023c6:	9438      	str	r4, [sp, #224]	@ 0xe0
  LL_GPIO_Init(GPIOC, &GPIO_InitStruct);
 80023c8:	f001 fbb2 	bl	8003b30 <LL_GPIO_Init>
  GPIO_InitStruct.Pin = LL_GPIO_PIN_5;
  GPIO_InitStruct.Mode = LL_GPIO_MODE_OUTPUT;
  GPIO_InitStruct.Speed = LL_GPIO_SPEED_FREQ_LOW;
  GPIO_InitStruct.OutputType = LL_GPIO_OUTPUT_PUSHPULL;
  GPIO_InitStruct.Pull = LL_GPIO_PULL_NO;
  LL_GPIO_Init(GPIOB, &GPIO_InitStruct);
 80023cc:	a934      	add	r1, sp, #208	@ 0xd0
 80023ce:	4640      	mov	r0, r8
  GPIO_InitStruct.Mode = LL_GPIO_MODE_OUTPUT;
 80023d0:	e9cd a634 	strd	sl, r6, [sp, #208]	@ 0xd0
  GPIO_InitStruct.OutputType = LL_GPIO_OUTPUT_PUSHPULL;
 80023d4:	e9cd 4436 	strd	r4, r4, [sp, #216]	@ 0xd8
  GPIO_InitStruct.Pull = LL_GPIO_PULL_NO;
 80023d8:	9438      	str	r4, [sp, #224]	@ 0xe0
  LL_GPIO_Init(GPIOB, &GPIO_InitStruct);
 80023da:	f001 fba9 	bl	8003b30 <LL_GPIO_Init>
  SET_BIT(RCC->AHB1ENR, Periphs);
 80023de:	6caa      	ldr	r2, [r5, #72]	@ 0x48
    NVIC->IP[((uint32_t)IRQn)]               = (uint8_t)((priority << (8U - __NVIC_PRIO_BITS)) & (uint32_t)0xFFUL);
 80023e0:	f8df a1c8 	ldr.w	sl, [pc, #456]	@ 80025ac <main+0x32c>
 80023e4:	f042 0204 	orr.w	r2, r2, #4
 80023e8:	64aa      	str	r2, [r5, #72]	@ 0x48
  tmpreg = READ_BIT(RCC->AHB1ENR, Periphs);
 80023ea:	6caa      	ldr	r2, [r5, #72]	@ 0x48
 80023ec:	f002 0204 	and.w	r2, r2, #4
 80023f0:	921e      	str	r2, [sp, #120]	@ 0x78
  (void)tmpreg;
 80023f2:	9a1e      	ldr	r2, [sp, #120]	@ 0x78
  SET_BIT(RCC->AHB1ENR, Periphs);
 80023f4:	6caa      	ldr	r2, [r5, #72]	@ 0x48
 80023f6:	4332      	orrs	r2, r6
 80023f8:	64aa      	str	r2, [r5, #72]	@ 0x48
  tmpreg = READ_BIT(RCC->AHB1ENR, Periphs);
 80023fa:	6caa      	ldr	r2, [r5, #72]	@ 0x48
 80023fc:	4032      	ands	r2, r6
 80023fe:	921f      	str	r2, [sp, #124]	@ 0x7c
  (void)tmpreg;
 8002400:	9a1f      	ldr	r2, [sp, #124]	@ 0x7c
  SET_BIT(RCC->AHB1ENR, Periphs);
 8002402:	6caa      	ldr	r2, [r5, #72]	@ 0x48
 8002404:	f042 0202 	orr.w	r2, r2, #2
 8002408:	64aa      	str	r2, [r5, #72]	@ 0x48
  tmpreg = READ_BIT(RCC->AHB1ENR, Periphs);
 800240a:	6caa      	ldr	r2, [r5, #72]	@ 0x48
 800240c:	f002 0202 	and.w	r2, r2, #2
 8002410:	9220      	str	r2, [sp, #128]	@ 0x80
  (void)tmpreg;
 8002412:	9a20      	ldr	r2, [sp, #128]	@ 0x80
  return ((uint32_t)((SCB->AIRCR & SCB_AIRCR_PRIGROUP_Msk) >> SCB_AIRCR_PRIGROUP_Pos));
 8002414:	f8db 000c 	ldr.w	r0, [fp, #12]
  NVIC_SetPriority(DMA1_Channel1_IRQn, NVIC_EncodePriority(NVIC_GetPriorityGrouping(),6, 0));
 8002418:	2106      	movs	r1, #6
 800241a:	f3c0 2002 	ubfx	r0, r0, #8, #3
 800241e:	f7ff fea5 	bl	800216c <NVIC_EncodePriority.constprop.0>
    NVIC->IP[((uint32_t)IRQn)]               = (uint8_t)((priority << (8U - __NVIC_PRIO_BITS)) & (uint32_t)0xFFUL);
 8002422:	0102      	lsls	r2, r0, #4
 8002424:	b2d2      	uxtb	r2, r2
 8002426:	f88a 230b 	strb.w	r2, [sl, #779]	@ 0x30b
    NVIC->ISER[(((uint32_t)IRQn) >> 5UL)] = (uint32_t)(1UL << (((uint32_t)IRQn) & 0x1FUL));
 800242a:	f44f 6200 	mov.w	r2, #2048	@ 0x800
 800242e:	f8ca 2000 	str.w	r2, [sl]
  return ((uint32_t)((SCB->AIRCR & SCB_AIRCR_PRIGROUP_Msk) >> SCB_AIRCR_PRIGROUP_Pos));
 8002432:	f8db 000c 	ldr.w	r0, [fp, #12]
  NVIC_SetPriority(DMA1_Channel4_IRQn, NVIC_EncodePriority(NVIC_GetPriorityGrouping(),8, 0));
 8002436:	2108      	movs	r1, #8
 8002438:	f3c0 2002 	ubfx	r0, r0, #8, #3
 800243c:	f7ff fe96 	bl	800216c <NVIC_EncodePriority.constprop.0>
    NVIC->IP[((uint32_t)IRQn)]               = (uint8_t)((priority << (8U - __NVIC_PRIO_BITS)) & (uint32_t)0xFFUL);
 8002440:	0102      	lsls	r2, r0, #4
 8002442:	b2d2      	uxtb	r2, r2
 8002444:	f88a 230e 	strb.w	r2, [sl, #782]	@ 0x30e
    NVIC->ISER[(((uint32_t)IRQn) >> 5UL)] = (uint32_t)(1UL << (((uint32_t)IRQn) & 0x1FUL));
 8002448:	f8ca 7000 	str.w	r7, [sl]
  LL_ADC_InitTypeDef ADC_InitStruct = {0};
 800244c:	e9cd 4427 	strd	r4, r4, [sp, #156]	@ 0x9c
  LL_ADC_REG_InitTypeDef ADC_REG_InitStruct = {0};
 8002450:	e9cd 442f 	strd	r4, r4, [sp, #188]	@ 0xbc
 8002454:	e9cd 4431 	strd	r4, r4, [sp, #196]	@ 0xc4
  LL_ADC_CommonInitTypeDef ADC_CommonInitStruct = {0};
 8002458:	e9cd 442b 	strd	r4, r4, [sp, #172]	@ 0xac
  LL_GPIO_InitTypeDef GPIO_InitStruct = {0};
 800245c:	e9cd 4437 	strd	r4, r4, [sp, #220]	@ 0xdc
  LL_ADC_InitTypeDef ADC_InitStruct = {0};
 8002460:	9426      	str	r4, [sp, #152]	@ 0x98
  LL_ADC_REG_InitTypeDef ADC_REG_InitStruct = {0};
 8002462:	942e      	str	r4, [sp, #184]	@ 0xb8
  LL_ADC_CommonInitTypeDef ADC_CommonInitStruct = {0};
 8002464:	942a      	str	r4, [sp, #168]	@ 0xa8
  LL_GPIO_InitTypeDef GPIO_InitStruct = {0};
 8002466:	9436      	str	r4, [sp, #216]	@ 0xd8
  LL_ADC_REG_InitTypeDef ADC_REG_InitStruct = {0};
 8002468:	9433      	str	r4, [sp, #204]	@ 0xcc
  LL_ADC_CommonInitTypeDef ADC_CommonInitStruct = {0};
 800246a:	942d      	str	r4, [sp, #180]	@ 0xb4
  LL_GPIO_InitTypeDef GPIO_InitStruct = {0};
 800246c:	9439      	str	r4, [sp, #228]	@ 0xe4
  MODIFY_REG(RCC->CCIPR, 3U << ((ADCxSource & 0x001F0000U) >> 16U), ((ADCxSource & 0x000000FFU) << ((ADCxSource & 0x001F0000U) >> 16U)));
 800246e:	f8d5 2088 	ldr.w	r2, [r5, #136]	@ 0x88
  MODIFY_REG((DMAMUX1_Channel0 + Channel + dmamux_ccr_offset)->CCR, DMAMUX_CxCR_DMAREQ_ID, PeriphRequest);
 8002472:	4e48      	ldr	r6, [pc, #288]	@ (8002594 <main+0x314>)
 8002474:	f022 5240 	bic.w	r2, r2, #805306368	@ 0x30000000
 8002478:	f042 5200 	orr.w	r2, r2, #536870912	@ 0x20000000
 800247c:	f8c5 2088 	str.w	r2, [r5, #136]	@ 0x88
  SET_BIT(RCC->AHB2ENR, Periphs);
 8002480:	6cea      	ldr	r2, [r5, #76]	@ 0x4c
 8002482:	f442 5200 	orr.w	r2, r2, #8192	@ 0x2000
 8002486:	64ea      	str	r2, [r5, #76]	@ 0x4c
  tmpreg = READ_BIT(RCC->AHB2ENR, Periphs);
 8002488:	6cea      	ldr	r2, [r5, #76]	@ 0x4c
 800248a:	f402 5200 	and.w	r2, r2, #8192	@ 0x2000
 800248e:	921c      	str	r2, [sp, #112]	@ 0x70
  (void)tmpreg;
 8002490:	9a1c      	ldr	r2, [sp, #112]	@ 0x70
  SET_BIT(RCC->AHB2ENR, Periphs);
 8002492:	6cea      	ldr	r2, [r5, #76]	@ 0x4c
 8002494:	f042 0204 	orr.w	r2, r2, #4
 8002498:	64ea      	str	r2, [r5, #76]	@ 0x4c
  tmpreg = READ_BIT(RCC->AHB2ENR, Periphs);
 800249a:	6cea      	ldr	r2, [r5, #76]	@ 0x4c
  GPIO_InitStruct.Pin = LL_GPIO_PIN_0;
 800249c:	ed9f 9b32 	vldr	d9, [pc, #200]	@ 8002568 <main+0x2e8>
  GPIO_InitStruct.Pin = LL_GPIO_PIN_1;
 80024a0:	ed9f bb33 	vldr	d11, [pc, #204]	@ 8002570 <main+0x2f0>
 80024a4:	f002 0204 	and.w	r2, r2, #4
 80024a8:	921d      	str	r2, [sp, #116]	@ 0x74
  LL_GPIO_Init(GPIOC, &GPIO_InitStruct);
 80024aa:	a934      	add	r1, sp, #208	@ 0xd0
 80024ac:	4648      	mov	r0, r9
  (void)tmpreg;
 80024ae:	9a1d      	ldr	r2, [sp, #116]	@ 0x74
  GPIO_InitStruct.Pin = LL_GPIO_PIN_0;
 80024b0:	ed8d 9b34 	vstr	d9, [sp, #208]	@ 0xd0
  LL_GPIO_Init(GPIOC, &GPIO_InitStruct);
 80024b4:	f001 fb3c 	bl	8003b30 <LL_GPIO_Init>
  LL_GPIO_Init(GPIOC, &GPIO_InitStruct);
 80024b8:	a934      	add	r1, sp, #208	@ 0xd0
 80024ba:	4648      	mov	r0, r9
  GPIO_InitStruct.Pin = LL_GPIO_PIN_1;
 80024bc:	ed8d bb34 	vstr	d11, [sp, #208]	@ 0xd0
  GPIO_InitStruct.Pull = LL_GPIO_PULL_NO;
 80024c0:	9438      	str	r4, [sp, #224]	@ 0xe0
  LL_GPIO_Init(GPIOC, &GPIO_InitStruct);
 80024c2:	f001 fb35 	bl	8003b30 <LL_GPIO_Init>
 80024c6:	f8d6 2800 	ldr.w	r2, [r6, #2048]	@ 0x800
 80024ca:	f022 02ff 	bic.w	r2, r2, #255	@ 0xff
 80024ce:	f042 0205 	orr.w	r2, r2, #5
 80024d2:	f8c6 2800 	str.w	r2, [r6, #2048]	@ 0x800
  MODIFY_REG(((DMA_Channel_TypeDef *)((uint32_t)(dma_base_addr + CHANNEL_OFFSET_TAB[Channel])))->CCR,
 80024d6:	68b2      	ldr	r2, [r6, #8]
 80024d8:	f422 4280 	bic.w	r2, r2, #16384	@ 0x4000
 80024dc:	f022 0210 	bic.w	r2, r2, #16
 80024e0:	60b2      	str	r2, [r6, #8]
  MODIFY_REG(((DMA_Channel_TypeDef *)((uint32_t)(dma_base_addr + CHANNEL_OFFSET_TAB[Channel])))->CCR, DMA_CCR_PL,
 80024e2:	68b2      	ldr	r2, [r6, #8]
 80024e4:	f442 5240 	orr.w	r2, r2, #12288	@ 0x3000
 80024e8:	60b2      	str	r2, [r6, #8]
  MODIFY_REG(((DMA_Channel_TypeDef *)((uint32_t)(dma_base_addr + CHANNEL_OFFSET_TAB[Channel])))->CCR, DMA_CCR_CIRC,
 80024ea:	68b2      	ldr	r2, [r6, #8]
 80024ec:	f042 0220 	orr.w	r2, r2, #32
 80024f0:	60b2      	str	r2, [r6, #8]
  MODIFY_REG(((DMA_Channel_TypeDef *)((uint32_t)(dma_base_addr + CHANNEL_OFFSET_TAB[Channel])))->CCR, DMA_CCR_PINC,
 80024f2:	68b2      	ldr	r2, [r6, #8]
 80024f4:	f022 0240 	bic.w	r2, r2, #64	@ 0x40
 80024f8:	60b2      	str	r2, [r6, #8]
  MODIFY_REG(((DMA_Channel_TypeDef *)((uint32_t)(dma_base_addr + CHANNEL_OFFSET_TAB[Channel])))->CCR, DMA_CCR_MINC,
 80024fa:	68b2      	ldr	r2, [r6, #8]
 80024fc:	f042 0280 	orr.w	r2, r2, #128	@ 0x80
 8002500:	60b2      	str	r2, [r6, #8]
  MODIFY_REG(((DMA_Channel_TypeDef *)((uint32_t)(dma_base_addr + CHANNEL_OFFSET_TAB[Channel])))->CCR, DMA_CCR_PSIZE,
 8002502:	68b2      	ldr	r2, [r6, #8]
 8002504:	f422 7240 	bic.w	r2, r2, #768	@ 0x300
 8002508:	f442 7200 	orr.w	r2, r2, #512	@ 0x200
 800250c:	60b2      	str	r2, [r6, #8]
  MODIFY_REG(((DMA_Channel_TypeDef *)((uint32_t)(dma_base_addr + CHANNEL_OFFSET_TAB[Channel])))->CCR, DMA_CCR_MSIZE,
 800250e:	68b2      	ldr	r2, [r6, #8]
  ADC_InitStruct.Resolution = LL_ADC_RESOLUTION_12B;
 8002510:	ed9f 8b19 	vldr	d8, [pc, #100]	@ 8002578 <main+0x2f8>
 8002514:	f422 6240 	bic.w	r2, r2, #3072	@ 0xc00
 8002518:	f442 6200 	orr.w	r2, r2, #2048	@ 0x800
  ADC_REG_InitStruct.DMATransfer = LL_ADC_REG_DMA_TRANSFER_UNLIMITED;
 800251c:	ed9f ab18 	vldr	d10, [pc, #96]	@ 8002580 <main+0x300>
  MODIFY_REG(ADCx->GCOMP, ADC_GCOMP_GCOMPCOEFF, GainCompensation);
 8002520:	f04f 47a0 	mov.w	r7, #1342177280	@ 0x50000000
 8002524:	60b2      	str	r2, [r6, #8]
  LL_ADC_Init(ADC1, &ADC_InitStruct);
 8002526:	a926      	add	r1, sp, #152	@ 0x98
 8002528:	f04f 40a0 	mov.w	r0, #1342177280	@ 0x50000000
  ADC_InitStruct.Resolution = LL_ADC_RESOLUTION_12B;
 800252c:	ed8d 8b26 	vstr	d8, [sp, #152]	@ 0x98
  ADC_InitStruct.LowPowerMode = LL_ADC_LP_MODE_NONE;
 8002530:	9428      	str	r4, [sp, #160]	@ 0xa0
  LL_ADC_Init(ADC1, &ADC_InitStruct);
 8002532:	f001 fabd 	bl	8003ab0 <LL_ADC_Init>
  ADC_REG_InitStruct.TriggerSource = LL_ADC_REG_TRIG_EXT_HRTIM_TRG1;
 8002536:	f44f 63d4 	mov.w	r3, #1696	@ 0x6a0
  LL_ADC_REG_Init(ADC1, &ADC_REG_InitStruct);
 800253a:	a92e      	add	r1, sp, #184	@ 0xb8
 800253c:	f04f 40a0 	mov.w	r0, #1342177280	@ 0x50000000
  ADC_REG_InitStruct.TriggerSource = LL_ADC_REG_TRIG_EXT_HRTIM_TRG1;
 8002540:	932e      	str	r3, [sp, #184]	@ 0xb8
  ADC_REG_InitStruct.SequencerDiscont = LL_ADC_REG_SEQ_DISCONT_DISABLE;
 8002542:	e9cd 442f 	strd	r4, r4, [sp, #188]	@ 0xbc
  ADC_REG_InitStruct.DMATransfer = LL_ADC_REG_DMA_TRANSFER_UNLIMITED;
 8002546:	ed8d ab32 	vstr	d10, [sp, #200]	@ 0xc8
  ADC_REG_InitStruct.ContinuousMode = LL_ADC_REG_CONV_SINGLE;
 800254a:	9431      	str	r4, [sp, #196]	@ 0xc4
  LL_ADC_REG_Init(ADC1, &ADC_REG_InitStruct);
 800254c:	f001 fac8 	bl	8003ae0 <LL_ADC_REG_Init>
 8002550:	f8d7 10c0 	ldr.w	r1, [r7, #192]	@ 0xc0
 8002554:	4a10      	ldr	r2, [pc, #64]	@ (8002598 <main+0x318>)
  LL_ADC_CommonInit(__LL_ADC_COMMON_INSTANCE(ADC1), &ADC_CommonInitStruct);
 8002556:	4811      	ldr	r0, [pc, #68]	@ (800259c <main+0x31c>)
 8002558:	4011      	ands	r1, r2
 800255a:	f8c7 10c0 	str.w	r1, [r7, #192]	@ 0xc0
  MODIFY_REG(ADCx->CFGR2, ADC_CFGR2_GCOMP, ((GainCompensation == 0UL) ? 0UL : 1UL) << ADC_CFGR2_GCOMP_Pos);
 800255e:	6939      	ldr	r1, [r7, #16]
 8002560:	f421 3180 	bic.w	r1, r1, #65536	@ 0x10000
 8002564:	6139      	str	r1, [r7, #16]
 8002566:	e023      	b.n	80025b0 <main+0x330>
 8002568:	00000001 	.word	0x00000001
 800256c:	00000003 	.word	0x00000003
 8002570:	00000002 	.word	0x00000002
 8002574:	00000003 	.word	0x00000003
	...
 8002580:	00000003 	.word	0x00000003
 8002584:	00000000 	.word	0x00000000
 8002588:	40021000 	.word	0x40021000
 800258c:	05fa0300 	.word	0x05fa0300
 8002590:	40007000 	.word	0x40007000
 8002594:	40020000 	.word	0x40020000
 8002598:	ffffc000 	.word	0xffffc000
 800259c:	50000300 	.word	0x50000300
 80025a0:	48000400 	.word	0x48000400
 80025a4:	48000800 	.word	0x48000800
 80025a8:	e000ed00 	.word	0xe000ed00
 80025ac:	e000e100 	.word	0xe000e100
  MODIFY_REG(ADCx->CFGR2, ADC_CFGR2_ROVSE | ADC_CFGR2_JOVSE | ADC_CFGR2_ROVSM, OvsScope);
 80025b0:	6939      	ldr	r1, [r7, #16]
 80025b2:	f421 6180 	bic.w	r1, r1, #1024	@ 0x400
 80025b6:	f021 0103 	bic.w	r1, r1, #3
 80025ba:	f041 0101 	orr.w	r1, r1, #1
 80025be:	6139      	str	r1, [r7, #16]
  MODIFY_REG(ADCx->CFGR2, (ADC_CFGR2_OVSS | ADC_CFGR2_OVSR), (Shift | Ratio));
 80025c0:	6939      	ldr	r1, [r7, #16]
 80025c2:	f421 71fe 	bic.w	r1, r1, #508	@ 0x1fc
 80025c6:	6139      	str	r1, [r7, #16]
  MODIFY_REG(ADCx->CFGR2, ADC_CFGR2_TROVS, OverSamplingDiscont);
 80025c8:	6939      	ldr	r1, [r7, #16]
 80025ca:	f421 7100 	bic.w	r1, r1, #512	@ 0x200
  ADC_CommonInitStruct.Multimode = LL_ADC_MULTI_DUAL_REG_SIMULT;
 80025ce:	f44f 2c00 	mov.w	ip, #524288	@ 0x80000
 80025d2:	6139      	str	r1, [r7, #16]
 80025d4:	2106      	movs	r1, #6
 80025d6:	e9cd c12a 	strd	ip, r1, [sp, #168]	@ 0xa8
  ADC_CommonInitStruct.MultiDMATransfer = LL_ADC_MULTI_REG_DMA_UNLMT_RES12_10B;
 80025da:	f44f 4120 	mov.w	r1, #40960	@ 0xa000
 80025de:	912c      	str	r1, [sp, #176]	@ 0xb0
  LL_ADC_CommonInit(__LL_ADC_COMMON_INSTANCE(ADC1), &ADC_CommonInitStruct);
 80025e0:	a92a      	add	r1, sp, #168	@ 0xa8
  ADC_CommonInitStruct.MultiTwoSamplingDelay = LL_ADC_MULTI_TWOSMP_DELAY_1CYCLE;
 80025e2:	942d      	str	r4, [sp, #180]	@ 0xb4
  LL_ADC_CommonInit(__LL_ADC_COMMON_INSTANCE(ADC1), &ADC_CommonInitStruct);
 80025e4:	f001 fa20 	bl	8003a28 <LL_ADC_CommonInit>
  MODIFY_REG(ADCx->CFGR, ADC_CFGR_EXTEN, ExternalTriggerEdge);
 80025e8:	68f9      	ldr	r1, [r7, #12]
 80025ea:	f421 6140 	bic.w	r1, r1, #3072	@ 0xc00
 80025ee:	f441 6180 	orr.w	r1, r1, #1024	@ 0x400
 80025f2:	60f9      	str	r1, [r7, #12]
  CLEAR_BIT(ADCx->CR, (ADC_CR_DEEPPWD | ADC_CR_BITS_PROPERTY_RS));
 80025f4:	68b9      	ldr	r1, [r7, #8]
 80025f6:	f021 4120 	bic.w	r1, r1, #2684354560	@ 0xa0000000
 80025fa:	f021 013f 	bic.w	r1, r1, #63	@ 0x3f
 80025fe:	60b9      	str	r1, [r7, #8]
  MODIFY_REG(ADCx->CR,
 8002600:	68b9      	ldr	r1, [r7, #8]
 8002602:	f021 4110 	bic.w	r1, r1, #2415919104	@ 0x90000000
 8002606:	f021 013f 	bic.w	r1, r1, #63	@ 0x3f
 800260a:	f041 5180 	orr.w	r1, r1, #268435456	@ 0x10000000
 800260e:	60b9      	str	r1, [r7, #8]
  MODIFY_REG(*preg,
 8002610:	6b39      	ldr	r1, [r7, #48]	@ 0x30
 8002612:	f421 61f8 	bic.w	r1, r1, #1984	@ 0x7c0
 8002616:	f441 71c0 	orr.w	r1, r1, #384	@ 0x180
 800261a:	6339      	str	r1, [r7, #48]	@ 0x30
  MODIFY_REG(*preg,
 800261c:	6979      	ldr	r1, [r7, #20]
 800261e:	f421 11e0 	bic.w	r1, r1, #1835008	@ 0x1c0000
 8002622:	f441 2100 	orr.w	r1, r1, #524288	@ 0x80000
 8002626:	6179      	str	r1, [r7, #20]
  MODIFY_REG(ADCx->DIFSEL,
 8002628:	f8d7 10b0 	ldr.w	r1, [r7, #176]	@ 0xb0
 800262c:	f021 0140 	bic.w	r1, r1, #64	@ 0x40
 8002630:	f8c7 10b0 	str.w	r1, [r7, #176]	@ 0xb0
  LL_ADC_InitTypeDef ADC_InitStruct = {0};
 8002634:	e9cd 442a 	strd	r4, r4, [sp, #168]	@ 0xa8
  LL_ADC_REG_InitTypeDef ADC_REG_InitStruct = {0};
 8002638:	e9cd 4434 	strd	r4, r4, [sp, #208]	@ 0xd0
 800263c:	e9cd 4436 	strd	r4, r4, [sp, #216]	@ 0xd8
 8002640:	e9cd 4438 	strd	r4, r4, [sp, #224]	@ 0xe0
  LL_GPIO_InitTypeDef GPIO_InitStruct = {0};
 8002644:	e9cd 4430 	strd	r4, r4, [sp, #192]	@ 0xc0
 8002648:	e9cd 4432 	strd	r4, r4, [sp, #200]	@ 0xc8
  LL_ADC_InitTypeDef ADC_InitStruct = {0};
 800264c:	942c      	str	r4, [sp, #176]	@ 0xb0
 800264e:	f8d5 1088 	ldr.w	r1, [r5, #136]	@ 0x88
 8002652:	f021 5140 	bic.w	r1, r1, #805306368	@ 0x30000000
 8002656:	f041 5100 	orr.w	r1, r1, #536870912	@ 0x20000000
 800265a:	f8c5 1088 	str.w	r1, [r5, #136]	@ 0x88
  SET_BIT(RCC->AHB2ENR, Periphs);
 800265e:	6ce9      	ldr	r1, [r5, #76]	@ 0x4c
 8002660:	f441 5100 	orr.w	r1, r1, #8192	@ 0x2000
 8002664:	64e9      	str	r1, [r5, #76]	@ 0x4c
  tmpreg = READ_BIT(RCC->AHB2ENR, Periphs);
 8002666:	6ce9      	ldr	r1, [r5, #76]	@ 0x4c
 8002668:	f401 5100 	and.w	r1, r1, #8192	@ 0x2000
 800266c:	911a      	str	r1, [sp, #104]	@ 0x68
  (void)tmpreg;
 800266e:	991a      	ldr	r1, [sp, #104]	@ 0x68
  SET_BIT(RCC->AHB2ENR, Periphs);
 8002670:	6ce9      	ldr	r1, [r5, #76]	@ 0x4c
 8002672:	f041 0104 	orr.w	r1, r1, #4
 8002676:	64e9      	str	r1, [r5, #76]	@ 0x4c
  tmpreg = READ_BIT(RCC->AHB2ENR, Periphs);
 8002678:	6ce9      	ldr	r1, [r5, #76]	@ 0x4c
 800267a:	f001 0104 	and.w	r1, r1, #4
 800267e:	911b      	str	r1, [sp, #108]	@ 0x6c
  (void)tmpreg;
 8002680:	991b      	ldr	r1, [sp, #108]	@ 0x6c
  LL_GPIO_Init(GPIOC, &GPIO_InitStruct);
 8002682:	4648      	mov	r0, r9
 8002684:	a92e      	add	r1, sp, #184	@ 0xb8
  GPIO_InitStruct.Pin = LL_GPIO_PIN_0;
 8002686:	ed8d 9b2e 	vstr	d9, [sp, #184]	@ 0xb8
  LL_GPIO_Init(GPIOC, &GPIO_InitStruct);
 800268a:	f001 fa51 	bl	8003b30 <LL_GPIO_Init>
  LL_GPIO_Init(GPIOC, &GPIO_InitStruct);
 800268e:	4648      	mov	r0, r9
  LL_ADC_Init(ADC2, &ADC_InitStruct);
 8002690:	f8df 939c 	ldr.w	r9, [pc, #924]	@ 8002a30 <main+0x7b0>
  GPIO_InitStruct.Pull = LL_GPIO_PULL_NO;
 8002694:	9432      	str	r4, [sp, #200]	@ 0xc8
  LL_GPIO_Init(GPIOC, &GPIO_InitStruct);
 8002696:	a92e      	add	r1, sp, #184	@ 0xb8
  GPIO_InitStruct.Pin = LL_GPIO_PIN_1;
 8002698:	ed8d bb2e 	vstr	d11, [sp, #184]	@ 0xb8
  LL_GPIO_Init(GPIOC, &GPIO_InitStruct);
 800269c:	f001 fa48 	bl	8003b30 <LL_GPIO_Init>
  LL_ADC_Init(ADC2, &ADC_InitStruct);
 80026a0:	a92a      	add	r1, sp, #168	@ 0xa8
 80026a2:	4648      	mov	r0, r9
  ADC_InitStruct.Resolution = LL_ADC_RESOLUTION_12B;
 80026a4:	ed8d 8b2a 	vstr	d8, [sp, #168]	@ 0xa8
  ADC_InitStruct.LowPowerMode = LL_ADC_LP_MODE_NONE;
 80026a8:	942c      	str	r4, [sp, #176]	@ 0xb0
  LL_ADC_Init(ADC2, &ADC_InitStruct);
 80026aa:	f001 fa01 	bl	8003ab0 <LL_ADC_Init>
  LL_ADC_REG_Init(ADC2, &ADC_REG_InitStruct);
 80026ae:	a934      	add	r1, sp, #208	@ 0xd0
 80026b0:	4648      	mov	r0, r9
  ADC_REG_InitStruct.SequencerDiscont = LL_ADC_REG_SEQ_DISCONT_DISABLE;
 80026b2:	e9cd 4435 	strd	r4, r4, [sp, #212]	@ 0xd4
  ADC_REG_InitStruct.DMATransfer = LL_ADC_REG_DMA_TRANSFER_NONE;
 80026b6:	e9cd 4437 	strd	r4, r4, [sp, #220]	@ 0xdc
  ADC_REG_InitStruct.Overrun = LL_ADC_REG_OVR_DATA_PRESERVED;
 80026ba:	9439      	str	r4, [sp, #228]	@ 0xe4
  LL_ADC_REG_Init(ADC2, &ADC_REG_InitStruct);
 80026bc:	f001 fa10 	bl	8003ae0 <LL_ADC_REG_Init>
  MODIFY_REG(ADCx->GCOMP, ADC_GCOMP_GCOMPCOEFF, GainCompensation);
 80026c0:	f8d9 10c0 	ldr.w	r1, [r9, #192]	@ 0xc0
 80026c4:	4ad2      	ldr	r2, [pc, #840]	@ (8002a10 <main+0x790>)
 80026c6:	4011      	ands	r1, r2
 80026c8:	f8c9 10c0 	str.w	r1, [r9, #192]	@ 0xc0
  MODIFY_REG(ADCx->CFGR2, ADC_CFGR2_GCOMP, ((GainCompensation == 0UL) ? 0UL : 1UL) << ADC_CFGR2_GCOMP_Pos);
 80026cc:	f8d9 1010 	ldr.w	r1, [r9, #16]
 80026d0:	f421 3180 	bic.w	r1, r1, #65536	@ 0x10000
 80026d4:	f8c9 1010 	str.w	r1, [r9, #16]
  MODIFY_REG(ADCx->CFGR2, ADC_CFGR2_ROVSE | ADC_CFGR2_JOVSE | ADC_CFGR2_ROVSM, OvsScope);
 80026d8:	f8d9 1010 	ldr.w	r1, [r9, #16]
 80026dc:	f421 6180 	bic.w	r1, r1, #1024	@ 0x400
 80026e0:	f021 0103 	bic.w	r1, r1, #3
 80026e4:	f041 0101 	orr.w	r1, r1, #1
 80026e8:	f8c9 1010 	str.w	r1, [r9, #16]
  MODIFY_REG(ADCx->CFGR2, (ADC_CFGR2_OVSS | ADC_CFGR2_OVSR), (Shift | Ratio));
 80026ec:	f8d9 1010 	ldr.w	r1, [r9, #16]
 80026f0:	f421 71fe 	bic.w	r1, r1, #508	@ 0x1fc
 80026f4:	f8c9 1010 	str.w	r1, [r9, #16]
  MODIFY_REG(ADCx->CFGR2, ADC_CFGR2_TROVS, OverSamplingDiscont);
 80026f8:	f8d9 1010 	ldr.w	r1, [r9, #16]
 80026fc:	f421 7100 	bic.w	r1, r1, #512	@ 0x200
 8002700:	f8c9 1010 	str.w	r1, [r9, #16]
  CLEAR_BIT(ADCx->CR, (ADC_CR_DEEPPWD | ADC_CR_BITS_PROPERTY_RS));
 8002704:	f8d9 1008 	ldr.w	r1, [r9, #8]
 8002708:	f021 4120 	bic.w	r1, r1, #2684354560	@ 0xa0000000
 800270c:	f021 013f 	bic.w	r1, r1, #63	@ 0x3f
 8002710:	f8c9 1008 	str.w	r1, [r9, #8]
  MODIFY_REG(ADCx->CR,
 8002714:	f8d9 1008 	ldr.w	r1, [r9, #8]
 8002718:	f021 4110 	bic.w	r1, r1, #2415919104	@ 0x90000000
 800271c:	f021 013f 	bic.w	r1, r1, #63	@ 0x3f
 8002720:	f041 5180 	orr.w	r1, r1, #268435456	@ 0x10000000
 8002724:	f8c9 1008 	str.w	r1, [r9, #8]
  MODIFY_REG(*preg,
 8002728:	f8d7 1130 	ldr.w	r1, [r7, #304]	@ 0x130
 800272c:	f421 61f8 	bic.w	r1, r1, #1984	@ 0x7c0
 8002730:	f441 71e0 	orr.w	r1, r1, #448	@ 0x1c0
 8002734:	f8c7 1130 	str.w	r1, [r7, #304]	@ 0x130
  MODIFY_REG(*preg,
 8002738:	f8d7 1114 	ldr.w	r1, [r7, #276]	@ 0x114
 800273c:	f421 0160 	bic.w	r1, r1, #14680064	@ 0xe00000
 8002740:	f441 0180 	orr.w	r1, r1, #4194304	@ 0x400000
 8002744:	f8c7 1114 	str.w	r1, [r7, #276]	@ 0x114
  MODIFY_REG(ADCx->DIFSEL,
 8002748:	f8d9 10b0 	ldr.w	r1, [r9, #176]	@ 0xb0
 800274c:	f021 0180 	bic.w	r1, r1, #128	@ 0x80
 8002750:	f8c9 10b0 	str.w	r1, [r9, #176]	@ 0xb0
  LL_ADC_InitTypeDef ADC_InitStruct = {0};
 8002754:	e9cd 4426 	strd	r4, r4, [sp, #152]	@ 0x98
  LL_ADC_REG_InitTypeDef ADC_REG_InitStruct = {0};
 8002758:	e9cd 442e 	strd	r4, r4, [sp, #184]	@ 0xb8
 800275c:	e9cd 4430 	strd	r4, r4, [sp, #192]	@ 0xc0
 8002760:	e9cd 4432 	strd	r4, r4, [sp, #200]	@ 0xc8
  LL_ADC_CommonInitTypeDef ADC_CommonInitStruct = {0};
 8002764:	e9cd 442a 	strd	r4, r4, [sp, #168]	@ 0xa8
  LL_ADC_InitTypeDef ADC_InitStruct = {0};
 8002768:	9428      	str	r4, [sp, #160]	@ 0xa0
  LL_ADC_CommonInitTypeDef ADC_CommonInitStruct = {0};
 800276a:	e9cd 442c 	strd	r4, r4, [sp, #176]	@ 0xb0
  LL_GPIO_InitTypeDef GPIO_InitStruct = {0};
 800276e:	e9cd 4436 	strd	r4, r4, [sp, #216]	@ 0xd8
 8002772:	e9cd 4438 	strd	r4, r4, [sp, #224]	@ 0xe0
 8002776:	f8d5 1088 	ldr.w	r1, [r5, #136]	@ 0x88
 800277a:	f021 4140 	bic.w	r1, r1, #3221225472	@ 0xc0000000
 800277e:	f041 4100 	orr.w	r1, r1, #2147483648	@ 0x80000000
 8002782:	f8c5 1088 	str.w	r1, [r5, #136]	@ 0x88
  SET_BIT(RCC->AHB2ENR, Periphs);
 8002786:	6ce9      	ldr	r1, [r5, #76]	@ 0x4c
 8002788:	f441 4180 	orr.w	r1, r1, #16384	@ 0x4000
 800278c:	64e9      	str	r1, [r5, #76]	@ 0x4c
  tmpreg = READ_BIT(RCC->AHB2ENR, Periphs);
 800278e:	6ce9      	ldr	r1, [r5, #76]	@ 0x4c
 8002790:	f401 4180 	and.w	r1, r1, #16384	@ 0x4000
 8002794:	9118      	str	r1, [sp, #96]	@ 0x60
  (void)tmpreg;
 8002796:	9918      	ldr	r1, [sp, #96]	@ 0x60
  SET_BIT(RCC->AHB2ENR, Periphs);
 8002798:	6ce9      	ldr	r1, [r5, #76]	@ 0x4c
 800279a:	f041 0102 	orr.w	r1, r1, #2
 800279e:	64e9      	str	r1, [r5, #76]	@ 0x4c
  tmpreg = READ_BIT(RCC->AHB2ENR, Periphs);
 80027a0:	6ce9      	ldr	r1, [r5, #76]	@ 0x4c
 80027a2:	f001 0102 	and.w	r1, r1, #2
 80027a6:	9119      	str	r1, [sp, #100]	@ 0x64
  (void)tmpreg;
 80027a8:	9919      	ldr	r1, [sp, #100]	@ 0x64
  LL_GPIO_Init(GPIOB, &GPIO_InitStruct);
 80027aa:	4640      	mov	r0, r8
 80027ac:	a934      	add	r1, sp, #208	@ 0xd0
  GPIO_InitStruct.Pin = LL_GPIO_PIN_0;
 80027ae:	ed8d 9b34 	vstr	d9, [sp, #208]	@ 0xd0
  LL_GPIO_Init(GPIOB, &GPIO_InitStruct);
 80027b2:	f001 f9bd 	bl	8003b30 <LL_GPIO_Init>
  MODIFY_REG((DMAMUX1_Channel0 + Channel + dmamux_ccr_offset)->CCR, DMAMUX_CxCR_DMAREQ_ID, PeriphRequest);
 80027b6:	f8d6 0808 	ldr.w	r0, [r6, #2056]	@ 0x808
 80027ba:	f020 00ff 	bic.w	r0, r0, #255	@ 0xff
 80027be:	f040 0025 	orr.w	r0, r0, #37	@ 0x25
 80027c2:	f8c6 0808 	str.w	r0, [r6, #2056]	@ 0x808
  MODIFY_REG(((DMA_Channel_TypeDef *)((uint32_t)(dma_base_addr + CHANNEL_OFFSET_TAB[Channel])))->CCR,
 80027c6:	6b30      	ldr	r0, [r6, #48]	@ 0x30
 80027c8:	f420 4080 	bic.w	r0, r0, #16384	@ 0x4000
 80027cc:	f020 0010 	bic.w	r0, r0, #16
 80027d0:	6330      	str	r0, [r6, #48]	@ 0x30
  MODIFY_REG(((DMA_Channel_TypeDef *)((uint32_t)(dma_base_addr + CHANNEL_OFFSET_TAB[Channel])))->CCR, DMA_CCR_PL,
 80027d2:	6b30      	ldr	r0, [r6, #48]	@ 0x30
 80027d4:	f420 5040 	bic.w	r0, r0, #12288	@ 0x3000
 80027d8:	6330      	str	r0, [r6, #48]	@ 0x30
  MODIFY_REG(((DMA_Channel_TypeDef *)((uint32_t)(dma_base_addr + CHANNEL_OFFSET_TAB[Channel])))->CCR, DMA_CCR_CIRC,
 80027da:	6b30      	ldr	r0, [r6, #48]	@ 0x30
 80027dc:	f040 0020 	orr.w	r0, r0, #32
 80027e0:	6330      	str	r0, [r6, #48]	@ 0x30
  MODIFY_REG(((DMA_Channel_TypeDef *)((uint32_t)(dma_base_addr + CHANNEL_OFFSET_TAB[Channel])))->CCR, DMA_CCR_PINC,
 80027e2:	6b30      	ldr	r0, [r6, #48]	@ 0x30
 80027e4:	f020 0040 	bic.w	r0, r0, #64	@ 0x40
 80027e8:	6330      	str	r0, [r6, #48]	@ 0x30
  MODIFY_REG(((DMA_Channel_TypeDef *)((uint32_t)(dma_base_addr + CHANNEL_OFFSET_TAB[Channel])))->CCR, DMA_CCR_MINC,
 80027ea:	6b30      	ldr	r0, [r6, #48]	@ 0x30
 80027ec:	f040 0080 	orr.w	r0, r0, #128	@ 0x80
 80027f0:	6330      	str	r0, [r6, #48]	@ 0x30
  MODIFY_REG(((DMA_Channel_TypeDef *)((uint32_t)(dma_base_addr + CHANNEL_OFFSET_TAB[Channel])))->CCR, DMA_CCR_PSIZE,
 80027f2:	6b30      	ldr	r0, [r6, #48]	@ 0x30
 80027f4:	f420 7040 	bic.w	r0, r0, #768	@ 0x300
 80027f8:	f440 7080 	orr.w	r0, r0, #256	@ 0x100
 80027fc:	6330      	str	r0, [r6, #48]	@ 0x30
  MODIFY_REG(((DMA_Channel_TypeDef *)((uint32_t)(dma_base_addr + CHANNEL_OFFSET_TAB[Channel])))->CCR, DMA_CCR_MSIZE,
 80027fe:	6b30      	ldr	r0, [r6, #48]	@ 0x30
 8002800:	f420 6040 	bic.w	r0, r0, #3072	@ 0xc00
 8002804:	f440 6080 	orr.w	r0, r0, #1024	@ 0x400
 8002808:	6330      	str	r0, [r6, #48]	@ 0x30
  LL_ADC_Init(ADC3, &ADC_InitStruct);
 800280a:	4e82      	ldr	r6, [pc, #520]	@ (8002a14 <main+0x794>)
  ADC_InitStruct.LowPowerMode = LL_ADC_LP_MODE_NONE;
 800280c:	9428      	str	r4, [sp, #160]	@ 0xa0
  LL_ADC_Init(ADC3, &ADC_InitStruct);
 800280e:	a926      	add	r1, sp, #152	@ 0x98
 8002810:	4630      	mov	r0, r6
  ADC_InitStruct.Resolution = LL_ADC_RESOLUTION_12B;
 8002812:	ed8d 8b26 	vstr	d8, [sp, #152]	@ 0x98
  LL_ADC_Init(ADC3, &ADC_InitStruct);
 8002816:	f001 f94b 	bl	8003ab0 <LL_ADC_Init>
  ADC_REG_InitStruct.TriggerSource = LL_ADC_REG_TRIG_EXT_HRTIM_TRG1;
 800281a:	f44f 63d4 	mov.w	r3, #1696	@ 0x6a0
  LL_ADC_REG_Init(ADC3, &ADC_REG_InitStruct);
 800281e:	a92e      	add	r1, sp, #184	@ 0xb8
 8002820:	4630      	mov	r0, r6
  ADC_REG_InitStruct.SequencerLength = LL_ADC_REG_SEQ_SCAN_DISABLE;
 8002822:	e9cd 342e 	strd	r3, r4, [sp, #184]	@ 0xb8
  ADC_REG_InitStruct.DMATransfer = LL_ADC_REG_DMA_TRANSFER_UNLIMITED;
 8002826:	ed8d ab32 	vstr	d10, [sp, #200]	@ 0xc8
  ADC_REG_InitStruct.ContinuousMode = LL_ADC_REG_CONV_SINGLE;
 800282a:	e9cd 4430 	strd	r4, r4, [sp, #192]	@ 0xc0
  LL_ADC_REG_Init(ADC3, &ADC_REG_InitStruct);
 800282e:	f001 f957 	bl	8003ae0 <LL_ADC_REG_Init>
  MODIFY_REG(ADCx->GCOMP, ADC_GCOMP_GCOMPCOEFF, GainCompensation);
 8002832:	f8d6 00c0 	ldr.w	r0, [r6, #192]	@ 0xc0
 8002836:	4a76      	ldr	r2, [pc, #472]	@ (8002a10 <main+0x790>)
 8002838:	4002      	ands	r2, r0
 800283a:	f8c6 20c0 	str.w	r2, [r6, #192]	@ 0xc0
  MODIFY_REG(ADCx->CFGR2, ADC_CFGR2_GCOMP, ((GainCompensation == 0UL) ? 0UL : 1UL) << ADC_CFGR2_GCOMP_Pos);
 800283e:	6932      	ldr	r2, [r6, #16]
  LL_ADC_CommonInit(__LL_ADC_COMMON_INSTANCE(ADC3), &ADC_CommonInitStruct);
 8002840:	4875      	ldr	r0, [pc, #468]	@ (8002a18 <main+0x798>)
 8002842:	f422 3280 	bic.w	r2, r2, #65536	@ 0x10000
 8002846:	6132      	str	r2, [r6, #16]
  MODIFY_REG(ADCx->CFGR2, ADC_CFGR2_ROVSE | ADC_CFGR2_JOVSE | ADC_CFGR2_ROVSM, OvsScope);
 8002848:	6932      	ldr	r2, [r6, #16]
  ADC_CommonInitStruct.CommonClock = LL_ADC_CLOCK_ASYNC_DIV4;
 800284a:	ed9f 7b6f 	vldr	d7, [pc, #444]	@ 8002a08 <main+0x788>
 800284e:	f422 6280 	bic.w	r2, r2, #1024	@ 0x400
 8002852:	f022 0203 	bic.w	r2, r2, #3
 8002856:	6132      	str	r2, [r6, #16]
  LL_ADC_CommonInit(__LL_ADC_COMMON_INSTANCE(ADC3), &ADC_CommonInitStruct);
 8002858:	a92a      	add	r1, sp, #168	@ 0xa8
  ADC_CommonInitStruct.CommonClock = LL_ADC_CLOCK_ASYNC_DIV4;
 800285a:	ed8d 7b2a 	vstr	d7, [sp, #168]	@ 0xa8
  LL_ADC_CommonInit(__LL_ADC_COMMON_INSTANCE(ADC3), &ADC_CommonInitStruct);
 800285e:	f001 f8e3 	bl	8003a28 <LL_ADC_CommonInit>
  MODIFY_REG(ADCx->CFGR, ADC_CFGR_EXTEN, ExternalTriggerEdge);
 8002862:	68f2      	ldr	r2, [r6, #12]
 8002864:	f422 6240 	bic.w	r2, r2, #3072	@ 0xc00
 8002868:	f442 6280 	orr.w	r2, r2, #1024	@ 0x400
 800286c:	60f2      	str	r2, [r6, #12]
  CLEAR_BIT(ADCx->CR, (ADC_CR_DEEPPWD | ADC_CR_BITS_PROPERTY_RS));
 800286e:	68b2      	ldr	r2, [r6, #8]
 8002870:	f022 4220 	bic.w	r2, r2, #2684354560	@ 0xa0000000
 8002874:	f022 023f 	bic.w	r2, r2, #63	@ 0x3f
 8002878:	60b2      	str	r2, [r6, #8]
  MODIFY_REG(ADCx->CR,
 800287a:	68b2      	ldr	r2, [r6, #8]
 800287c:	f022 4210 	bic.w	r2, r2, #2415919104	@ 0x90000000
 8002880:	f022 023f 	bic.w	r2, r2, #63	@ 0x3f
 8002884:	f042 5280 	orr.w	r2, r2, #268435456	@ 0x10000000
 8002888:	60b2      	str	r2, [r6, #8]
  MODIFY_REG(*preg,
 800288a:	f8d7 2430 	ldr.w	r2, [r7, #1072]	@ 0x430
 800288e:	f422 62f8 	bic.w	r2, r2, #1984	@ 0x7c0
 8002892:	f442 7240 	orr.w	r2, r2, #768	@ 0x300
 8002896:	f8c7 2430 	str.w	r2, [r7, #1072]	@ 0x430
  MODIFY_REG(*preg,
 800289a:	f8d7 2418 	ldr.w	r2, [r7, #1048]	@ 0x418
 800289e:	f422 72e0 	bic.w	r2, r2, #448	@ 0x1c0
 80028a2:	f042 02c0 	orr.w	r2, r2, #192	@ 0xc0
 80028a6:	f8c7 2418 	str.w	r2, [r7, #1048]	@ 0x418
  MODIFY_REG(ADCx->DIFSEL,
 80028aa:	f8d6 20b0 	ldr.w	r2, [r6, #176]	@ 0xb0
 80028ae:	f422 5280 	bic.w	r2, r2, #4096	@ 0x1000
 80028b2:	f8c6 20b0 	str.w	r2, [r6, #176]	@ 0xb0
  LL_GPIO_InitTypeDef GPIO_InitStruct = {0};
 80028b6:	e9cd 4436 	strd	r4, r4, [sp, #216]	@ 0xd8
  SET_BIT(RCC->APB2ENR, Periphs);
 80028ba:	6e2a      	ldr	r2, [r5, #96]	@ 0x60
 80028bc:	f042 6280 	orr.w	r2, r2, #67108864	@ 0x4000000
 80028c0:	662a      	str	r2, [r5, #96]	@ 0x60
  tmpreg = READ_BIT(RCC->APB2ENR, Periphs);
 80028c2:	6e2a      	ldr	r2, [r5, #96]	@ 0x60
 80028c4:	f002 6280 	and.w	r2, r2, #67108864	@ 0x4000000
 80028c8:	9217      	str	r2, [sp, #92]	@ 0x5c
  (void)tmpreg;
 80028ca:	9a17      	ldr	r2, [sp, #92]	@ 0x5c
  SET_BIT(RCC->AHB2ENR, Periphs);
 80028cc:	6cea      	ldr	r2, [r5, #76]	@ 0x4c
 80028ce:	f042 0202 	orr.w	r2, r2, #2
 80028d2:	64ea      	str	r2, [r5, #76]	@ 0x4c
  tmpreg = READ_BIT(RCC->AHB2ENR, Periphs);
 80028d4:	6cea      	ldr	r2, [r5, #76]	@ 0x4c
 80028d6:	f002 0202 	and.w	r2, r2, #2
 80028da:	9226      	str	r2, [sp, #152]	@ 0x98
  (void)tmpreg;
 80028dc:	9a26      	ldr	r2, [sp, #152]	@ 0x98
  SET_BIT(RCC->AHB2ENR, Periphs);
 80028de:	6cea      	ldr	r2, [r5, #76]	@ 0x4c
 80028e0:	f042 0201 	orr.w	r2, r2, #1
 80028e4:	64ea      	str	r2, [r5, #76]	@ 0x4c
  tmpreg = READ_BIT(RCC->AHB2ENR, Periphs);
 80028e6:	6cea      	ldr	r2, [r5, #76]	@ 0x4c
  GPIO_InitStruct.Pin = LL_GPIO_PIN_11;
 80028e8:	f44f 6600 	mov.w	r6, #2048	@ 0x800
 80028ec:	f002 0201 	and.w	r2, r2, #1
 80028f0:	2702      	movs	r7, #2
 80028f2:	e9cd 6734 	strd	r6, r7, [sp, #208]	@ 0xd0
 80028f6:	922a      	str	r2, [sp, #168]	@ 0xa8
  LL_GPIO_Init(GPIOB, &GPIO_InitStruct);
 80028f8:	a934      	add	r1, sp, #208	@ 0xd0
  GPIO_InitStruct.Pull = LL_GPIO_PULL_DOWN;
 80028fa:	2602      	movs	r6, #2
 80028fc:	270d      	movs	r7, #13
  LL_GPIO_Init(GPIOB, &GPIO_InitStruct);
 80028fe:	4640      	mov	r0, r8
  (void)tmpreg;
 8002900:	9a2a      	ldr	r2, [sp, #168]	@ 0xa8
  GPIO_InitStruct.Pull = LL_GPIO_PULL_DOWN;
 8002902:	e9cd 6738 	strd	r6, r7, [sp, #224]	@ 0xe0
  LL_GPIO_Init(GPIOB, &GPIO_InitStruct);
 8002906:	f001 f913 	bl	8003b30 <LL_GPIO_Init>
  GPIO_InitStruct.Pin = LL_GPIO_PIN_12;
 800290a:	f44f 5380 	mov.w	r3, #4096	@ 0x1000
  GPIO_InitStruct.Mode = LL_GPIO_MODE_ALTERNATE;
 800290e:	2202      	movs	r2, #2
  LL_GPIO_Init(GPIOA, &GPIO_InitStruct);
 8002910:	a934      	add	r1, sp, #208	@ 0xd0
 8002912:	f04f 4090 	mov.w	r0, #1207959552	@ 0x48000000
  GPIO_InitStruct.Pin = LL_GPIO_PIN_12;
 8002916:	9334      	str	r3, [sp, #208]	@ 0xd0
  GPIO_InitStruct.Mode = LL_GPIO_MODE_ALTERNATE;
 8002918:	9235      	str	r2, [sp, #212]	@ 0xd4
  GPIO_InitStruct.Pull = LL_GPIO_PULL_DOWN;
 800291a:	e9cd 6738 	strd	r6, r7, [sp, #224]	@ 0xe0
  GPIO_InitStruct.OutputType = LL_GPIO_OUTPUT_PUSHPULL;
 800291e:	e9cd 4436 	strd	r4, r4, [sp, #216]	@ 0xd8
  LL_GPIO_Init(GPIOA, &GPIO_InitStruct);
 8002922:	f001 f905 	bl	8003b30 <LL_GPIO_Init>
  return ((uint32_t)((SCB->AIRCR & SCB_AIRCR_PRIGROUP_Msk) >> SCB_AIRCR_PRIGROUP_Pos));
 8002926:	f8db 000c 	ldr.w	r0, [fp, #12]
  NVIC_SetPriority(HRTIM1_Master_IRQn, NVIC_EncodePriority(NVIC_GetPriorityGrouping(),8, 0));
 800292a:	2108      	movs	r1, #8
 800292c:	f3c0 2002 	ubfx	r0, r0, #8, #3
 8002930:	f7ff fc1c 	bl	800216c <NVIC_EncodePriority.constprop.0>
    NVIC->IP[((uint32_t)IRQn)]               = (uint8_t)((priority << (8U - __NVIC_PRIO_BITS)) & (uint32_t)0xFFUL);
 8002934:	0103      	lsls	r3, r0, #4
 8002936:	b2db      	uxtb	r3, r3
 8002938:	f88a 3343 	strb.w	r3, [sl, #835]	@ 0x343
    NVIC->ISER[(((uint32_t)IRQn) >> 5UL)] = (uint32_t)(1UL << (((uint32_t)IRQn) & 0x1FUL));
 800293c:	2308      	movs	r3, #8
 800293e:	f8ca 3008 	str.w	r3, [sl, #8]
  MODIFY_REG(HRTIMx->sCommonRegs.DLLCR, (HRTIM_DLLCR_CALEN | HRTIM_DLLCR_CALRTE), (Mode | Period));
 8002942:	4a36      	ldr	r2, [pc, #216]	@ (8002a1c <main+0x79c>)
 8002944:	f8d2 33cc 	ldr.w	r3, [r2, #972]	@ 0x3cc
 8002948:	f043 030e 	orr.w	r3, r3, #14
 800294c:	f8c2 33cc 	str.w	r3, [r2, #972]	@ 0x3cc
  return ((READ_BIT(HRTIMx->sCommonRegs.ISR, HRTIM_ISR_DLLRDY) == (HRTIM_ISR_DLLRDY)) ? 1UL : 0UL);
 8002950:	f8d2 3388 	ldr.w	r3, [r2, #904]	@ 0x388
 8002954:	03dc      	lsls	r4, r3, #15
 8002956:	d5fb      	bpl.n	8002950 <main+0x6d0>
  MODIFY_REG(HRTIMx->sCommonRegs.FLTINR2, HRTIM_FLTINR2_FLTSD, Prescaler);
 8002958:	f8d2 33d4 	ldr.w	r3, [r2, #980]	@ 0x3d4
 800295c:	f023 7340 	bic.w	r3, r3, #50331648	@ 0x3000000
 8002960:	f8c2 33d4 	str.w	r3, [r2, #980]	@ 0x3d4
  LL_HRTIM_FLT_SetSrc(HRTIM1, LL_HRTIM_FAULT_1, LL_HRTIM_FLT_SRC_DIGITALINPUT);
 8002964:	2001      	movs	r0, #1
 8002966:	f7ff f873 	bl	8001a50 <LL_HRTIM_FLT_SetSrc.constprop.0>
  LL_HRTIM_FLT_SetPolarity(HRTIM1, LL_HRTIM_FAULT_1, LL_HRTIM_FLT_POLARITY_HIGH);
 800296a:	2001      	movs	r0, #1
 800296c:	f7ff f84a 	bl	8001a04 <LL_HRTIM_FLT_SetPolarity.constprop.0>
  LL_HRTIM_FLT_SetFilter(HRTIM1, LL_HRTIM_FAULT_1, LL_HRTIM_FLT_FILTER_3);
 8002970:	2118      	movs	r1, #24
 8002972:	2001      	movs	r0, #1
 8002974:	f7ff f812 	bl	800199c <LL_HRTIM_FLT_SetFilter.constprop.0>
  LL_HRTIM_FLT_SetCounterThreshold(HRTIM1, LL_HRTIM_FAULT_1, 0);
 8002978:	2001      	movs	r0, #1
 800297a:	f7fe ffdd 	bl	8001938 <LL_HRTIM_FLT_SetCounterThreshold.constprop.0>
  LL_HRTIM_FLT_SetResetMode(HRTIM1, LL_HRTIM_FAULT_1, LL_HRTIM_FLT_COUNTERRST_UNCONDITIONAL);
 800297e:	2001      	movs	r0, #1
 8002980:	f7fe ffc0 	bl	8001904 <LL_HRTIM_FLT_SetResetMode.constprop.0>
  LL_HRTIM_FLT_EnableBlanking(HRTIM1, LL_HRTIM_FAULT_1);
 8002984:	2001      	movs	r0, #1
 8002986:	f7fe fff1 	bl	800196c <LL_HRTIM_FLT_EnableBlanking.constprop.0>
   __ASM volatile ("rbit %0, %1" : "=r" (result) : "r" (value) );
 800298a:	2301      	movs	r3, #1
 800298c:	fa93 f3a3 	rbit	r3, r3
                                                     REG_OFFSET_TAB_FLTINR[iFault]));
 8002990:	4d23      	ldr	r5, [pc, #140]	@ (8002a20 <main+0x7a0>)
  SET_BIT(*pReg, (HRTIM_FLTINR1_FLT1E << REG_SHIFT_TAB_FLTxE[iFault]));
 8002992:	4c24      	ldr	r4, [pc, #144]	@ (8002a24 <main+0x7a4>)
  __IO uint32_t *pReg = (__IO uint32_t *)((uint32_t)((uint32_t)(&HRTIMx->sCommonRegs.FLTINR1) +
 8002994:	4a24      	ldr	r2, [pc, #144]	@ (8002a28 <main+0x7a8>)
  return __builtin_clz(value);
 8002996:	fab3 f383 	clz	r3, r3
                                                     REG_OFFSET_TAB_FLTINR[iFault]));
 800299a:	5ce9      	ldrb	r1, [r5, r3]
  SET_BIT(*pReg, (HRTIM_FLTINR1_FLT1E << REG_SHIFT_TAB_FLTxE[iFault]));
 800299c:	5ce0      	ldrb	r0, [r4, r3]
 800299e:	2301      	movs	r3, #1
 80029a0:	4083      	lsls	r3, r0
 80029a2:	5888      	ldr	r0, [r1, r2]
 80029a4:	4303      	orrs	r3, r0
 80029a6:	508b      	str	r3, [r1, r2]
   __ASM volatile ("rbit %0, %1" : "=r" (result) : "r" (value) );
 80029a8:	2308      	movs	r3, #8
 80029aa:	fa93 f3a3 	rbit	r3, r3
  return __builtin_clz(value);
 80029ae:	fab3 f383 	clz	r3, r3
  __IO uint32_t *pReg = (__IO uint32_t *)((uint32_t)((uint32_t)(&HRTIMx->sCommonRegs.FLTINR3) +
 80029b2:	491e      	ldr	r1, [pc, #120]	@ (8002a2c <main+0x7ac>)
                                                     REG_OFFSET_TAB_FLTINR[iFault]));
 80029b4:	5ce8      	ldrb	r0, [r5, r3]
  MODIFY_REG(*pReg, (HRTIM_FLTINR3_FLT1BLKS << REG_SHIFT_TAB_FLTxE[iFault]), (Source << REG_SHIFT_TAB_FLTxE[iFault]));
 80029b6:	5ce6      	ldrb	r6, [r4, r3]
 80029b8:	5843      	ldr	r3, [r0, r1]
 80029ba:	2202      	movs	r2, #2
 80029bc:	40b2      	lsls	r2, r6
 80029be:	ea23 0302 	bic.w	r3, r3, r2
 80029c2:	5043      	str	r3, [r0, r1]
  LL_HRTIM_FLT_SetCounterThreshold(HRTIM1, LL_HRTIM_FAULT_4, 0);
 80029c4:	2008      	movs	r0, #8
 80029c6:	f7fe ffb7 	bl	8001938 <LL_HRTIM_FLT_SetCounterThreshold.constprop.0>
  LL_HRTIM_FLT_SetResetMode(HRTIM1, LL_HRTIM_FAULT_4, LL_HRTIM_FLT_COUNTERRST_UNCONDITIONAL);
 80029ca:	2008      	movs	r0, #8
 80029cc:	f7fe ff9a 	bl	8001904 <LL_HRTIM_FLT_SetResetMode.constprop.0>
  LL_HRTIM_FLT_EnableBlanking(HRTIM1, LL_HRTIM_FAULT_4);
 80029d0:	2008      	movs	r0, #8
 80029d2:	f7fe ffcb 	bl	800196c <LL_HRTIM_FLT_EnableBlanking.constprop.0>
  LL_HRTIM_FLT_SetSrc(HRTIM1, LL_HRTIM_FAULT_4, LL_HRTIM_FLT_SRC_DIGITALINPUT);
 80029d6:	2008      	movs	r0, #8
 80029d8:	f7ff f83a 	bl	8001a50 <LL_HRTIM_FLT_SetSrc.constprop.0>
  LL_HRTIM_FLT_SetPolarity(HRTIM1, LL_HRTIM_FAULT_4, LL_HRTIM_FLT_POLARITY_HIGH);
 80029dc:	2008      	movs	r0, #8
 80029de:	f7ff f811 	bl	8001a04 <LL_HRTIM_FLT_SetPolarity.constprop.0>
  LL_HRTIM_FLT_SetFilter(HRTIM1, LL_HRTIM_FAULT_4, LL_HRTIM_FLT_FILTER_NONE);
 80029e2:	2100      	movs	r1, #0
 80029e4:	2008      	movs	r0, #8
 80029e6:	f7fe ffd9 	bl	800199c <LL_HRTIM_FLT_SetFilter.constprop.0>
   __ASM volatile ("rbit %0, %1" : "=r" (result) : "r" (value) );
 80029ea:	2308      	movs	r3, #8
 80029ec:	fa93 f3a3 	rbit	r3, r3
  return __builtin_clz(value);
 80029f0:	fab3 f383 	clz	r3, r3
  __IO uint32_t *pReg = (__IO uint32_t *)((uint32_t)((uint32_t)(&HRTIMx->sCommonRegs.FLTINR1) +
 80029f4:	480c      	ldr	r0, [pc, #48]	@ (8002a28 <main+0x7a8>)
                                                     REG_OFFSET_TAB_FLTINR[iFault]));
 80029f6:	5ced      	ldrb	r5, [r5, r3]
  CLEAR_BIT(*pReg, (HRTIM_FLTINR1_FLT1E << REG_SHIFT_TAB_FLTxE[iFault]));
 80029f8:	5ce2      	ldrb	r2, [r4, r3]
 80029fa:	582b      	ldr	r3, [r5, r0]
  MODIFY_REG(HRTIMx->sCommonRegs.ADCPS1, (uint32_t)mask, (uint32_t)ratio);
 80029fc:	4c07      	ldr	r4, [pc, #28]	@ (8002a1c <main+0x79c>)
  CLEAR_BIT(*pReg, (HRTIM_FLTINR1_FLT1E << REG_SHIFT_TAB_FLTxE[iFault]));
 80029fe:	2101      	movs	r1, #1
 8002a00:	fa01 f202 	lsl.w	r2, r1, r2
 8002a04:	e016      	b.n	8002a34 <main+0x7b4>
 8002a06:	bf00      	nop
 8002a08:	00080000 	.word	0x00080000
 8002a0c:	00000000 	.word	0x00000000
 8002a10:	ffffc000 	.word	0xffffc000
 8002a14:	50000400 	.word	0x50000400
 8002a18:	50000700 	.word	0x50000700
 8002a1c:	40016800 	.word	0x40016800
 8002a20:	08007f24 	.word	0x08007f24
 8002a24:	08007ecc 	.word	0x08007ecc
 8002a28:	40016bd0 	.word	0x40016bd0
 8002a2c:	40016c08 	.word	0x40016c08
 8002a30:	50000100 	.word	0x50000100
 8002a34:	ea23 0302 	bic.w	r3, r3, r2
 8002a38:	502b      	str	r3, [r5, r0]
  MODIFY_REG(*padcur, REG_MASK_TAB_ADCUR[ADCTrig], (Update << REG_SHIFT_TAB_ADCUR[ADCTrig]));
 8002a3a:	4bef      	ldr	r3, [pc, #956]	@ (8002df8 <main+0xb78>)
 8002a3c:	f8d3 2b80 	ldr.w	r2, [r3, #2944]	@ 0xb80
 8002a40:	f422 22e0 	bic.w	r2, r2, #458752	@ 0x70000
 8002a44:	f8c3 2b80 	str.w	r2, [r3, #2944]	@ 0xb80
  MODIFY_REG(*padcer, REG_MASK_TAB_ADCER[ADCTrig], (Src << REG_SHIFT_TAB_ADCER[ADCTrig]));
 8002a48:	f8d3 2bbc 	ldr.w	r2, [r3, #3004]	@ 0xbbc
 8002a4c:	f8c3 1bbc 	str.w	r1, [r3, #3004]	@ 0xbbc
  MODIFY_REG(HRTIMx->sCommonRegs.ADCPS1, (uint32_t)mask, (uint32_t)ratio);
 8002a50:	f8d4 3400 	ldr.w	r3, [r4, #1024]	@ 0x400
 8002a54:	f023 031f 	bic.w	r3, r3, #31
 8002a58:	f8c4 3400 	str.w	r3, [r4, #1024]	@ 0x400
  MODIFY_REG(HRTIMx->sCommonRegs.ADCPS2, (uint32_t)(mask >> 32U), (uint32_t)(ratio >> 32U));
 8002a5c:	f8d4 3404 	ldr.w	r3, [r4, #1028]	@ 0x404
 8002a60:	f8c4 3404 	str.w	r3, [r4, #1028]	@ 0x404
  LL_HRTIM_TIM_SetPrescaler(HRTIM1, LL_HRTIM_TIMER_MASTER, LL_HRTIM_PRESCALERRATIO_MUL2);
 8002a64:	2104      	movs	r1, #4
 8002a66:	f44f 3080 	mov.w	r0, #65536	@ 0x10000
 8002a6a:	f7ff fb69 	bl	8002140 <LL_HRTIM_TIM_SetPrescaler.constprop.0>
  LL_HRTIM_TIM_SetCounterMode(HRTIM1, LL_HRTIM_TIMER_MASTER, LL_HRTIM_MODE_CONTINUOUS);
 8002a6e:	f44f 3080 	mov.w	r0, #65536	@ 0x10000
 8002a72:	f7ff fb4f 	bl	8002114 <LL_HRTIM_TIM_SetCounterMode.constprop.0>
  LL_HRTIM_TIM_SetPeriod(HRTIM1, LL_HRTIM_TIMER_MASTER, HRTIM_PERIOD);
 8002a76:	f7ff fa47 	bl	8001f08 <LL_HRTIM_TIM_SetPeriod.constprop.0>
  LL_HRTIM_TIM_SetRepetition(HRTIM1, LL_HRTIM_TIMER_MASTER, 0x00);
 8002a7a:	f7ff fa31 	bl	8001ee0 <LL_HRTIM_TIM_SetRepetition.constprop.0>
  LL_HRTIM_TIM_DisableHalfMode(HRTIM1, LL_HRTIM_TIMER_MASTER);
 8002a7e:	f7ff fb2b 	bl	80020d8 <LL_HRTIM_TIM_DisableHalfMode.constprop.0>
  LL_HRTIM_TIM_SetInterleavedMode(HRTIM1, LL_HRTIM_TIMER_MASTER, LL_HRTIM_INTERLEAVED_MODE_DISABLED);
 8002a82:	f44f 3080 	mov.w	r0, #65536	@ 0x10000
 8002a86:	f7ff faf9 	bl	800207c <LL_HRTIM_TIM_SetInterleavedMode.constprop.0>
  LL_HRTIM_TIM_DisableStartOnSync(HRTIM1, LL_HRTIM_TIMER_MASTER);
 8002a8a:	f7ff fae3 	bl	8002054 <LL_HRTIM_TIM_DisableStartOnSync.constprop.0>
  LL_HRTIM_TIM_DisableResetOnSync(HRTIM1, LL_HRTIM_TIMER_MASTER);
 8002a8e:	f7ff facd 	bl	800202c <LL_HRTIM_TIM_DisableResetOnSync.constprop.0>
  LL_HRTIM_TIM_SetDACTrig(HRTIM1, LL_HRTIM_TIMER_MASTER, LL_HRTIM_DACTRIG_NONE);
 8002a92:	f7ff fab7 	bl	8002004 <LL_HRTIM_TIM_SetDACTrig.constprop.0>
  LL_HRTIM_TIM_EnablePreload(HRTIM1, LL_HRTIM_TIMER_MASTER);
 8002a96:	f7ff faa1 	bl	8001fdc <LL_HRTIM_TIM_EnablePreload.constprop.0>
  LL_HRTIM_TIM_SetUpdateGating(HRTIM1, LL_HRTIM_TIMER_MASTER, LL_HRTIM_UPDATEGATING_INDEPENDENT);
 8002a9a:	f7ff fa61 	bl	8001f60 <LL_HRTIM_TIM_SetUpdateGating.constprop.0>
  LL_HRTIM_TIM_SetUpdateTrig(HRTIM1, LL_HRTIM_TIMER_MASTER, LL_HRTIM_UPDATETRIG_REPETITION);
 8002a9e:	f44f 3100 	mov.w	r1, #131072	@ 0x20000
 8002aa2:	f7ff fa77 	bl	8001f94 <LL_HRTIM_TIM_SetUpdateTrig.constprop.0>
   __ASM volatile ("rbit %0, %1" : "=r" (result) : "r" (value) );
 8002aa6:	f44f 3380 	mov.w	r3, #65536	@ 0x10000
 8002aaa:	fa93 f3a3 	rbit	r3, r3
  MODIFY_REG(HRTIMx->sCommonRegs.BMCR, Timer, BurtsModeOption << iTimer);
 8002aae:	f8d4 33a0 	ldr.w	r3, [r4, #928]	@ 0x3a0
 8002ab2:	f423 3380 	bic.w	r3, r3, #65536	@ 0x10000
 8002ab6:	f8c4 33a0 	str.w	r3, [r4, #928]	@ 0x3a0
  SET_BIT(HRTIMx->sCommonRegs.CR2, ((Timers >> HRTIM_MCR_MCEN_Pos) & HRTIM_CR2_SWUPD_MASK));
 8002aba:	f8d4 3384 	ldr.w	r3, [r4, #900]	@ 0x384
 8002abe:	f043 0301 	orr.w	r3, r3, #1
 8002ac2:	f8c4 3384 	str.w	r3, [r4, #900]	@ 0x384
  return ((READ_BIT(HRTIMx->sCommonRegs.ISR, HRTIM_ISR_DLLRDY) == (HRTIM_ISR_DLLRDY)) ? 1UL : 0UL);
 8002ac6:	f8d4 3388 	ldr.w	r3, [r4, #904]	@ 0x388
 8002aca:	03d8      	lsls	r0, r3, #15
 8002acc:	d5fb      	bpl.n	8002ac6 <main+0x846>
  LL_HRTIM_TIM_SetPrescaler(HRTIM1, LL_HRTIM_TIMER_A, LL_HRTIM_PRESCALERRATIO_MUL4);
 8002ace:	2103      	movs	r1, #3
 8002ad0:	f44f 3000 	mov.w	r0, #131072	@ 0x20000
 8002ad4:	f7ff fb34 	bl	8002140 <LL_HRTIM_TIM_SetPrescaler.constprop.0>
  LL_HRTIM_TIM_SetCounterMode(HRTIM1, LL_HRTIM_TIMER_A, LL_HRTIM_MODE_CONTINUOUS);
 8002ad8:	f44f 3000 	mov.w	r0, #131072	@ 0x20000
 8002adc:	f7ff fb1a 	bl	8002114 <LL_HRTIM_TIM_SetCounterMode.constprop.0>
  LL_HRTIM_TIM_SetPeriod(HRTIM1, LL_HRTIM_TIMER_A, HRTIM_PERIOD);
 8002ae0:	f7ff fa12 	bl	8001f08 <LL_HRTIM_TIM_SetPeriod.constprop.0>
  LL_HRTIM_TIM_SetRepetition(HRTIM1, LL_HRTIM_TIMER_A, 0x00);
 8002ae4:	f7ff f9fc 	bl	8001ee0 <LL_HRTIM_TIM_SetRepetition.constprop.0>
  LL_HRTIM_TIM_SetUpdateGating(HRTIM1, LL_HRTIM_TIMER_A, LL_HRTIM_UPDATEGATING_INDEPENDENT);
 8002ae8:	f7ff fa3a 	bl	8001f60 <LL_HRTIM_TIM_SetUpdateGating.constprop.0>
  LL_HRTIM_TIM_SetCountingMode(HRTIM1, LL_HRTIM_TIMER_A, LL_HRTIM_COUNTING_MODE_UP_DOWN);
 8002aec:	f7ff f91a 	bl	8001d24 <LL_HRTIM_TIM_SetCountingMode.constprop.0>
  LL_HRTIM_TIM_SetComp1Mode(HRTIM1, LL_HRTIM_TIMER_A, LL_HRTIM_GTCMP1_EQUAL);
 8002af0:	f7ff f9b4 	bl	8001e5c <LL_HRTIM_TIM_SetComp1Mode.constprop.0>
  LL_HRTIM_TIM_SetRollOverMode(HRTIM1, LL_HRTIM_TIMER_A, LL_HRTIM_ROLLOVER_MODE_BOTH);
 8002af4:	f7ff f998 	bl	8001e28 <LL_HRTIM_TIM_SetRollOverMode.constprop.0>
  LL_HRTIM_TIM_SetFaultEventRollOverMode(HRTIM1, LL_HRTIM_TIMER_A, LL_HRTIM_ROLLOVER_MODE_BOTH);
 8002af8:	f7ff f97c 	bl	8001df4 <LL_HRTIM_TIM_SetFaultEventRollOverMode.constprop.0>
  LL_HRTIM_TIM_SetBMRollOverMode(HRTIM1, LL_HRTIM_TIMER_A, LL_HRTIM_ROLLOVER_MODE_BOTH);
 8002afc:	f7ff f960 	bl	8001dc0 <LL_HRTIM_TIM_SetBMRollOverMode.constprop.0>
  LL_HRTIM_TIM_SetADCRollOverMode(HRTIM1, LL_HRTIM_TIMER_A, LL_HRTIM_ROLLOVER_MODE_BOTH);
 8002b00:	f7ff f944 	bl	8001d8c <LL_HRTIM_TIM_SetADCRollOverMode.constprop.0>
  LL_HRTIM_TIM_SetOutputRollOverMode(HRTIM1, LL_HRTIM_TIMER_A, LL_HRTIM_ROLLOVER_MODE_BOTH);
 8002b04:	f7ff f928 	bl	8001d58 <LL_HRTIM_TIM_SetOutputRollOverMode.constprop.0>
  LL_HRTIM_TIM_SetDACTrig(HRTIM1, LL_HRTIM_TIMER_A, LL_HRTIM_DACTRIG_NONE);
 8002b08:	f7ff fa7c 	bl	8002004 <LL_HRTIM_TIM_SetDACTrig.constprop.0>
  LL_HRTIM_TIM_DisableHalfMode(HRTIM1, LL_HRTIM_TIMER_A);
 8002b0c:	f7ff fae4 	bl	80020d8 <LL_HRTIM_TIM_DisableHalfMode.constprop.0>
  LL_HRTIM_TIM_SetInterleavedMode(HRTIM1, LL_HRTIM_TIMER_A, LL_HRTIM_INTERLEAVED_MODE_DISABLED);
 8002b10:	f44f 3000 	mov.w	r0, #131072	@ 0x20000
 8002b14:	f7ff fab2 	bl	800207c <LL_HRTIM_TIM_SetInterleavedMode.constprop.0>
  LL_HRTIM_TIM_SetUpdateTrig(HRTIM1, LL_HRTIM_TIMER_A, LL_HRTIM_UPDATETRIG_NONE|LL_HRTIM_UPDATETRIG_NONE|LL_HRTIM_UPDATETRIG_RESET);
 8002b18:	f44f 2180 	mov.w	r1, #262144	@ 0x40000
  LL_HRTIM_TIM_DisableStartOnSync(HRTIM1, LL_HRTIM_TIMER_A);
 8002b1c:	f7ff fa9a 	bl	8002054 <LL_HRTIM_TIM_DisableStartOnSync.constprop.0>
  LL_HRTIM_TIM_DisableResetOnSync(HRTIM1, LL_HRTIM_TIMER_A);
 8002b20:	f7ff fa84 	bl	800202c <LL_HRTIM_TIM_DisableResetOnSync.constprop.0>
  LL_HRTIM_TIM_EnablePreload(HRTIM1, LL_HRTIM_TIMER_A);
 8002b24:	f7ff fa5a 	bl	8001fdc <LL_HRTIM_TIM_EnablePreload.constprop.0>
  LL_HRTIM_TIM_SetUpdateTrig(HRTIM1, LL_HRTIM_TIMER_A, LL_HRTIM_UPDATETRIG_NONE|LL_HRTIM_UPDATETRIG_NONE|LL_HRTIM_UPDATETRIG_RESET);
 8002b28:	f7ff fa34 	bl	8001f94 <LL_HRTIM_TIM_SetUpdateTrig.constprop.0>
 8002b2c:	f44f 3300 	mov.w	r3, #131072	@ 0x20000
 8002b30:	fa93 f3a3 	rbit	r3, r3
  return __builtin_clz(value);
 8002b34:	fab3 f383 	clz	r3, r3
  uint32_t iTimer = (uint8_t)(POSITION_VAL(Timer) - HRTIM_MCR_TACEN_Pos);
 8002b38:	3b11      	subs	r3, #17
                                                     REG_OFFSET_TAB_TIMER[iTimer]));
 8002b3a:	4db0      	ldr	r5, [pc, #704]	@ (8002dfc <main+0xb7c>)
  uint32_t iTimer = (uint8_t)(POSITION_VAL(Timer) - HRTIM_MCR_TACEN_Pos);
 8002b3c:	b2db      	uxtb	r3, r3
  WRITE_REG(*pReg, ResetTrig);
 8002b3e:	2110      	movs	r1, #16
                                                     REG_OFFSET_TAB_TIMER[iTimer]));
 8002b40:	f835 2013 	ldrh.w	r2, [r5, r3, lsl #1]
  __IO uint32_t *pReg = (__IO uint32_t *)((uint32_t)((uint32_t)(&HRTIMx->sTimerxRegs[0].RSTxR) +
 8002b44:	4bae      	ldr	r3, [pc, #696]	@ (8002e00 <main+0xb80>)
  LL_HRTIM_TIM_DisablePushPullMode(HRTIM1, LL_HRTIM_TIMER_A);
 8002b46:	f44f 3000 	mov.w	r0, #131072	@ 0x20000
  WRITE_REG(*pReg, ResetTrig);
 8002b4a:	50d1      	str	r1, [r2, r3]
 8002b4c:	f7ff f9f4 	bl	8001f38 <LL_HRTIM_TIM_DisablePushPullMode.constprop.0>
  LL_HRTIM_TIM_EnableDeadTime(HRTIM1, LL_HRTIM_TIMER_A);
 8002b50:	f7ff f9b2 	bl	8001eb8 <LL_HRTIM_TIM_EnableDeadTime.constprop.0>
  LL_HRTIM_TIM_EnableFault(HRTIM1, LL_HRTIM_TIMER_A, LL_HRTIM_FAULT_1);
 8002b54:	f7ff f99c 	bl	8001e90 <LL_HRTIM_TIM_EnableFault.constprop.0>
   __ASM volatile ("rbit %0, %1" : "=r" (result) : "r" (value) );
 8002b58:	fa90 f3a0 	rbit	r3, r0
  MODIFY_REG(HRTIMx->sCommonRegs.BMCR, Timer, BurtsModeOption << iTimer);
 8002b5c:	4ba9      	ldr	r3, [pc, #676]	@ (8002e04 <main+0xb84>)
 8002b5e:	f8d3 23a0 	ldr.w	r2, [r3, #928]	@ 0x3a0
 8002b62:	f422 3200 	bic.w	r2, r2, #131072	@ 0x20000
 8002b66:	f8c3 23a0 	str.w	r2, [r3, #928]	@ 0x3a0
  SET_BIT(HRTIMx->sCommonRegs.CR2, ((Timers >> HRTIM_MCR_MCEN_Pos) & HRTIM_CR2_SWUPD_MASK));
 8002b6a:	f8d3 2384 	ldr.w	r2, [r3, #900]	@ 0x384
 8002b6e:	f042 0202 	orr.w	r2, r2, #2
 8002b72:	f8c3 2384 	str.w	r2, [r3, #900]	@ 0x384
  LL_HRTIM_TIM_DisableResyncUpdate(HRTIM1, LL_HRTIM_TIMER_A);
 8002b76:	f7ff fa9b 	bl	80020b0 <LL_HRTIM_TIM_DisableResyncUpdate.constprop.0>
 8002b7a:	fa90 f3a0 	rbit	r3, r0
  return __builtin_clz(value);
 8002b7e:	fab3 f383 	clz	r3, r3
  uint32_t iTimer = (uint8_t)(POSITION_VAL(Timer) - HRTIM_MCR_MCEN_Pos);
 8002b82:	3b10      	subs	r3, #16
 8002b84:	b2db      	uxtb	r3, r3
  __IO uint32_t *pReg = (__IO uint32_t *)((uint32_t)((uint32_t)(&HRTIMx->sMasterRegs.MCMP1R) +
 8002b86:	4aa0      	ldr	r2, [pc, #640]	@ (8002e08 <main+0xb88>)
                                                     REG_OFFSET_TAB_TIMER[iTimer]));
 8002b88:	f835 1013 	ldrh.w	r1, [r5, r3, lsl #1]
  MODIFY_REG(* pReg, HRTIM_MCMP1R_MCMP1R, CompareValue);
 8002b8c:	588b      	ldr	r3, [r1, r2]
 8002b8e:	f36f 030f 	bfc	r3, #0, #16
 8002b92:	f443 5304 	orr.w	r3, r3, #8448	@ 0x2100
 8002b96:	f043 0334 	orr.w	r3, r3, #52	@ 0x34
 8002b9a:	508b      	str	r3, [r1, r2]
  LL_HRTIM_DT_SetPrescaler(HRTIM1, LL_HRTIM_TIMER_A, LL_HRTIM_DT_PRESCALER_DIV1);
 8002b9c:	f7ff f8ac 	bl	8001cf8 <LL_HRTIM_DT_SetPrescaler.constprop.0>
  LL_HRTIM_DT_SetRisingValue(HRTIM1, LL_HRTIM_TIMER_A, HRTIM_DEADTIME);
 8002ba0:	f7ff f894 	bl	8001ccc <LL_HRTIM_DT_SetRisingValue.constprop.0>
  LL_HRTIM_DT_SetRisingSign(HRTIM1, LL_HRTIM_TIMER_A, LL_HRTIM_DT_RISING_POSITIVE);
 8002ba4:	f7ff f87e 	bl	8001ca4 <LL_HRTIM_DT_SetRisingSign.constprop.0>
  LL_HRTIM_DT_SetFallingValue(HRTIM1, LL_HRTIM_TIMER_A, HRTIM_DEADTIME);
 8002ba8:	f7ff f866 	bl	8001c78 <LL_HRTIM_DT_SetFallingValue.constprop.0>
  LL_HRTIM_DT_SetFallingSign(HRTIM1, LL_HRTIM_TIMER_A, LL_HRTIM_DT_FALLING_POSITIVE);
 8002bac:	f7ff f850 	bl	8001c50 <LL_HRTIM_DT_SetFallingSign.constprop.0>
  LL_HRTIM_OUT_SetPolarity(HRTIM1, LL_HRTIM_OUTPUT_TA1, LL_HRTIM_OUT_POSITIVE_POLARITY);
 8002bb0:	2001      	movs	r0, #1
 8002bb2:	f7ff f801 	bl	8001bb8 <LL_HRTIM_OUT_SetPolarity.constprop.0>
  LL_HRTIM_OUT_SetOutputSetSrc(HRTIM1, LL_HRTIM_OUTPUT_TA1, LL_HRTIM_OUTPUTSET_NONE);
 8002bb6:	2001      	movs	r0, #1
 8002bb8:	f7ff f834 	bl	8001c24 <LL_HRTIM_OUT_SetOutputSetSrc.constprop.0>
  LL_HRTIM_OUT_SetOutputResetSrc(HRTIM1, LL_HRTIM_OUTPUT_TA1, LL_HRTIM_OUTPUTRESET_TIMCMP1);
 8002bbc:	2108      	movs	r1, #8
 8002bbe:	f7ff f81b 	bl	8001bf8 <LL_HRTIM_OUT_SetOutputResetSrc.constprop.0>
  LL_HRTIM_OUT_SetIdleMode(HRTIM1, LL_HRTIM_OUTPUT_TA1, LL_HRTIM_OUT_NO_IDLE);
 8002bc2:	2001      	movs	r0, #1
 8002bc4:	f7fe ffd8 	bl	8001b78 <LL_HRTIM_OUT_SetIdleMode.constprop.0>
  LL_HRTIM_OUT_SetIdleLevel(HRTIM1, LL_HRTIM_OUTPUT_TA1, LL_HRTIM_OUT_IDLELEVEL_INACTIVE);
 8002bc8:	2001      	movs	r0, #1
 8002bca:	f7fe ffb5 	bl	8001b38 <LL_HRTIM_OUT_SetIdleLevel.constprop.0>
  LL_HRTIM_OUT_SetFaultState(HRTIM1, LL_HRTIM_OUTPUT_TA1, LL_HRTIM_OUT_FAULTSTATE_INACTIVE);
 8002bce:	2001      	movs	r0, #1
 8002bd0:	f7fe ff8e 	bl	8001af0 <LL_HRTIM_OUT_SetFaultState.constprop.0>
  LL_HRTIM_OUT_SetChopperMode(HRTIM1, LL_HRTIM_OUTPUT_TA1, LL_HRTIM_OUT_CHOPPERMODE_DISABLED);
 8002bd4:	2001      	movs	r0, #1
 8002bd6:	f7fe ff6b 	bl	8001ab0 <LL_HRTIM_OUT_SetChopperMode.constprop.0>
  LL_HRTIM_OUT_SetPolarity(HRTIM1, LL_HRTIM_OUTPUT_TA2, LL_HRTIM_OUT_POSITIVE_POLARITY);
 8002bda:	2002      	movs	r0, #2
 8002bdc:	f7fe ffec 	bl	8001bb8 <LL_HRTIM_OUT_SetPolarity.constprop.0>
  LL_HRTIM_OUT_SetOutputSetSrc(HRTIM1, LL_HRTIM_OUTPUT_TA2, LL_HRTIM_OUTPUTSET_NONE);
 8002be0:	2002      	movs	r0, #2
 8002be2:	f7ff f81f 	bl	8001c24 <LL_HRTIM_OUT_SetOutputSetSrc.constprop.0>
  LL_HRTIM_OUT_SetOutputResetSrc(HRTIM1, LL_HRTIM_OUTPUT_TA2, LL_HRTIM_OUTPUTRESET_NONE);
 8002be6:	2100      	movs	r1, #0
 8002be8:	f7ff f806 	bl	8001bf8 <LL_HRTIM_OUT_SetOutputResetSrc.constprop.0>
  LL_HRTIM_OUT_SetIdleMode(HRTIM1, LL_HRTIM_OUTPUT_TA2, LL_HRTIM_OUT_NO_IDLE);
 8002bec:	2002      	movs	r0, #2
 8002bee:	f7fe ffc3 	bl	8001b78 <LL_HRTIM_OUT_SetIdleMode.constprop.0>
  LL_HRTIM_OUT_SetIdleLevel(HRTIM1, LL_HRTIM_OUTPUT_TA2, LL_HRTIM_OUT_IDLELEVEL_INACTIVE);
 8002bf2:	2002      	movs	r0, #2
 8002bf4:	f7fe ffa0 	bl	8001b38 <LL_HRTIM_OUT_SetIdleLevel.constprop.0>
  LL_HRTIM_OUT_SetFaultState(HRTIM1, LL_HRTIM_OUTPUT_TA2, LL_HRTIM_OUT_FAULTSTATE_INACTIVE);
 8002bf8:	2002      	movs	r0, #2
 8002bfa:	f7fe ff79 	bl	8001af0 <LL_HRTIM_OUT_SetFaultState.constprop.0>
  LL_HRTIM_OUT_SetChopperMode(HRTIM1, LL_HRTIM_OUTPUT_TA2, LL_HRTIM_OUT_CHOPPERMODE_DISABLED);
 8002bfe:	2002      	movs	r0, #2
 8002c00:	f7fe ff56 	bl	8001ab0 <LL_HRTIM_OUT_SetChopperMode.constprop.0>
  return ((READ_BIT(HRTIMx->sCommonRegs.ISR, HRTIM_ISR_DLLRDY) == (HRTIM_ISR_DLLRDY)) ? 1UL : 0UL);
 8002c04:	4a7f      	ldr	r2, [pc, #508]	@ (8002e04 <main+0xb84>)
 8002c06:	f8d2 3388 	ldr.w	r3, [r2, #904]	@ 0x388
 8002c0a:	03d9      	lsls	r1, r3, #15
 8002c0c:	d5fb      	bpl.n	8002c06 <main+0x986>
  LL_HRTIM_TIM_SetPrescaler(HRTIM1, LL_HRTIM_TIMER_B, LL_HRTIM_PRESCALERRATIO_MUL4);
 8002c0e:	2103      	movs	r1, #3
 8002c10:	f44f 2080 	mov.w	r0, #262144	@ 0x40000
 8002c14:	f7ff fa94 	bl	8002140 <LL_HRTIM_TIM_SetPrescaler.constprop.0>
  LL_HRTIM_TIM_SetCounterMode(HRTIM1, LL_HRTIM_TIMER_B, LL_HRTIM_MODE_CONTINUOUS);
 8002c18:	f44f 2080 	mov.w	r0, #262144	@ 0x40000
 8002c1c:	f7ff fa7a 	bl	8002114 <LL_HRTIM_TIM_SetCounterMode.constprop.0>
  LL_HRTIM_TIM_SetPeriod(HRTIM1, LL_HRTIM_TIMER_B, HRTIM_PERIOD);
 8002c20:	f7ff f972 	bl	8001f08 <LL_HRTIM_TIM_SetPeriod.constprop.0>
  LL_HRTIM_TIM_SetRepetition(HRTIM1, LL_HRTIM_TIMER_B, 0x00);
 8002c24:	f7ff f95c 	bl	8001ee0 <LL_HRTIM_TIM_SetRepetition.constprop.0>
  LL_HRTIM_TIM_SetUpdateGating(HRTIM1, LL_HRTIM_TIMER_B, LL_HRTIM_UPDATEGATING_INDEPENDENT);
 8002c28:	f7ff f99a 	bl	8001f60 <LL_HRTIM_TIM_SetUpdateGating.constprop.0>
  LL_HRTIM_TIM_SetCountingMode(HRTIM1, LL_HRTIM_TIMER_B, LL_HRTIM_COUNTING_MODE_UP_DOWN);
 8002c2c:	f7ff f87a 	bl	8001d24 <LL_HRTIM_TIM_SetCountingMode.constprop.0>
  LL_HRTIM_TIM_SetComp1Mode(HRTIM1, LL_HRTIM_TIMER_B, LL_HRTIM_GTCMP1_EQUAL);
 8002c30:	f7ff f914 	bl	8001e5c <LL_HRTIM_TIM_SetComp1Mode.constprop.0>
  LL_HRTIM_TIM_SetRollOverMode(HRTIM1, LL_HRTIM_TIMER_B, LL_HRTIM_ROLLOVER_MODE_BOTH);
 8002c34:	f7ff f8f8 	bl	8001e28 <LL_HRTIM_TIM_SetRollOverMode.constprop.0>
  LL_HRTIM_TIM_SetFaultEventRollOverMode(HRTIM1, LL_HRTIM_TIMER_B, LL_HRTIM_ROLLOVER_MODE_BOTH);
 8002c38:	f7ff f8dc 	bl	8001df4 <LL_HRTIM_TIM_SetFaultEventRollOverMode.constprop.0>
  LL_HRTIM_TIM_SetBMRollOverMode(HRTIM1, LL_HRTIM_TIMER_B, LL_HRTIM_ROLLOVER_MODE_BOTH);
 8002c3c:	f7ff f8c0 	bl	8001dc0 <LL_HRTIM_TIM_SetBMRollOverMode.constprop.0>
  LL_HRTIM_TIM_SetADCRollOverMode(HRTIM1, LL_HRTIM_TIMER_B, LL_HRTIM_ROLLOVER_MODE_BOTH);
 8002c40:	f7ff f8a4 	bl	8001d8c <LL_HRTIM_TIM_SetADCRollOverMode.constprop.0>
  LL_HRTIM_TIM_SetOutputRollOverMode(HRTIM1, LL_HRTIM_TIMER_B, LL_HRTIM_ROLLOVER_MODE_BOTH);
 8002c44:	f7ff f888 	bl	8001d58 <LL_HRTIM_TIM_SetOutputRollOverMode.constprop.0>
  LL_HRTIM_TIM_SetDACTrig(HRTIM1, LL_HRTIM_TIMER_B, LL_HRTIM_DACTRIG_NONE);
 8002c48:	f7ff f9dc 	bl	8002004 <LL_HRTIM_TIM_SetDACTrig.constprop.0>
  LL_HRTIM_TIM_DisableHalfMode(HRTIM1, LL_HRTIM_TIMER_B);
 8002c4c:	f7ff fa44 	bl	80020d8 <LL_HRTIM_TIM_DisableHalfMode.constprop.0>
  LL_HRTIM_TIM_SetInterleavedMode(HRTIM1, LL_HRTIM_TIMER_B, LL_HRTIM_INTERLEAVED_MODE_DISABLED);
 8002c50:	f44f 2080 	mov.w	r0, #262144	@ 0x40000
 8002c54:	f7ff fa12 	bl	800207c <LL_HRTIM_TIM_SetInterleavedMode.constprop.0>
  LL_HRTIM_TIM_SetUpdateTrig(HRTIM1, LL_HRTIM_TIMER_B, LL_HRTIM_UPDATETRIG_NONE|LL_HRTIM_UPDATETRIG_NONE|LL_HRTIM_UPDATETRIG_RESET);
 8002c58:	4601      	mov	r1, r0
  LL_HRTIM_TIM_DisableStartOnSync(HRTIM1, LL_HRTIM_TIMER_B);
 8002c5a:	f7ff f9fb 	bl	8002054 <LL_HRTIM_TIM_DisableStartOnSync.constprop.0>
  LL_HRTIM_TIM_DisableResetOnSync(HRTIM1, LL_HRTIM_TIMER_B);
 8002c5e:	f7ff f9e5 	bl	800202c <LL_HRTIM_TIM_DisableResetOnSync.constprop.0>
  LL_HRTIM_TIM_EnablePreload(HRTIM1, LL_HRTIM_TIMER_B);
 8002c62:	f7ff f9bb 	bl	8001fdc <LL_HRTIM_TIM_EnablePreload.constprop.0>
  LL_HRTIM_TIM_SetUpdateTrig(HRTIM1, LL_HRTIM_TIMER_B, LL_HRTIM_UPDATETRIG_NONE|LL_HRTIM_UPDATETRIG_NONE|LL_HRTIM_UPDATETRIG_RESET);
 8002c66:	f7ff f995 	bl	8001f94 <LL_HRTIM_TIM_SetUpdateTrig.constprop.0>
   __ASM volatile ("rbit %0, %1" : "=r" (result) : "r" (value) );
 8002c6a:	f44f 2380 	mov.w	r3, #262144	@ 0x40000
 8002c6e:	fa93 f3a3 	rbit	r3, r3
  return __builtin_clz(value);
 8002c72:	fab3 f383 	clz	r3, r3
  uint32_t iTimer = (uint8_t)(POSITION_VAL(Timer) - HRTIM_MCR_TACEN_Pos);
 8002c76:	3b11      	subs	r3, #17
 8002c78:	b2db      	uxtb	r3, r3
  WRITE_REG(*pReg, ResetTrig);
 8002c7a:	2110      	movs	r1, #16
                                                     REG_OFFSET_TAB_TIMER[iTimer]));
 8002c7c:	f835 2013 	ldrh.w	r2, [r5, r3, lsl #1]
  __IO uint32_t *pReg = (__IO uint32_t *)((uint32_t)((uint32_t)(&HRTIMx->sTimerxRegs[0].RSTxR) +
 8002c80:	4b5f      	ldr	r3, [pc, #380]	@ (8002e00 <main+0xb80>)
  LL_HRTIM_TIM_DisablePushPullMode(HRTIM1, LL_HRTIM_TIMER_B);
 8002c82:	f44f 2080 	mov.w	r0, #262144	@ 0x40000
  WRITE_REG(*pReg, ResetTrig);
 8002c86:	50d1      	str	r1, [r2, r3]
 8002c88:	f7ff f956 	bl	8001f38 <LL_HRTIM_TIM_DisablePushPullMode.constprop.0>
  LL_HRTIM_TIM_EnableDeadTime(HRTIM1, LL_HRTIM_TIMER_B);
 8002c8c:	f7ff f914 	bl	8001eb8 <LL_HRTIM_TIM_EnableDeadTime.constprop.0>
  LL_HRTIM_TIM_EnableFault(HRTIM1, LL_HRTIM_TIMER_B, LL_HRTIM_FAULT_1);
 8002c90:	f7ff f8fe 	bl	8001e90 <LL_HRTIM_TIM_EnableFault.constprop.0>
   __ASM volatile ("rbit %0, %1" : "=r" (result) : "r" (value) );
 8002c94:	fa90 f3a0 	rbit	r3, r0
  MODIFY_REG(HRTIMx->sCommonRegs.BMCR, Timer, BurtsModeOption << iTimer);
 8002c98:	4c5a      	ldr	r4, [pc, #360]	@ (8002e04 <main+0xb84>)
 8002c9a:	f8d4 33a0 	ldr.w	r3, [r4, #928]	@ 0x3a0
 8002c9e:	f423 2380 	bic.w	r3, r3, #262144	@ 0x40000
 8002ca2:	f8c4 33a0 	str.w	r3, [r4, #928]	@ 0x3a0
  SET_BIT(HRTIMx->sCommonRegs.CR2, ((Timers >> HRTIM_MCR_MCEN_Pos) & HRTIM_CR2_SWUPD_MASK));
 8002ca6:	f8d4 3384 	ldr.w	r3, [r4, #900]	@ 0x384
 8002caa:	f043 0304 	orr.w	r3, r3, #4
 8002cae:	f8c4 3384 	str.w	r3, [r4, #900]	@ 0x384
  LL_HRTIM_TIM_DisableResyncUpdate(HRTIM1, LL_HRTIM_TIMER_B);
 8002cb2:	f7ff f9fd 	bl	80020b0 <LL_HRTIM_TIM_DisableResyncUpdate.constprop.0>
  LL_HRTIM_DT_SetPrescaler(HRTIM1, LL_HRTIM_TIMER_B, LL_HRTIM_DT_PRESCALER_DIV1);
 8002cb6:	f7ff f81f 	bl	8001cf8 <LL_HRTIM_DT_SetPrescaler.constprop.0>
  LL_HRTIM_DT_SetRisingValue(HRTIM1, LL_HRTIM_TIMER_B, HRTIM_DEADTIME);
 8002cba:	f7ff f807 	bl	8001ccc <LL_HRTIM_DT_SetRisingValue.constprop.0>
  LL_HRTIM_DT_SetRisingSign(HRTIM1, LL_HRTIM_TIMER_B, LL_HRTIM_DT_RISING_POSITIVE);
 8002cbe:	f7fe fff1 	bl	8001ca4 <LL_HRTIM_DT_SetRisingSign.constprop.0>
  LL_HRTIM_DT_SetFallingValue(HRTIM1, LL_HRTIM_TIMER_B, HRTIM_DEADTIME);
 8002cc2:	f7fe ffd9 	bl	8001c78 <LL_HRTIM_DT_SetFallingValue.constprop.0>
  LL_HRTIM_DT_SetFallingSign(HRTIM1, LL_HRTIM_TIMER_B, LL_HRTIM_DT_FALLING_POSITIVE);
 8002cc6:	f7fe ffc3 	bl	8001c50 <LL_HRTIM_DT_SetFallingSign.constprop.0>
  LL_HRTIM_OUT_SetPolarity(HRTIM1, LL_HRTIM_OUTPUT_TB1, LL_HRTIM_OUT_POSITIVE_POLARITY);
 8002cca:	2004      	movs	r0, #4
 8002ccc:	f7fe ff74 	bl	8001bb8 <LL_HRTIM_OUT_SetPolarity.constprop.0>
  LL_HRTIM_OUT_SetOutputSetSrc(HRTIM1, LL_HRTIM_OUTPUT_TB1, LL_HRTIM_OUTPUTSET_NONE);
 8002cd0:	2004      	movs	r0, #4
 8002cd2:	f7fe ffa7 	bl	8001c24 <LL_HRTIM_OUT_SetOutputSetSrc.constprop.0>
  LL_HRTIM_OUT_SetOutputResetSrc(HRTIM1, LL_HRTIM_OUTPUT_TB1, LL_HRTIM_OUTPUTRESET_TIMCMP1);
 8002cd6:	2108      	movs	r1, #8
 8002cd8:	f7fe ff8e 	bl	8001bf8 <LL_HRTIM_OUT_SetOutputResetSrc.constprop.0>
  LL_HRTIM_OUT_SetIdleMode(HRTIM1, LL_HRTIM_OUTPUT_TB1, LL_HRTIM_OUT_NO_IDLE);
 8002cdc:	2004      	movs	r0, #4
 8002cde:	f7fe ff4b 	bl	8001b78 <LL_HRTIM_OUT_SetIdleMode.constprop.0>
  LL_HRTIM_OUT_SetIdleLevel(HRTIM1, LL_HRTIM_OUTPUT_TB1, LL_HRTIM_OUT_IDLELEVEL_INACTIVE);
 8002ce2:	2004      	movs	r0, #4
 8002ce4:	f7fe ff28 	bl	8001b38 <LL_HRTIM_OUT_SetIdleLevel.constprop.0>
  LL_HRTIM_OUT_SetFaultState(HRTIM1, LL_HRTIM_OUTPUT_TB1, LL_HRTIM_OUT_FAULTSTATE_INACTIVE);
 8002ce8:	2004      	movs	r0, #4
 8002cea:	f7fe ff01 	bl	8001af0 <LL_HRTIM_OUT_SetFaultState.constprop.0>
  LL_HRTIM_OUT_SetChopperMode(HRTIM1, LL_HRTIM_OUTPUT_TB1, LL_HRTIM_OUT_CHOPPERMODE_DISABLED);
 8002cee:	2004      	movs	r0, #4
 8002cf0:	f7fe fede 	bl	8001ab0 <LL_HRTIM_OUT_SetChopperMode.constprop.0>
  LL_HRTIM_OUT_SetPolarity(HRTIM1, LL_HRTIM_OUTPUT_TB2, LL_HRTIM_OUT_POSITIVE_POLARITY);
 8002cf4:	2008      	movs	r0, #8
 8002cf6:	f7fe ff5f 	bl	8001bb8 <LL_HRTIM_OUT_SetPolarity.constprop.0>
  LL_HRTIM_OUT_SetOutputSetSrc(HRTIM1, LL_HRTIM_OUTPUT_TB2, LL_HRTIM_OUTPUTSET_NONE);
 8002cfa:	2008      	movs	r0, #8
 8002cfc:	f7fe ff92 	bl	8001c24 <LL_HRTIM_OUT_SetOutputSetSrc.constprop.0>
  LL_HRTIM_OUT_SetOutputResetSrc(HRTIM1, LL_HRTIM_OUTPUT_TB2, LL_HRTIM_OUTPUTRESET_NONE);
 8002d00:	2100      	movs	r1, #0
 8002d02:	f7fe ff79 	bl	8001bf8 <LL_HRTIM_OUT_SetOutputResetSrc.constprop.0>
  LL_HRTIM_OUT_SetIdleMode(HRTIM1, LL_HRTIM_OUTPUT_TB2, LL_HRTIM_OUT_NO_IDLE);
 8002d06:	2008      	movs	r0, #8
 8002d08:	f7fe ff36 	bl	8001b78 <LL_HRTIM_OUT_SetIdleMode.constprop.0>
  LL_HRTIM_OUT_SetIdleLevel(HRTIM1, LL_HRTIM_OUTPUT_TB2, LL_HRTIM_OUT_IDLELEVEL_INACTIVE);
 8002d0c:	2008      	movs	r0, #8
 8002d0e:	f7fe ff13 	bl	8001b38 <LL_HRTIM_OUT_SetIdleLevel.constprop.0>
  LL_HRTIM_OUT_SetFaultState(HRTIM1, LL_HRTIM_OUTPUT_TB2, LL_HRTIM_OUT_FAULTSTATE_INACTIVE);
 8002d12:	2008      	movs	r0, #8
 8002d14:	f7fe feec 	bl	8001af0 <LL_HRTIM_OUT_SetFaultState.constprop.0>
  LL_HRTIM_OUT_SetChopperMode(HRTIM1, LL_HRTIM_OUTPUT_TB2, LL_HRTIM_OUT_CHOPPERMODE_DISABLED);
 8002d18:	2008      	movs	r0, #8
 8002d1a:	f7fe fec9 	bl	8001ab0 <LL_HRTIM_OUT_SetChopperMode.constprop.0>
  return ((READ_BIT(HRTIMx->sCommonRegs.ISR, HRTIM_ISR_DLLRDY) == (HRTIM_ISR_DLLRDY)) ? 1UL : 0UL);
 8002d1e:	f8d4 3388 	ldr.w	r3, [r4, #904]	@ 0x388
 8002d22:	03db      	lsls	r3, r3, #15
 8002d24:	d5fb      	bpl.n	8002d1e <main+0xa9e>
  LL_HRTIM_TIM_SetPrescaler(HRTIM1, LL_HRTIM_TIMER_C, LL_HRTIM_PRESCALERRATIO_MUL4);
 8002d26:	2103      	movs	r1, #3
 8002d28:	f44f 2000 	mov.w	r0, #524288	@ 0x80000
 8002d2c:	f7ff fa08 	bl	8002140 <LL_HRTIM_TIM_SetPrescaler.constprop.0>
  LL_HRTIM_TIM_SetCounterMode(HRTIM1, LL_HRTIM_TIMER_C, LL_HRTIM_MODE_CONTINUOUS);
 8002d30:	f44f 2000 	mov.w	r0, #524288	@ 0x80000
 8002d34:	f7ff f9ee 	bl	8002114 <LL_HRTIM_TIM_SetCounterMode.constprop.0>
  LL_HRTIM_TIM_SetPeriod(HRTIM1, LL_HRTIM_TIMER_C, HRTIM_PERIOD);
 8002d38:	f7ff f8e6 	bl	8001f08 <LL_HRTIM_TIM_SetPeriod.constprop.0>
  LL_HRTIM_TIM_SetRepetition(HRTIM1, LL_HRTIM_TIMER_C, 0x00);
 8002d3c:	f7ff f8d0 	bl	8001ee0 <LL_HRTIM_TIM_SetRepetition.constprop.0>
  LL_HRTIM_TIM_SetUpdateGating(HRTIM1, LL_HRTIM_TIMER_C, LL_HRTIM_UPDATEGATING_INDEPENDENT);
 8002d40:	f7ff f90e 	bl	8001f60 <LL_HRTIM_TIM_SetUpdateGating.constprop.0>
  LL_HRTIM_TIM_SetCountingMode(HRTIM1, LL_HRTIM_TIMER_C, LL_HRTIM_COUNTING_MODE_UP_DOWN);
 8002d44:	f7fe ffee 	bl	8001d24 <LL_HRTIM_TIM_SetCountingMode.constprop.0>
  LL_HRTIM_TIM_SetComp1Mode(HRTIM1, LL_HRTIM_TIMER_C, LL_HRTIM_GTCMP1_EQUAL);
 8002d48:	f7ff f888 	bl	8001e5c <LL_HRTIM_TIM_SetComp1Mode.constprop.0>
  LL_HRTIM_TIM_SetRollOverMode(HRTIM1, LL_HRTIM_TIMER_C, LL_HRTIM_ROLLOVER_MODE_BOTH);
 8002d4c:	f7ff f86c 	bl	8001e28 <LL_HRTIM_TIM_SetRollOverMode.constprop.0>
  LL_HRTIM_TIM_SetFaultEventRollOverMode(HRTIM1, LL_HRTIM_TIMER_C, LL_HRTIM_ROLLOVER_MODE_BOTH);
 8002d50:	f7ff f850 	bl	8001df4 <LL_HRTIM_TIM_SetFaultEventRollOverMode.constprop.0>
  LL_HRTIM_TIM_SetBMRollOverMode(HRTIM1, LL_HRTIM_TIMER_C, LL_HRTIM_ROLLOVER_MODE_BOTH);
 8002d54:	f7ff f834 	bl	8001dc0 <LL_HRTIM_TIM_SetBMRollOverMode.constprop.0>
  LL_HRTIM_TIM_SetADCRollOverMode(HRTIM1, LL_HRTIM_TIMER_C, LL_HRTIM_ROLLOVER_MODE_BOTH);
 8002d58:	f7ff f818 	bl	8001d8c <LL_HRTIM_TIM_SetADCRollOverMode.constprop.0>
  LL_HRTIM_TIM_SetOutputRollOverMode(HRTIM1, LL_HRTIM_TIMER_C, LL_HRTIM_ROLLOVER_MODE_BOTH);
 8002d5c:	f7fe fffc 	bl	8001d58 <LL_HRTIM_TIM_SetOutputRollOverMode.constprop.0>
  LL_HRTIM_TIM_SetDACTrig(HRTIM1, LL_HRTIM_TIMER_C, LL_HRTIM_DACTRIG_NONE);
 8002d60:	f7ff f950 	bl	8002004 <LL_HRTIM_TIM_SetDACTrig.constprop.0>
  LL_HRTIM_TIM_DisableHalfMode(HRTIM1, LL_HRTIM_TIMER_C);
 8002d64:	f7ff f9b8 	bl	80020d8 <LL_HRTIM_TIM_DisableHalfMode.constprop.0>
  LL_HRTIM_TIM_SetInterleavedMode(HRTIM1, LL_HRTIM_TIMER_C, LL_HRTIM_INTERLEAVED_MODE_DISABLED);
 8002d68:	f44f 2000 	mov.w	r0, #524288	@ 0x80000
 8002d6c:	f7ff f986 	bl	800207c <LL_HRTIM_TIM_SetInterleavedMode.constprop.0>
  LL_HRTIM_TIM_SetUpdateTrig(HRTIM1, LL_HRTIM_TIMER_C, LL_HRTIM_UPDATETRIG_NONE|LL_HRTIM_UPDATETRIG_NONE|LL_HRTIM_UPDATETRIG_RESET);
 8002d70:	f44f 2180 	mov.w	r1, #262144	@ 0x40000
  LL_HRTIM_TIM_DisableStartOnSync(HRTIM1, LL_HRTIM_TIMER_C);
 8002d74:	f7ff f96e 	bl	8002054 <LL_HRTIM_TIM_DisableStartOnSync.constprop.0>
  LL_HRTIM_TIM_DisableResetOnSync(HRTIM1, LL_HRTIM_TIMER_C);
 8002d78:	f7ff f958 	bl	800202c <LL_HRTIM_TIM_DisableResetOnSync.constprop.0>
  LL_HRTIM_TIM_EnablePreload(HRTIM1, LL_HRTIM_TIMER_C);
 8002d7c:	f7ff f92e 	bl	8001fdc <LL_HRTIM_TIM_EnablePreload.constprop.0>
  LL_HRTIM_TIM_SetUpdateTrig(HRTIM1, LL_HRTIM_TIMER_C, LL_HRTIM_UPDATETRIG_NONE|LL_HRTIM_UPDATETRIG_NONE|LL_HRTIM_UPDATETRIG_RESET);
 8002d80:	f7ff f908 	bl	8001f94 <LL_HRTIM_TIM_SetUpdateTrig.constprop.0>
 8002d84:	f44f 2300 	mov.w	r3, #524288	@ 0x80000
 8002d88:	fa93 f3a3 	rbit	r3, r3
  return __builtin_clz(value);
 8002d8c:	fab3 f383 	clz	r3, r3
  uint32_t iTimer = (uint8_t)(POSITION_VAL(Timer) - HRTIM_MCR_TACEN_Pos);
 8002d90:	3b11      	subs	r3, #17
 8002d92:	b2db      	uxtb	r3, r3
  WRITE_REG(*pReg, ResetTrig);
 8002d94:	f04f 0810 	mov.w	r8, #16
                                                     REG_OFFSET_TAB_TIMER[iTimer]));
 8002d98:	f835 2013 	ldrh.w	r2, [r5, r3, lsl #1]
  __IO uint32_t *pReg = (__IO uint32_t *)((uint32_t)((uint32_t)(&HRTIMx->sTimerxRegs[0].RSTxR) +
 8002d9c:	4b18      	ldr	r3, [pc, #96]	@ (8002e00 <main+0xb80>)
  LL_HRTIM_TIM_DisablePushPullMode(HRTIM1, LL_HRTIM_TIMER_C);
 8002d9e:	f44f 2000 	mov.w	r0, #524288	@ 0x80000
  WRITE_REG(*pReg, ResetTrig);
 8002da2:	f842 8003 	str.w	r8, [r2, r3]
 8002da6:	f7ff f8c7 	bl	8001f38 <LL_HRTIM_TIM_DisablePushPullMode.constprop.0>
  LL_HRTIM_TIM_EnableDeadTime(HRTIM1, LL_HRTIM_TIMER_C);
 8002daa:	f7ff f885 	bl	8001eb8 <LL_HRTIM_TIM_EnableDeadTime.constprop.0>
  LL_HRTIM_TIM_EnableFault(HRTIM1, LL_HRTIM_TIMER_C, LL_HRTIM_FAULT_1);
 8002dae:	f7ff f86f 	bl	8001e90 <LL_HRTIM_TIM_EnableFault.constprop.0>
   __ASM volatile ("rbit %0, %1" : "=r" (result) : "r" (value) );
 8002db2:	fa90 f3a0 	rbit	r3, r0
  MODIFY_REG(HRTIMx->sCommonRegs.BMCR, Timer, BurtsModeOption << iTimer);
 8002db6:	4b13      	ldr	r3, [pc, #76]	@ (8002e04 <main+0xb84>)
  SET_BIT(RCC->AHB2ENR, Periphs);
 8002db8:	4d14      	ldr	r5, [pc, #80]	@ (8002e0c <main+0xb8c>)
 8002dba:	f8d3 23a0 	ldr.w	r2, [r3, #928]	@ 0x3a0
  LL_TIM_Init(TIM3, &TIM_InitStruct);
 8002dbe:	f8df b050 	ldr.w	fp, [pc, #80]	@ 8002e10 <main+0xb90>
 8002dc2:	f422 2200 	bic.w	r2, r2, #524288	@ 0x80000
 8002dc6:	f8c3 23a0 	str.w	r2, [r3, #928]	@ 0x3a0
  SET_BIT(HRTIMx->sCommonRegs.CR2, ((Timers >> HRTIM_MCR_MCEN_Pos) & HRTIM_CR2_SWUPD_MASK));
 8002dca:	f8d3 2384 	ldr.w	r2, [r3, #900]	@ 0x384
 8002dce:	f042 0208 	orr.w	r2, r2, #8
 8002dd2:	f8c3 2384 	str.w	r2, [r3, #900]	@ 0x384
  LL_HRTIM_TIM_DisableResyncUpdate(HRTIM1, LL_HRTIM_TIMER_C);
 8002dd6:	f7ff f96b 	bl	80020b0 <LL_HRTIM_TIM_DisableResyncUpdate.constprop.0>
  LL_HRTIM_DT_SetPrescaler(HRTIM1, LL_HRTIM_TIMER_C, LL_HRTIM_DT_PRESCALER_DIV1);
 8002dda:	f7fe ff8d 	bl	8001cf8 <LL_HRTIM_DT_SetPrescaler.constprop.0>
  LL_HRTIM_DT_SetRisingValue(HRTIM1, LL_HRTIM_TIMER_C, HRTIM_DEADTIME);
 8002dde:	f7fe ff75 	bl	8001ccc <LL_HRTIM_DT_SetRisingValue.constprop.0>
  LL_HRTIM_DT_SetRisingSign(HRTIM1, LL_HRTIM_TIMER_C, LL_HRTIM_DT_RISING_POSITIVE);
 8002de2:	f7fe ff5f 	bl	8001ca4 <LL_HRTIM_DT_SetRisingSign.constprop.0>
  LL_HRTIM_DT_SetFallingValue(HRTIM1, LL_HRTIM_TIMER_C, HRTIM_DEADTIME);
 8002de6:	f7fe ff47 	bl	8001c78 <LL_HRTIM_DT_SetFallingValue.constprop.0>
  LL_HRTIM_DT_SetFallingSign(HRTIM1, LL_HRTIM_TIMER_C, LL_HRTIM_DT_FALLING_POSITIVE);
 8002dea:	f7fe ff31 	bl	8001c50 <LL_HRTIM_DT_SetFallingSign.constprop.0>
  LL_HRTIM_OUT_SetPolarity(HRTIM1, LL_HRTIM_OUTPUT_TC1, LL_HRTIM_OUT_POSITIVE_POLARITY);
 8002dee:	4640      	mov	r0, r8
 8002df0:	f7fe fee2 	bl	8001bb8 <LL_HRTIM_OUT_SetPolarity.constprop.0>
  LL_HRTIM_OUT_SetOutputSetSrc(HRTIM1, LL_HRTIM_OUTPUT_TC1, LL_HRTIM_OUTPUTSET_NONE);
 8002df4:	4640      	mov	r0, r8
 8002df6:	e00d      	b.n	8002e14 <main+0xb94>
 8002df8:	40016000 	.word	0x40016000
 8002dfc:	08007f5c 	.word	0x08007f5c
 8002e00:	400168d4 	.word	0x400168d4
 8002e04:	40016800 	.word	0x40016800
 8002e08:	4001681c 	.word	0x4001681c
 8002e0c:	40021000 	.word	0x40021000
 8002e10:	40000400 	.word	0x40000400
 8002e14:	f7fe ff06 	bl	8001c24 <LL_HRTIM_OUT_SetOutputSetSrc.constprop.0>
  LL_HRTIM_OUT_SetOutputResetSrc(HRTIM1, LL_HRTIM_OUTPUT_TC1, LL_HRTIM_OUTPUTRESET_TIMCMP1);
 8002e18:	2108      	movs	r1, #8
 8002e1a:	f7fe feed 	bl	8001bf8 <LL_HRTIM_OUT_SetOutputResetSrc.constprop.0>
  LL_HRTIM_OUT_SetIdleMode(HRTIM1, LL_HRTIM_OUTPUT_TC1, LL_HRTIM_OUT_NO_IDLE);
 8002e1e:	4640      	mov	r0, r8
 8002e20:	f7fe feaa 	bl	8001b78 <LL_HRTIM_OUT_SetIdleMode.constprop.0>
  LL_HRTIM_OUT_SetIdleLevel(HRTIM1, LL_HRTIM_OUTPUT_TC1, LL_HRTIM_OUT_IDLELEVEL_INACTIVE);
 8002e24:	4640      	mov	r0, r8
 8002e26:	f7fe fe87 	bl	8001b38 <LL_HRTIM_OUT_SetIdleLevel.constprop.0>
  LL_HRTIM_OUT_SetFaultState(HRTIM1, LL_HRTIM_OUTPUT_TC1, LL_HRTIM_OUT_FAULTSTATE_INACTIVE);
 8002e2a:	4640      	mov	r0, r8
 8002e2c:	f7fe fe60 	bl	8001af0 <LL_HRTIM_OUT_SetFaultState.constprop.0>
  LL_HRTIM_OUT_SetChopperMode(HRTIM1, LL_HRTIM_OUTPUT_TC1, LL_HRTIM_OUT_CHOPPERMODE_DISABLED);
 8002e30:	4640      	mov	r0, r8
 8002e32:	f7fe fe3d 	bl	8001ab0 <LL_HRTIM_OUT_SetChopperMode.constprop.0>
  LL_HRTIM_OUT_SetPolarity(HRTIM1, LL_HRTIM_OUTPUT_TC2, LL_HRTIM_OUT_POSITIVE_POLARITY);
 8002e36:	2020      	movs	r0, #32
 8002e38:	f7fe febe 	bl	8001bb8 <LL_HRTIM_OUT_SetPolarity.constprop.0>
  LL_HRTIM_OUT_SetOutputSetSrc(HRTIM1, LL_HRTIM_OUTPUT_TC2, LL_HRTIM_OUTPUTSET_NONE);
 8002e3c:	2020      	movs	r0, #32
 8002e3e:	f7fe fef1 	bl	8001c24 <LL_HRTIM_OUT_SetOutputSetSrc.constprop.0>
  LL_HRTIM_OUT_SetOutputResetSrc(HRTIM1, LL_HRTIM_OUTPUT_TC2, LL_HRTIM_OUTPUTRESET_NONE);
 8002e42:	2100      	movs	r1, #0
 8002e44:	f7fe fed8 	bl	8001bf8 <LL_HRTIM_OUT_SetOutputResetSrc.constprop.0>
  LL_HRTIM_OUT_SetIdleMode(HRTIM1, LL_HRTIM_OUTPUT_TC2, LL_HRTIM_OUT_NO_IDLE);
 8002e48:	2020      	movs	r0, #32
 8002e4a:	f7fe fe95 	bl	8001b78 <LL_HRTIM_OUT_SetIdleMode.constprop.0>
  LL_HRTIM_OUT_SetIdleLevel(HRTIM1, LL_HRTIM_OUTPUT_TC2, LL_HRTIM_OUT_IDLELEVEL_INACTIVE);
 8002e4e:	2020      	movs	r0, #32
 8002e50:	f7fe fe72 	bl	8001b38 <LL_HRTIM_OUT_SetIdleLevel.constprop.0>
  LL_HRTIM_OUT_SetFaultState(HRTIM1, LL_HRTIM_OUTPUT_TC2, LL_HRTIM_OUT_FAULTSTATE_INACTIVE);
 8002e54:	2020      	movs	r0, #32
 8002e56:	f7fe fe4b 	bl	8001af0 <LL_HRTIM_OUT_SetFaultState.constprop.0>
  LL_HRTIM_OUT_SetChopperMode(HRTIM1, LL_HRTIM_OUTPUT_TC2, LL_HRTIM_OUT_CHOPPERMODE_DISABLED);
 8002e5a:	2020      	movs	r0, #32
 8002e5c:	f7fe fe28 	bl	8001ab0 <LL_HRTIM_OUT_SetChopperMode.constprop.0>
 8002e60:	6ceb      	ldr	r3, [r5, #76]	@ 0x4c
  LL_GPIO_Init(GPIOB, &GPIO_InitStruct);
 8002e62:	48c7      	ldr	r0, [pc, #796]	@ (8003180 <main+0xf00>)
 8002e64:	f043 0302 	orr.w	r3, r3, #2
 8002e68:	64eb      	str	r3, [r5, #76]	@ 0x4c
  tmpreg = READ_BIT(RCC->AHB2ENR, Periphs);
 8002e6a:	6ceb      	ldr	r3, [r5, #76]	@ 0x4c
 8002e6c:	f003 0302 	and.w	r3, r3, #2
 8002e70:	9315      	str	r3, [sp, #84]	@ 0x54
  (void)tmpreg;
 8002e72:	9b15      	ldr	r3, [sp, #84]	@ 0x54
  SET_BIT(RCC->AHB2ENR, Periphs);
 8002e74:	6ceb      	ldr	r3, [r5, #76]	@ 0x4c
 8002e76:	f043 0301 	orr.w	r3, r3, #1
 8002e7a:	64eb      	str	r3, [r5, #76]	@ 0x4c
  tmpreg = READ_BIT(RCC->AHB2ENR, Periphs);
 8002e7c:	6ceb      	ldr	r3, [r5, #76]	@ 0x4c
  GPIO_InitStruct.Pull = LL_GPIO_PULL_NO;
 8002e7e:	ed9f 8bba 	vldr	d8, [pc, #744]	@ 8003168 <main+0xee8>
 8002e82:	f003 0301 	and.w	r3, r3, #1
  GPIO_InitStruct.OutputType = LL_GPIO_OUTPUT_PUSHPULL;
 8002e86:	2400      	movs	r4, #0
  GPIO_InitStruct.Speed = LL_GPIO_SPEED_FREQ_VERY_HIGH;
 8002e88:	2702      	movs	r7, #2
  GPIO_InitStruct.Pin = LL_GPIO_PIN_12;
 8002e8a:	f44f 5280 	mov.w	r2, #4096	@ 0x1000
  GPIO_InitStruct.Speed = LL_GPIO_SPEED_FREQ_VERY_HIGH;
 8002e8e:	2603      	movs	r6, #3
 8002e90:	9316      	str	r3, [sp, #88]	@ 0x58
  LL_GPIO_Init(GPIOB, &GPIO_InitStruct);
 8002e92:	a934      	add	r1, sp, #208	@ 0xd0
  GPIO_InitStruct.Pin = LL_GPIO_PIN_12;
 8002e94:	9234      	str	r2, [sp, #208]	@ 0xd0
  GPIO_InitStruct.Speed = LL_GPIO_SPEED_FREQ_VERY_HIGH;
 8002e96:	e9cd 7635 	strd	r7, r6, [sp, #212]	@ 0xd4
  GPIO_InitStruct.Pull = LL_GPIO_PULL_NO;
 8002e9a:	ed8d 8b38 	vstr	d8, [sp, #224]	@ 0xe0
  (void)tmpreg;
 8002e9e:	9b16      	ldr	r3, [sp, #88]	@ 0x58
  GPIO_InitStruct.OutputType = LL_GPIO_OUTPUT_PUSHPULL;
 8002ea0:	9437      	str	r4, [sp, #220]	@ 0xdc
  LL_GPIO_Init(GPIOB, &GPIO_InitStruct);
 8002ea2:	f000 fe45 	bl	8003b30 <LL_GPIO_Init>
  GPIO_InitStruct.Pin = LL_GPIO_PIN_13;
 8002ea6:	f44f 5300 	mov.w	r3, #8192	@ 0x2000
  LL_GPIO_Init(GPIOB, &GPIO_InitStruct);
 8002eaa:	a934      	add	r1, sp, #208	@ 0xd0
 8002eac:	48b4      	ldr	r0, [pc, #720]	@ (8003180 <main+0xf00>)
  GPIO_InitStruct.Pin = LL_GPIO_PIN_13;
 8002eae:	9334      	str	r3, [sp, #208]	@ 0xd0
  GPIO_InitStruct.Pin = LL_GPIO_PIN_8;
 8002eb0:	f44f 7a80 	mov.w	sl, #256	@ 0x100
  GPIO_InitStruct.Pull = LL_GPIO_PULL_NO;
 8002eb4:	ed8d 8b38 	vstr	d8, [sp, #224]	@ 0xe0
  GPIO_InitStruct.Speed = LL_GPIO_SPEED_FREQ_VERY_HIGH;
 8002eb8:	e9cd 7635 	strd	r7, r6, [sp, #212]	@ 0xd4
  GPIO_InitStruct.OutputType = LL_GPIO_OUTPUT_PUSHPULL;
 8002ebc:	9437      	str	r4, [sp, #220]	@ 0xdc
  LL_GPIO_Init(GPIOB, &GPIO_InitStruct);
 8002ebe:	f000 fe37 	bl	8003b30 <LL_GPIO_Init>
  LL_GPIO_Init(GPIOA, &GPIO_InitStruct);
 8002ec2:	a934      	add	r1, sp, #208	@ 0xd0
 8002ec4:	f04f 4090 	mov.w	r0, #1207959552	@ 0x48000000
  GPIO_InitStruct.Pull = LL_GPIO_PULL_NO;
 8002ec8:	ed8d 8b38 	vstr	d8, [sp, #224]	@ 0xe0
  GPIO_InitStruct.Speed = LL_GPIO_SPEED_FREQ_VERY_HIGH;
 8002ecc:	e9cd 7635 	strd	r7, r6, [sp, #212]	@ 0xd4
  GPIO_InitStruct.OutputType = LL_GPIO_OUTPUT_PUSHPULL;
 8002ed0:	9437      	str	r4, [sp, #220]	@ 0xdc
  GPIO_InitStruct.Pin = LL_GPIO_PIN_8;
 8002ed2:	f8cd a0d0 	str.w	sl, [sp, #208]	@ 0xd0
  LL_GPIO_Init(GPIOA, &GPIO_InitStruct);
 8002ed6:	f000 fe2b 	bl	8003b30 <LL_GPIO_Init>
  GPIO_InitStruct.Pin = LL_GPIO_PIN_9;
 8002eda:	f44f 7300 	mov.w	r3, #512	@ 0x200
  LL_GPIO_Init(GPIOA, &GPIO_InitStruct);
 8002ede:	a934      	add	r1, sp, #208	@ 0xd0
 8002ee0:	f04f 4090 	mov.w	r0, #1207959552	@ 0x48000000
  GPIO_InitStruct.Pull = LL_GPIO_PULL_NO;
 8002ee4:	ed8d 8b38 	vstr	d8, [sp, #224]	@ 0xe0
  GPIO_InitStruct.Speed = LL_GPIO_SPEED_FREQ_VERY_HIGH;
 8002ee8:	e9cd 7635 	strd	r7, r6, [sp, #212]	@ 0xd4
  GPIO_InitStruct.Pin = LL_GPIO_PIN_9;
 8002eec:	9334      	str	r3, [sp, #208]	@ 0xd0
  GPIO_InitStruct.OutputType = LL_GPIO_OUTPUT_PUSHPULL;
 8002eee:	9437      	str	r4, [sp, #220]	@ 0xdc
  LL_GPIO_Init(GPIOA, &GPIO_InitStruct);
 8002ef0:	f000 fe1e 	bl	8003b30 <LL_GPIO_Init>
  GPIO_InitStruct.Pin = LL_GPIO_PIN_10;
 8002ef4:	f44f 6380 	mov.w	r3, #1024	@ 0x400
  LL_GPIO_Init(GPIOA, &GPIO_InitStruct);
 8002ef8:	a934      	add	r1, sp, #208	@ 0xd0
 8002efa:	f04f 4090 	mov.w	r0, #1207959552	@ 0x48000000
  GPIO_InitStruct.Pull = LL_GPIO_PULL_NO;
 8002efe:	ed8d 8b38 	vstr	d8, [sp, #224]	@ 0xe0
  GPIO_InitStruct.Speed = LL_GPIO_SPEED_FREQ_VERY_HIGH;
 8002f02:	e9cd 7635 	strd	r7, r6, [sp, #212]	@ 0xd4
  GPIO_InitStruct.Pin = LL_GPIO_PIN_10;
 8002f06:	9334      	str	r3, [sp, #208]	@ 0xd0
  GPIO_InitStruct.OutputType = LL_GPIO_OUTPUT_PUSHPULL;
 8002f08:	9437      	str	r4, [sp, #220]	@ 0xdc
  LL_GPIO_Init(GPIOA, &GPIO_InitStruct);
 8002f0a:	f000 fe11 	bl	8003b30 <LL_GPIO_Init>
  GPIO_InitStruct.Pin = LL_GPIO_PIN_11;
 8002f0e:	f44f 6300 	mov.w	r3, #2048	@ 0x800
  LL_GPIO_Init(GPIOA, &GPIO_InitStruct);
 8002f12:	a934      	add	r1, sp, #208	@ 0xd0
 8002f14:	f04f 4090 	mov.w	r0, #1207959552	@ 0x48000000
  GPIO_InitStruct.Pull = LL_GPIO_PULL_NO;
 8002f18:	ed8d 8b38 	vstr	d8, [sp, #224]	@ 0xe0
  GPIO_InitStruct.Mode = LL_GPIO_MODE_ALTERNATE;
 8002f1c:	e9cd 7635 	strd	r7, r6, [sp, #212]	@ 0xd4
  GPIO_InitStruct.Pin = LL_GPIO_PIN_11;
 8002f20:	9334      	str	r3, [sp, #208]	@ 0xd0
  GPIO_InitStruct.OutputType = LL_GPIO_OUTPUT_PUSHPULL;
 8002f22:	9437      	str	r4, [sp, #220]	@ 0xdc
  LL_GPIO_Init(GPIOA, &GPIO_InitStruct);
 8002f24:	f000 fe04 	bl	8003b30 <LL_GPIO_Init>
  LL_TIM_InitTypeDef TIM_InitStruct = {0};
 8002f28:	e9cd 442e 	strd	r4, r4, [sp, #184]	@ 0xb8
 8002f2c:	e9cd 4430 	strd	r4, r4, [sp, #192]	@ 0xc0
  LL_GPIO_InitTypeDef GPIO_InitStruct = {0};
 8002f30:	e9cd 4436 	strd	r4, r4, [sp, #216]	@ 0xd8
  LL_TIM_InitTypeDef TIM_InitStruct = {0};
 8002f34:	9432      	str	r4, [sp, #200]	@ 0xc8
  LL_GPIO_InitTypeDef GPIO_InitStruct = {0};
 8002f36:	9438      	str	r4, [sp, #224]	@ 0xe0
  SET_BIT(RCC->APB1ENR1, Periphs);
 8002f38:	6dab      	ldr	r3, [r5, #88]	@ 0x58
 8002f3a:	f043 0301 	orr.w	r3, r3, #1
 8002f3e:	65ab      	str	r3, [r5, #88]	@ 0x58
  tmpreg = READ_BIT(RCC->APB1ENR1, Periphs);
 8002f40:	6dab      	ldr	r3, [r5, #88]	@ 0x58
 8002f42:	f003 0301 	and.w	r3, r3, #1
 8002f46:	9312      	str	r3, [sp, #72]	@ 0x48
  (void)tmpreg;
 8002f48:	9b12      	ldr	r3, [sp, #72]	@ 0x48
  SET_BIT(RCC->AHB2ENR, Periphs);
 8002f4a:	6ceb      	ldr	r3, [r5, #76]	@ 0x4c
 8002f4c:	f043 0301 	orr.w	r3, r3, #1
 8002f50:	64eb      	str	r3, [r5, #76]	@ 0x4c
  tmpreg = READ_BIT(RCC->AHB2ENR, Periphs);
 8002f52:	6ceb      	ldr	r3, [r5, #76]	@ 0x4c
 8002f54:	f003 0301 	and.w	r3, r3, #1
 8002f58:	9313      	str	r3, [sp, #76]	@ 0x4c
  (void)tmpreg;
 8002f5a:	9b13      	ldr	r3, [sp, #76]	@ 0x4c
  SET_BIT(RCC->AHB2ENR, Periphs);
 8002f5c:	6ceb      	ldr	r3, [r5, #76]	@ 0x4c
 8002f5e:	433b      	orrs	r3, r7
 8002f60:	64eb      	str	r3, [r5, #76]	@ 0x4c
  tmpreg = READ_BIT(RCC->AHB2ENR, Periphs);
 8002f62:	6ceb      	ldr	r3, [r5, #76]	@ 0x4c
 8002f64:	403b      	ands	r3, r7
  GPIO_InitStruct.Pull = LL_GPIO_PULL_NO;
 8002f66:	ed9f 9b82 	vldr	d9, [pc, #520]	@ 8003170 <main+0xef0>
 8002f6a:	9314      	str	r3, [sp, #80]	@ 0x50
  GPIO_InitStruct.Alternate = LL_GPIO_AF_1;
 8002f6c:	f04f 0901 	mov.w	r9, #1
  GPIO_InitStruct.Pin = LL_GPIO_PIN_0;
 8002f70:	2201      	movs	r2, #1
  GPIO_InitStruct.Pull = LL_GPIO_PULL_NO;
 8002f72:	ed9f 8b81 	vldr	d8, [pc, #516]	@ 8003178 <main+0xef8>
  (void)tmpreg;
 8002f76:	9b14      	ldr	r3, [sp, #80]	@ 0x50
  GPIO_InitStruct.Alternate = LL_GPIO_AF_1;
 8002f78:	f8cd 90e4 	str.w	r9, [sp, #228]	@ 0xe4
  GPIO_InitStruct.Pin = LL_GPIO_PIN_0;
 8002f7c:	2302      	movs	r3, #2
  LL_GPIO_Init(GPIOA, &GPIO_InitStruct);
 8002f7e:	a934      	add	r1, sp, #208	@ 0xd0
 8002f80:	f04f 4090 	mov.w	r0, #1207959552	@ 0x48000000
  GPIO_InitStruct.Pin = LL_GPIO_PIN_0;
 8002f84:	e9cd 2334 	strd	r2, r3, [sp, #208]	@ 0xd0
  LL_GPIO_Init(GPIOA, &GPIO_InitStruct);
 8002f88:	f000 fdd2 	bl	8003b30 <LL_GPIO_Init>
  LL_GPIO_Init(GPIOA, &GPIO_InitStruct);
 8002f8c:	a934      	add	r1, sp, #208	@ 0xd0
 8002f8e:	f04f 4090 	mov.w	r0, #1207959552	@ 0x48000000
  GPIO_InitStruct.Mode = LL_GPIO_MODE_ALTERNATE;
 8002f92:	e9cd 7734 	strd	r7, r7, [sp, #208]	@ 0xd0
  GPIO_InitStruct.OutputType = LL_GPIO_OUTPUT_PUSHPULL;
 8002f96:	e9cd 4436 	strd	r4, r4, [sp, #216]	@ 0xd8
  GPIO_InitStruct.Pull = LL_GPIO_PULL_NO;
 8002f9a:	ed8d 9b38 	vstr	d9, [sp, #224]	@ 0xe0
  LL_GPIO_Init(GPIOA, &GPIO_InitStruct);
 8002f9e:	f000 fdc7 	bl	8003b30 <LL_GPIO_Init>
  GPIO_InitStruct.Pin = LL_GPIO_PIN_5;
 8002fa2:	2320      	movs	r3, #32
  LL_GPIO_Init(GPIOA, &GPIO_InitStruct);
 8002fa4:	a934      	add	r1, sp, #208	@ 0xd0
 8002fa6:	f04f 4090 	mov.w	r0, #1207959552	@ 0x48000000
  CLEAR_BIT(TIMx->CR1, TIM_CR1_ARPE);
 8002faa:	f04f 4680 	mov.w	r6, #1073741824	@ 0x40000000
  GPIO_InitStruct.Pin = LL_GPIO_PIN_5;
 8002fae:	9334      	str	r3, [sp, #208]	@ 0xd0
  GPIO_InitStruct.Speed = LL_GPIO_SPEED_FREQ_LOW;
 8002fb0:	e9cd 7435 	strd	r7, r4, [sp, #212]	@ 0xd4
  GPIO_InitStruct.Pull = LL_GPIO_PULL_NO;
 8002fb4:	ed8d 8b38 	vstr	d8, [sp, #224]	@ 0xe0
  GPIO_InitStruct.OutputType = LL_GPIO_OUTPUT_PUSHPULL;
 8002fb8:	9437      	str	r4, [sp, #220]	@ 0xdc
  LL_GPIO_Init(GPIOA, &GPIO_InitStruct);
 8002fba:	f000 fdb9 	bl	8003b30 <LL_GPIO_Init>
  GPIO_InitStruct.Pin = LL_GPIO_PIN_10;
 8002fbe:	f44f 6380 	mov.w	r3, #1024	@ 0x400
  LL_GPIO_Init(GPIOB, &GPIO_InitStruct);
 8002fc2:	a934      	add	r1, sp, #208	@ 0xd0
 8002fc4:	486e      	ldr	r0, [pc, #440]	@ (8003180 <main+0xf00>)
  GPIO_InitStruct.Mode = LL_GPIO_MODE_ALTERNATE;
 8002fc6:	e9cd 3734 	strd	r3, r7, [sp, #208]	@ 0xd0
  GPIO_InitStruct.Pull = LL_GPIO_PULL_NO;
 8002fca:	ed8d 9b38 	vstr	d9, [sp, #224]	@ 0xe0
  GPIO_InitStruct.OutputType = LL_GPIO_OUTPUT_PUSHPULL;
 8002fce:	e9cd 4436 	strd	r4, r4, [sp, #216]	@ 0xd8
  LL_GPIO_Init(GPIOB, &GPIO_InitStruct);
 8002fd2:	f000 fdad 	bl	8003b30 <LL_GPIO_Init>
  TIM_InitStruct.CounterMode = LL_TIM_COUNTERMODE_UP;
 8002fd6:	f240 73ff 	movw	r3, #2047	@ 0x7ff
  LL_TIM_Init(TIM2, &TIM_InitStruct);
 8002fda:	a92e      	add	r1, sp, #184	@ 0xb8
 8002fdc:	f04f 4080 	mov.w	r0, #1073741824	@ 0x40000000
  TIM_InitStruct.CounterMode = LL_TIM_COUNTERMODE_UP;
 8002fe0:	9330      	str	r3, [sp, #192]	@ 0xc0
  TIM_InitStruct.Prescaler = 0;
 8002fe2:	f8ad 40b8 	strh.w	r4, [sp, #184]	@ 0xb8
  TIM_InitStruct.CounterMode = LL_TIM_COUNTERMODE_UP;
 8002fe6:	942f      	str	r4, [sp, #188]	@ 0xbc
  TIM_InitStruct.ClockDivision = LL_TIM_CLOCKDIVISION_DIV1;
 8002fe8:	9431      	str	r4, [sp, #196]	@ 0xc4
  LL_TIM_Init(TIM2, &TIM_InitStruct);
 8002fea:	f001 f857 	bl	800409c <LL_TIM_Init>
 8002fee:	6833      	ldr	r3, [r6, #0]
 8002ff0:	f023 0380 	bic.w	r3, r3, #128	@ 0x80
 8002ff4:	6033      	str	r3, [r6, #0]
  MODIFY_REG(TIMx->SMCR, TIM_SMCR_SMS, EncoderMode);
 8002ff6:	68b3      	ldr	r3, [r6, #8]
 8002ff8:	f423 3380 	bic.w	r3, r3, #65536	@ 0x10000
 8002ffc:	f023 0307 	bic.w	r3, r3, #7
 8003000:	ea43 0309 	orr.w	r3, r3, r9
 8003004:	60b3      	str	r3, [r6, #8]
  LL_TIM_IC_SetActiveInput(TIM2, LL_TIM_CHANNEL_CH1, LL_TIM_ACTIVEINPUT_DIRECTTI);
 8003006:	f44f 3280 	mov.w	r2, #65536	@ 0x10000
 800300a:	4649      	mov	r1, r9
 800300c:	4630      	mov	r0, r6
 800300e:	f7fe fc17 	bl	8001840 <LL_TIM_IC_SetActiveInput>
  LL_TIM_IC_SetPrescaler(TIM2, LL_TIM_CHANNEL_CH1, LL_TIM_ICPSC_DIV1);
 8003012:	4649      	mov	r1, r9
 8003014:	4630      	mov	r0, r6
 8003016:	f7fe fc57 	bl	80018c8 <LL_TIM_IC_SetPrescaler.constprop.0>
  LL_TIM_IC_SetFilter(TIM2, LL_TIM_CHANNEL_CH1, LL_TIM_IC_FILTER_FDIV1);
 800301a:	4649      	mov	r1, r9
 800301c:	4630      	mov	r0, r6
 800301e:	f7fe fc35 	bl	800188c <LL_TIM_IC_SetFilter.constprop.0>
  MODIFY_REG(TIMx->CCER, ((TIM_CCER_CC1NP | TIM_CCER_CC1P) << SHIFT_TAB_CCxP[iChannel]),
 8003022:	6a33      	ldr	r3, [r6, #32]
 8003024:	f023 030a 	bic.w	r3, r3, #10
 8003028:	6233      	str	r3, [r6, #32]
  LL_TIM_IC_SetActiveInput(TIM2, LL_TIM_CHANNEL_CH2, LL_TIM_ACTIVEINPUT_DIRECTTI);
 800302a:	f44f 3280 	mov.w	r2, #65536	@ 0x10000
 800302e:	4641      	mov	r1, r8
 8003030:	4630      	mov	r0, r6
 8003032:	f7fe fc05 	bl	8001840 <LL_TIM_IC_SetActiveInput>
  LL_TIM_IC_SetPrescaler(TIM2, LL_TIM_CHANNEL_CH2, LL_TIM_ICPSC_DIV1);
 8003036:	4641      	mov	r1, r8
 8003038:	4630      	mov	r0, r6
 800303a:	f7fe fc45 	bl	80018c8 <LL_TIM_IC_SetPrescaler.constprop.0>
  LL_TIM_IC_SetFilter(TIM2, LL_TIM_CHANNEL_CH2, LL_TIM_IC_FILTER_FDIV1);
 800303e:	4641      	mov	r1, r8
 8003040:	4630      	mov	r0, r6
 8003042:	f7fe fc23 	bl	800188c <LL_TIM_IC_SetFilter.constprop.0>
 8003046:	6a33      	ldr	r3, [r6, #32]
 8003048:	f023 03a0 	bic.w	r3, r3, #160	@ 0xa0
 800304c:	6233      	str	r3, [r6, #32]
  MODIFY_REG(TIMx->CR2, TIM_CR2_MMS, TimerSynchronization);
 800304e:	6873      	ldr	r3, [r6, #4]
 8003050:	f023 7300 	bic.w	r3, r3, #33554432	@ 0x2000000
 8003054:	f023 0370 	bic.w	r3, r3, #112	@ 0x70
 8003058:	f043 7300 	orr.w	r3, r3, #33554432	@ 0x2000000
 800305c:	6073      	str	r3, [r6, #4]
  CLEAR_BIT(TIMx->SMCR, TIM_SMCR_MSM);
 800305e:	68b3      	ldr	r3, [r6, #8]
 8003060:	f023 0380 	bic.w	r3, r3, #128	@ 0x80
 8003064:	60b3      	str	r3, [r6, #8]
  LL_TIM_IC_SetActiveInput(TIM2, LL_TIM_CHANNEL_CH3, LL_TIM_ACTIVEINPUT_DIRECTTI);
 8003066:	f44f 3280 	mov.w	r2, #65536	@ 0x10000
 800306a:	4651      	mov	r1, sl
 800306c:	4630      	mov	r0, r6
 800306e:	f7fe fbe7 	bl	8001840 <LL_TIM_IC_SetActiveInput>
  LL_TIM_IC_SetPrescaler(TIM2, LL_TIM_CHANNEL_CH3, LL_TIM_ICPSC_DIV1);
 8003072:	4651      	mov	r1, sl
 8003074:	4630      	mov	r0, r6
 8003076:	f7fe fc27 	bl	80018c8 <LL_TIM_IC_SetPrescaler.constprop.0>
  LL_TIM_IC_SetFilter(TIM2, LL_TIM_CHANNEL_CH3, LL_TIM_IC_FILTER_FDIV1);
 800307a:	4651      	mov	r1, sl
 800307c:	4630      	mov	r0, r6
 800307e:	f7fe fc05 	bl	800188c <LL_TIM_IC_SetFilter.constprop.0>
  MODIFY_REG(TIMx->CCER, ((TIM_CCER_CC1NP | TIM_CCER_CC1P) << SHIFT_TAB_CCxP[iChannel]),
 8003082:	6a33      	ldr	r3, [r6, #32]
  LL_GPIO_Init(GPIOC, &GPIO_InitStruct);
 8003084:	483f      	ldr	r0, [pc, #252]	@ (8003184 <main+0xf04>)
 8003086:	f443 6320 	orr.w	r3, r3, #2560	@ 0xa00
 800308a:	6233      	str	r3, [r6, #32]
  MODIFY_REG(TIMx->SMCR, TIM_SMCR_ETP | TIM_SMCR_ETPS | TIM_SMCR_ETF, ETRPolarity | ETRPrescaler | ETRFilter);
 800308c:	68b3      	ldr	r3, [r6, #8]
 800308e:	f423 433f 	bic.w	r3, r3, #48896	@ 0xbf00
 8003092:	60b3      	str	r3, [r6, #8]
  MODIFY_REG(TIMx->ECR, TIM_ECR_IDIR | TIM_ECR_FIDX | TIM_ECR_IPOS, Configuration);
 8003094:	6db3      	ldr	r3, [r6, #88]	@ 0x58
 8003096:	f023 03e6 	bic.w	r3, r3, #230	@ 0xe6
 800309a:	65b3      	str	r3, [r6, #88]	@ 0x58
  SET_BIT(TIMx->ECR, TIM_ECR_IE);
 800309c:	6db3      	ldr	r3, [r6, #88]	@ 0x58
 800309e:	ea43 0309 	orr.w	r3, r3, r9
 80030a2:	65b3      	str	r3, [r6, #88]	@ 0x58
  LL_TIM_InitTypeDef TIM_InitStruct = {0};
 80030a4:	e9cd 442e 	strd	r4, r4, [sp, #184]	@ 0xb8
 80030a8:	e9cd 4430 	strd	r4, r4, [sp, #192]	@ 0xc0
  LL_GPIO_InitTypeDef GPIO_InitStruct = {0};
 80030ac:	e9cd 4436 	strd	r4, r4, [sp, #216]	@ 0xd8
  LL_TIM_InitTypeDef TIM_InitStruct = {0};
 80030b0:	9432      	str	r4, [sp, #200]	@ 0xc8
  LL_GPIO_InitTypeDef GPIO_InitStruct = {0};
 80030b2:	9438      	str	r4, [sp, #224]	@ 0xe0
  SET_BIT(RCC->APB1ENR1, Periphs);
 80030b4:	6dab      	ldr	r3, [r5, #88]	@ 0x58
 80030b6:	433b      	orrs	r3, r7
 80030b8:	65ab      	str	r3, [r5, #88]	@ 0x58
  tmpreg = READ_BIT(RCC->APB1ENR1, Periphs);
 80030ba:	6dab      	ldr	r3, [r5, #88]	@ 0x58
 80030bc:	403b      	ands	r3, r7
 80030be:	930f      	str	r3, [sp, #60]	@ 0x3c
  (void)tmpreg;
 80030c0:	9b0f      	ldr	r3, [sp, #60]	@ 0x3c
  SET_BIT(RCC->AHB2ENR, Periphs);
 80030c2:	6ceb      	ldr	r3, [r5, #76]	@ 0x4c
 80030c4:	f043 0304 	orr.w	r3, r3, #4
 80030c8:	64eb      	str	r3, [r5, #76]	@ 0x4c
  tmpreg = READ_BIT(RCC->AHB2ENR, Periphs);
 80030ca:	6ceb      	ldr	r3, [r5, #76]	@ 0x4c
 80030cc:	f003 0304 	and.w	r3, r3, #4
 80030d0:	9310      	str	r3, [sp, #64]	@ 0x40
  (void)tmpreg;
 80030d2:	9b10      	ldr	r3, [sp, #64]	@ 0x40
  SET_BIT(RCC->AHB2ENR, Periphs);
 80030d4:	6ceb      	ldr	r3, [r5, #76]	@ 0x4c
 80030d6:	f043 0308 	orr.w	r3, r3, #8
 80030da:	64eb      	str	r3, [r5, #76]	@ 0x4c
  tmpreg = READ_BIT(RCC->AHB2ENR, Periphs);
 80030dc:	6ceb      	ldr	r3, [r5, #76]	@ 0x4c
 80030de:	f003 0308 	and.w	r3, r3, #8
 80030e2:	9311      	str	r3, [sp, #68]	@ 0x44
  GPIO_InitStruct.Pin = LL_GPIO_PIN_6;
 80030e4:	2240      	movs	r2, #64	@ 0x40
  (void)tmpreg;
 80030e6:	9b11      	ldr	r3, [sp, #68]	@ 0x44
  LL_GPIO_Init(GPIOC, &GPIO_InitStruct);
 80030e8:	a934      	add	r1, sp, #208	@ 0xd0
  GPIO_InitStruct.Pin = LL_GPIO_PIN_6;
 80030ea:	2302      	movs	r3, #2
 80030ec:	e9cd 2334 	strd	r2, r3, [sp, #208]	@ 0xd0
  GPIO_InitStruct.Alternate = LL_GPIO_AF_2;
 80030f0:	9739      	str	r7, [sp, #228]	@ 0xe4
  LL_GPIO_Init(GPIOC, &GPIO_InitStruct);
 80030f2:	f000 fd1d 	bl	8003b30 <LL_GPIO_Init>
  GPIO_InitStruct.Pin = LL_GPIO_PIN_7;
 80030f6:	2380      	movs	r3, #128	@ 0x80
  LL_GPIO_Init(GPIOC, &GPIO_InitStruct);
 80030f8:	a934      	add	r1, sp, #208	@ 0xd0
 80030fa:	4822      	ldr	r0, [pc, #136]	@ (8003184 <main+0xf04>)
  GPIO_InitStruct.Pin = LL_GPIO_PIN_7;
 80030fc:	9334      	str	r3, [sp, #208]	@ 0xd0
  GPIO_InitStruct.Pull = LL_GPIO_PULL_NO;
 80030fe:	ed8d 8b38 	vstr	d8, [sp, #224]	@ 0xe0
  GPIO_InitStruct.Speed = LL_GPIO_SPEED_FREQ_LOW;
 8003102:	e9cd 7435 	strd	r7, r4, [sp, #212]	@ 0xd4
  GPIO_InitStruct.OutputType = LL_GPIO_OUTPUT_PUSHPULL;
 8003106:	9437      	str	r4, [sp, #220]	@ 0xdc
  LL_GPIO_Init(GPIOC, &GPIO_InitStruct);
 8003108:	f000 fd12 	bl	8003b30 <LL_GPIO_Init>
  LL_GPIO_Init(GPIOC, &GPIO_InitStruct);
 800310c:	a934      	add	r1, sp, #208	@ 0xd0
 800310e:	481d      	ldr	r0, [pc, #116]	@ (8003184 <main+0xf04>)
  GPIO_InitStruct.Pull = LL_GPIO_PULL_NO;
 8003110:	ed8d 8b38 	vstr	d8, [sp, #224]	@ 0xe0
  GPIO_InitStruct.Mode = LL_GPIO_MODE_ALTERNATE;
 8003114:	e9cd a734 	strd	sl, r7, [sp, #208]	@ 0xd0
  GPIO_InitStruct.OutputType = LL_GPIO_OUTPUT_PUSHPULL;
 8003118:	e9cd 4436 	strd	r4, r4, [sp, #216]	@ 0xd8
  LL_GPIO_Init(GPIOC, &GPIO_InitStruct);
 800311c:	f000 fd08 	bl	8003b30 <LL_GPIO_Init>
  GPIO_InitStruct.Pin = LL_GPIO_PIN_2;
 8003120:	2304      	movs	r3, #4
  LL_GPIO_Init(GPIOD, &GPIO_InitStruct);
 8003122:	a934      	add	r1, sp, #208	@ 0xd0
 8003124:	4818      	ldr	r0, [pc, #96]	@ (8003188 <main+0xf08>)
  GPIO_InitStruct.Pin = LL_GPIO_PIN_2;
 8003126:	9334      	str	r3, [sp, #208]	@ 0xd0
  GPIO_InitStruct.Pull = LL_GPIO_PULL_NO;
 8003128:	ed8d 8b38 	vstr	d8, [sp, #224]	@ 0xe0
  GPIO_InitStruct.Speed = LL_GPIO_SPEED_FREQ_LOW;
 800312c:	e9cd 7435 	strd	r7, r4, [sp, #212]	@ 0xd4
  GPIO_InitStruct.OutputType = LL_GPIO_OUTPUT_PUSHPULL;
 8003130:	9437      	str	r4, [sp, #220]	@ 0xdc
  LL_GPIO_Init(GPIOD, &GPIO_InitStruct);
 8003132:	f000 fcfd 	bl	8003b30 <LL_GPIO_Init>
  LL_TIM_Init(TIM3, &TIM_InitStruct);
 8003136:	4658      	mov	r0, fp
  TIM_InitStruct.CounterMode = LL_TIM_COUNTERMODE_UP;
 8003138:	f64f 72ff 	movw	r2, #65535	@ 0xffff
  LL_TIM_Init(TIM3, &TIM_InitStruct);
 800313c:	a92e      	add	r1, sp, #184	@ 0xb8
  TIM_InitStruct.CounterMode = LL_TIM_COUNTERMODE_UP;
 800313e:	9230      	str	r2, [sp, #192]	@ 0xc0
  TIM_InitStruct.Prescaler = 0;
 8003140:	f8ad 40b8 	strh.w	r4, [sp, #184]	@ 0xb8
  TIM_InitStruct.CounterMode = LL_TIM_COUNTERMODE_UP;
 8003144:	942f      	str	r4, [sp, #188]	@ 0xbc
  TIM_InitStruct.ClockDivision = LL_TIM_CLOCKDIVISION_DIV1;
 8003146:	9431      	str	r4, [sp, #196]	@ 0xc4
  LL_TIM_Init(TIM3, &TIM_InitStruct);
 8003148:	f000 ffa8 	bl	800409c <LL_TIM_Init>
  CLEAR_BIT(TIMx->CR1, TIM_CR1_ARPE);
 800314c:	f8db 1000 	ldr.w	r1, [fp]
 8003150:	f021 0180 	bic.w	r1, r1, #128	@ 0x80
 8003154:	f8cb 1000 	str.w	r1, [fp]
  MODIFY_REG(TIMx->SMCR, TIM_SMCR_SMS, EncoderMode);
 8003158:	f8db 1008 	ldr.w	r1, [fp, #8]
 800315c:	f421 3180 	bic.w	r1, r1, #65536	@ 0x10000
 8003160:	e014      	b.n	800318c <main+0xf0c>
 8003162:	bf00      	nop
 8003164:	f3af 8000 	nop.w
 8003168:	00000000 	.word	0x00000000
 800316c:	0000000d 	.word	0x0000000d
 8003170:	00000000 	.word	0x00000000
 8003174:	00000001 	.word	0x00000001
 8003178:	00000000 	.word	0x00000000
 800317c:	00000002 	.word	0x00000002
 8003180:	48000400 	.word	0x48000400
 8003184:	48000800 	.word	0x48000800
 8003188:	48000c00 	.word	0x48000c00
 800318c:	f021 0107 	bic.w	r1, r1, #7
 8003190:	ea41 0109 	orr.w	r1, r1, r9
 8003194:	f8cb 1008 	str.w	r1, [fp, #8]
  LL_TIM_IC_SetActiveInput(TIM3, LL_TIM_CHANNEL_CH1, LL_TIM_ACTIVEINPUT_DIRECTTI);
 8003198:	4658      	mov	r0, fp
 800319a:	f44f 3280 	mov.w	r2, #65536	@ 0x10000
 800319e:	4649      	mov	r1, r9
 80031a0:	f7fe fb4e 	bl	8001840 <LL_TIM_IC_SetActiveInput>
  LL_TIM_IC_SetPrescaler(TIM3, LL_TIM_CHANNEL_CH1, LL_TIM_ICPSC_DIV1);
 80031a4:	4658      	mov	r0, fp
 80031a6:	4649      	mov	r1, r9
 80031a8:	f7fe fb8e 	bl	80018c8 <LL_TIM_IC_SetPrescaler.constprop.0>
  LL_TIM_IC_SetFilter(TIM3, LL_TIM_CHANNEL_CH1, LL_TIM_IC_FILTER_FDIV1);
 80031ac:	4658      	mov	r0, fp
 80031ae:	4649      	mov	r1, r9
 80031b0:	f7fe fb6c 	bl	800188c <LL_TIM_IC_SetFilter.constprop.0>
  MODIFY_REG(TIMx->CCER, ((TIM_CCER_CC1NP | TIM_CCER_CC1P) << SHIFT_TAB_CCxP[iChannel]),
 80031b4:	f8db 1020 	ldr.w	r1, [fp, #32]
 80031b8:	f021 010a 	bic.w	r1, r1, #10
 80031bc:	f8cb 1020 	str.w	r1, [fp, #32]
  LL_TIM_IC_SetActiveInput(TIM3, LL_TIM_CHANNEL_CH2, LL_TIM_ACTIVEINPUT_DIRECTTI);
 80031c0:	4658      	mov	r0, fp
 80031c2:	f44f 3280 	mov.w	r2, #65536	@ 0x10000
 80031c6:	4641      	mov	r1, r8
 80031c8:	f7fe fb3a 	bl	8001840 <LL_TIM_IC_SetActiveInput>
  LL_TIM_IC_SetPrescaler(TIM3, LL_TIM_CHANNEL_CH2, LL_TIM_ICPSC_DIV1);
 80031cc:	4658      	mov	r0, fp
 80031ce:	4641      	mov	r1, r8
 80031d0:	f7fe fb7a 	bl	80018c8 <LL_TIM_IC_SetPrescaler.constprop.0>
  LL_TIM_IC_SetFilter(TIM3, LL_TIM_CHANNEL_CH2, LL_TIM_IC_FILTER_FDIV1);
 80031d4:	4658      	mov	r0, fp
 80031d6:	4641      	mov	r1, r8
 80031d8:	f7fe fb58 	bl	800188c <LL_TIM_IC_SetFilter.constprop.0>
 80031dc:	f8db 1020 	ldr.w	r1, [fp, #32]
 80031e0:	f021 01a0 	bic.w	r1, r1, #160	@ 0xa0
 80031e4:	f8cb 1020 	str.w	r1, [fp, #32]
  MODIFY_REG(TIMx->CR2, TIM_CR2_MMS, TimerSynchronization);
 80031e8:	f8db 1004 	ldr.w	r1, [fp, #4]
 80031ec:	f021 7100 	bic.w	r1, r1, #33554432	@ 0x2000000
 80031f0:	f021 0170 	bic.w	r1, r1, #112	@ 0x70
 80031f4:	f8cb 1004 	str.w	r1, [fp, #4]
  CLEAR_BIT(TIMx->SMCR, TIM_SMCR_MSM);
 80031f8:	f8db 1008 	ldr.w	r1, [fp, #8]
 80031fc:	f021 0180 	bic.w	r1, r1, #128	@ 0x80
 8003200:	f8cb 1008 	str.w	r1, [fp, #8]
  LL_TIM_IC_SetActiveInput(TIM3, LL_TIM_CHANNEL_CH3, LL_TIM_ACTIVEINPUT_DIRECTTI);
 8003204:	4658      	mov	r0, fp
 8003206:	f44f 3280 	mov.w	r2, #65536	@ 0x10000
 800320a:	4651      	mov	r1, sl
 800320c:	f7fe fb18 	bl	8001840 <LL_TIM_IC_SetActiveInput>
  LL_TIM_IC_SetPrescaler(TIM3, LL_TIM_CHANNEL_CH3, LL_TIM_ICPSC_DIV1);
 8003210:	4658      	mov	r0, fp
 8003212:	4651      	mov	r1, sl
 8003214:	f7fe fb58 	bl	80018c8 <LL_TIM_IC_SetPrescaler.constprop.0>
  LL_TIM_IC_SetFilter(TIM3, LL_TIM_CHANNEL_CH3, LL_TIM_IC_FILTER_FDIV1);
 8003218:	4658      	mov	r0, fp
 800321a:	4651      	mov	r1, sl
 800321c:	f7fe fb36 	bl	800188c <LL_TIM_IC_SetFilter.constprop.0>
  MODIFY_REG(TIMx->CCER, ((TIM_CCER_CC1NP | TIM_CCER_CC1P) << SHIFT_TAB_CCxP[iChannel]),
 8003220:	f8db 2020 	ldr.w	r2, [fp, #32]
 8003224:	f422 6220 	bic.w	r2, r2, #2560	@ 0xa00
 8003228:	f8cb 2020 	str.w	r2, [fp, #32]
  MODIFY_REG(TIMx->SMCR, TIM_SMCR_ETP | TIM_SMCR_ETPS | TIM_SMCR_ETF, ETRPolarity | ETRPrescaler | ETRFilter);
 800322c:	f8db 2008 	ldr.w	r2, [fp, #8]
 8003230:	f422 423f 	bic.w	r2, r2, #48896	@ 0xbf00
 8003234:	f8cb 2008 	str.w	r2, [fp, #8]
  MODIFY_REG(TIMx->ECR, TIM_ECR_IDIR | TIM_ECR_FIDX | TIM_ECR_IPOS, Configuration);
 8003238:	f8db 2058 	ldr.w	r2, [fp, #88]	@ 0x58
 800323c:	f022 02e6 	bic.w	r2, r2, #230	@ 0xe6
 8003240:	f8cb 2058 	str.w	r2, [fp, #88]	@ 0x58
  SET_BIT(TIMx->ECR, TIM_ECR_IE);
 8003244:	f8db 2058 	ldr.w	r2, [fp, #88]	@ 0x58
 8003248:	ea42 0209 	orr.w	r2, r2, r9
 800324c:	f8cb 2058 	str.w	r2, [fp, #88]	@ 0x58
  LL_TIM_OC_InitTypeDef TIM_OC_InitStruct = {0};
 8003250:	4621      	mov	r1, r4
 8003252:	2220      	movs	r2, #32
 8003254:	a834      	add	r0, sp, #208	@ 0xd0
  LL_TIM_InitTypeDef TIM_InitStruct = {0};
 8003256:	f8ad 40ca 	strh.w	r4, [sp, #202]	@ 0xca
 800325a:	f8cd 40ba 	str.w	r4, [sp, #186]	@ 0xba
 800325e:	f8cd 40be 	str.w	r4, [sp, #190]	@ 0xbe
 8003262:	f8cd 40c2 	str.w	r4, [sp, #194]	@ 0xc2
 8003266:	f8cd 40c6 	str.w	r4, [sp, #198]	@ 0xc6
  LL_TIM_OC_InitTypeDef TIM_OC_InitStruct = {0};
 800326a:	f004 f84d 	bl	8007308 <memset>
  SET_BIT(RCC->APB1ENR1, Periphs);
 800326e:	6daa      	ldr	r2, [r5, #88]	@ 0x58
  MODIFY_REG((DMAMUX1_Channel0 + Channel + dmamux_ccr_offset)->CCR, DMAMUX_CxCR_DMAREQ_ID, PeriphRequest);
 8003270:	4bc8      	ldr	r3, [pc, #800]	@ (8003594 <main+0x1314>)
  MODIFY_REG(((DMA_Channel_TypeDef *)((uint32_t)(dma_base_addr + CHANNEL_OFFSET_TAB[Channel])))->CCR,
 8003272:	49c9      	ldr	r1, [pc, #804]	@ (8003598 <main+0x1318>)
 8003274:	f042 0208 	orr.w	r2, r2, #8
 8003278:	65aa      	str	r2, [r5, #88]	@ 0x58
  tmpreg = READ_BIT(RCC->APB1ENR1, Periphs);
 800327a:	6daa      	ldr	r2, [r5, #88]	@ 0x58
 800327c:	f002 0208 	and.w	r2, r2, #8
 8003280:	920e      	str	r2, [sp, #56]	@ 0x38
  (void)tmpreg;
 8003282:	9a0e      	ldr	r2, [sp, #56]	@ 0x38
  MODIFY_REG((DMAMUX1_Channel0 + Channel + dmamux_ccr_offset)->CCR, DMAMUX_CxCR_DMAREQ_ID, PeriphRequest);
 8003284:	f8d3 280c 	ldr.w	r2, [r3, #2060]	@ 0x80c
 8003288:	f022 02ff 	bic.w	r2, r2, #255	@ 0xff
 800328c:	f042 024c 	orr.w	r2, r2, #76	@ 0x4c
 8003290:	f8c3 280c 	str.w	r2, [r3, #2060]	@ 0x80c
  MODIFY_REG(((DMA_Channel_TypeDef *)((uint32_t)(dma_base_addr + CHANNEL_OFFSET_TAB[Channel])))->CCR,
 8003294:	6c5a      	ldr	r2, [r3, #68]	@ 0x44
 8003296:	400a      	ands	r2, r1
 8003298:	645a      	str	r2, [r3, #68]	@ 0x44
  MODIFY_REG(((DMA_Channel_TypeDef *)((uint32_t)(dma_base_addr + CHANNEL_OFFSET_TAB[Channel])))->CCR, DMA_CCR_PL,
 800329a:	6c5a      	ldr	r2, [r3, #68]	@ 0x44
 800329c:	f422 5240 	bic.w	r2, r2, #12288	@ 0x3000
 80032a0:	f442 5280 	orr.w	r2, r2, #4096	@ 0x1000
 80032a4:	645a      	str	r2, [r3, #68]	@ 0x44
  MODIFY_REG(((DMA_Channel_TypeDef *)((uint32_t)(dma_base_addr + CHANNEL_OFFSET_TAB[Channel])))->CCR, DMA_CCR_CIRC,
 80032a6:	6c5a      	ldr	r2, [r3, #68]	@ 0x44
 80032a8:	f042 0220 	orr.w	r2, r2, #32
 80032ac:	645a      	str	r2, [r3, #68]	@ 0x44
  MODIFY_REG(((DMA_Channel_TypeDef *)((uint32_t)(dma_base_addr + CHANNEL_OFFSET_TAB[Channel])))->CCR, DMA_CCR_PINC,
 80032ae:	6c5a      	ldr	r2, [r3, #68]	@ 0x44
 80032b0:	f022 0240 	bic.w	r2, r2, #64	@ 0x40
 80032b4:	645a      	str	r2, [r3, #68]	@ 0x44
  MODIFY_REG(((DMA_Channel_TypeDef *)((uint32_t)(dma_base_addr + CHANNEL_OFFSET_TAB[Channel])))->CCR, DMA_CCR_MINC,
 80032b6:	6c5a      	ldr	r2, [r3, #68]	@ 0x44
 80032b8:	f022 0280 	bic.w	r2, r2, #128	@ 0x80
 80032bc:	645a      	str	r2, [r3, #68]	@ 0x44
  MODIFY_REG(((DMA_Channel_TypeDef *)((uint32_t)(dma_base_addr + CHANNEL_OFFSET_TAB[Channel])))->CCR, DMA_CCR_PSIZE,
 80032be:	6c5a      	ldr	r2, [r3, #68]	@ 0x44
 80032c0:	f422 7240 	bic.w	r2, r2, #768	@ 0x300
 80032c4:	f442 7200 	orr.w	r2, r2, #512	@ 0x200
 80032c8:	645a      	str	r2, [r3, #68]	@ 0x44
  MODIFY_REG(((DMA_Channel_TypeDef *)((uint32_t)(dma_base_addr + CHANNEL_OFFSET_TAB[Channel])))->CCR, DMA_CCR_MSIZE,
 80032ca:	6c5a      	ldr	r2, [r3, #68]	@ 0x44
 80032cc:	f422 6240 	bic.w	r2, r2, #3072	@ 0xc00
 80032d0:	f442 6200 	orr.w	r2, r2, #2048	@ 0x800
 80032d4:	645a      	str	r2, [r3, #68]	@ 0x44
  MODIFY_REG((DMAMUX1_Channel0 + Channel + dmamux_ccr_offset)->CCR, DMAMUX_CxCR_DMAREQ_ID, PeriphRequest);
 80032d6:	f8d3 282c 	ldr.w	r2, [r3, #2092]	@ 0x82c
 80032da:	f022 02ff 	bic.w	r2, r2, #255	@ 0xff
 80032de:	f042 0249 	orr.w	r2, r2, #73	@ 0x49
 80032e2:	f8c3 282c 	str.w	r2, [r3, #2092]	@ 0x82c
  MODIFY_REG(((DMA_Channel_TypeDef *)((uint32_t)(dma_base_addr + CHANNEL_OFFSET_TAB[Channel])))->CCR,
 80032e6:	4aad      	ldr	r2, [pc, #692]	@ (800359c <main+0x131c>)
 80032e8:	6c50      	ldr	r0, [r2, #68]	@ 0x44
 80032ea:	4001      	ands	r1, r0
 80032ec:	6451      	str	r1, [r2, #68]	@ 0x44
  MODIFY_REG(((DMA_Channel_TypeDef *)((uint32_t)(dma_base_addr + CHANNEL_OFFSET_TAB[Channel])))->CCR, DMA_CCR_PL,
 80032ee:	6c51      	ldr	r1, [r2, #68]	@ 0x44
 80032f0:	f421 5140 	bic.w	r1, r1, #12288	@ 0x3000
 80032f4:	f441 5180 	orr.w	r1, r1, #4096	@ 0x1000
 80032f8:	6451      	str	r1, [r2, #68]	@ 0x44
  MODIFY_REG(((DMA_Channel_TypeDef *)((uint32_t)(dma_base_addr + CHANNEL_OFFSET_TAB[Channel])))->CCR, DMA_CCR_CIRC,
 80032fa:	6c51      	ldr	r1, [r2, #68]	@ 0x44
 80032fc:	f041 0120 	orr.w	r1, r1, #32
 8003300:	6451      	str	r1, [r2, #68]	@ 0x44
  MODIFY_REG(((DMA_Channel_TypeDef *)((uint32_t)(dma_base_addr + CHANNEL_OFFSET_TAB[Channel])))->CCR, DMA_CCR_PINC,
 8003302:	6c51      	ldr	r1, [r2, #68]	@ 0x44
 8003304:	f021 0140 	bic.w	r1, r1, #64	@ 0x40
 8003308:	6451      	str	r1, [r2, #68]	@ 0x44
  MODIFY_REG(((DMA_Channel_TypeDef *)((uint32_t)(dma_base_addr + CHANNEL_OFFSET_TAB[Channel])))->CCR, DMA_CCR_MINC,
 800330a:	6c51      	ldr	r1, [r2, #68]	@ 0x44
 800330c:	f021 0180 	bic.w	r1, r1, #128	@ 0x80
 8003310:	6451      	str	r1, [r2, #68]	@ 0x44
  MODIFY_REG(((DMA_Channel_TypeDef *)((uint32_t)(dma_base_addr + CHANNEL_OFFSET_TAB[Channel])))->CCR, DMA_CCR_PSIZE,
 8003312:	6c51      	ldr	r1, [r2, #68]	@ 0x44
 8003314:	f421 7140 	bic.w	r1, r1, #768	@ 0x300
 8003318:	f441 7100 	orr.w	r1, r1, #512	@ 0x200
 800331c:	6451      	str	r1, [r2, #68]	@ 0x44
  MODIFY_REG(((DMA_Channel_TypeDef *)((uint32_t)(dma_base_addr + CHANNEL_OFFSET_TAB[Channel])))->CCR, DMA_CCR_MSIZE,
 800331e:	6c51      	ldr	r1, [r2, #68]	@ 0x44
 8003320:	f421 6140 	bic.w	r1, r1, #3072	@ 0xc00
  LL_TIM_Init(TIM5, &TIM_InitStruct);
 8003324:	f50b 6b00 	add.w	fp, fp, #2048	@ 0x800
 8003328:	f441 6100 	orr.w	r1, r1, #2048	@ 0x800
 800332c:	6451      	str	r1, [r2, #68]	@ 0x44
 800332e:	4658      	mov	r0, fp
  TIM_InitStruct.CounterMode = LL_TIM_COUNTERMODE_UP;
 8003330:	4a9b      	ldr	r2, [pc, #620]	@ (80035a0 <main+0x1320>)
 8003332:	9230      	str	r2, [sp, #192]	@ 0xc0
  LL_TIM_Init(TIM5, &TIM_InitStruct);
 8003334:	a92e      	add	r1, sp, #184	@ 0xb8
  TIM_InitStruct.Prescaler = 0;
 8003336:	f8ad 40b8 	strh.w	r4, [sp, #184]	@ 0xb8
  TIM_InitStruct.CounterMode = LL_TIM_COUNTERMODE_UP;
 800333a:	942f      	str	r4, [sp, #188]	@ 0xbc
  TIM_InitStruct.ClockDivision = LL_TIM_CLOCKDIVISION_DIV1;
 800333c:	9431      	str	r4, [sp, #196]	@ 0xc4
  LL_TIM_Init(TIM5, &TIM_InitStruct);
 800333e:	f000 fead 	bl	800409c <LL_TIM_Init>
  CLEAR_BIT(TIMx->CR1, TIM_CR1_ARPE);
 8003342:	f8db 2000 	ldr.w	r2, [fp]
  TIM_OC_InitStruct.CompareValue = 1699998;
 8003346:	4997      	ldr	r1, [pc, #604]	@ (80035a4 <main+0x1324>)
 8003348:	f022 0280 	bic.w	r2, r2, #128	@ 0x80
 800334c:	f8cb 2000 	str.w	r2, [fp]
  MODIFY_REG(TIMx->SMCR, TIM_SMCR_SMS | TIM_SMCR_ECE, ClockSource);
 8003350:	f8db 2008 	ldr.w	r2, [fp, #8]
 8003354:	f422 32a0 	bic.w	r2, r2, #81920	@ 0x14000
 8003358:	f022 0207 	bic.w	r2, r2, #7
 800335c:	f8cb 2008 	str.w	r2, [fp, #8]
  SET_BIT(*pReg, (TIM_CCMR1_OC1PE << SHIFT_TAB_OCxx[iChannel]));
 8003360:	f8d6 2c18 	ldr.w	r2, [r6, #3096]	@ 0xc18
  TIM_OC_InitStruct.OCMode = LL_TIM_OCMODE_PWM1;
 8003364:	2060      	movs	r0, #96	@ 0x60
 8003366:	f442 6200 	orr.w	r2, r2, #2048	@ 0x800
 800336a:	f8c6 2c18 	str.w	r2, [r6, #3096]	@ 0xc18
 800336e:	9034      	str	r0, [sp, #208]	@ 0xd0
  TIM_OC_InitStruct.CompareValue = 1699998;
 8003370:	9137      	str	r1, [sp, #220]	@ 0xdc
  LL_TIM_OC_Init(TIM5, LL_TIM_CHANNEL_CH2, &TIM_OC_InitStruct);
 8003372:	aa34      	add	r2, sp, #208	@ 0xd0
 8003374:	4641      	mov	r1, r8
 8003376:	4658      	mov	r0, fp
  TIM_OC_InitStruct.OCNState = LL_TIM_OCSTATE_DISABLE;
 8003378:	e9cd 4435 	strd	r4, r4, [sp, #212]	@ 0xd4
  TIM_OC_InitStruct.OCPolarity = LL_TIM_OCPOLARITY_LOW;
 800337c:	9738      	str	r7, [sp, #224]	@ 0xe0
  LL_TIM_OC_Init(TIM5, LL_TIM_CHANNEL_CH2, &TIM_OC_InitStruct);
 800337e:	f000 fef1 	bl	8004164 <LL_TIM_OC_Init>
  CLEAR_BIT(*pReg, (TIM_CCMR1_OC1FE << SHIFT_TAB_OCxx[iChannel]));
 8003382:	f8d6 1c18 	ldr.w	r1, [r6, #3096]	@ 0xc18
 8003386:	f421 6180 	bic.w	r1, r1, #1024	@ 0x400
 800338a:	f8c6 1c18 	str.w	r1, [r6, #3096]	@ 0xc18
  MODIFY_REG(TIMx->CR1, TIM_CR1_OPM, OnePulseMode);
 800338e:	f8db 1000 	ldr.w	r1, [fp]
 8003392:	f041 0108 	orr.w	r1, r1, #8
 8003396:	f8cb 1000 	str.w	r1, [fp]
  MODIFY_REG(TIMx->SMCR, TIM_SMCR_TS, TriggerInput);
 800339a:	f8db 1008 	ldr.w	r1, [fp, #8]
 800339e:	f421 1140 	bic.w	r1, r1, #3145728	@ 0x300000
 80033a2:	f021 0170 	bic.w	r1, r1, #112	@ 0x70
 80033a6:	ea41 0108 	orr.w	r1, r1, r8
 80033aa:	f8cb 1008 	str.w	r1, [fp, #8]
  MODIFY_REG(TIMx->SMCR, TIM_SMCR_SMS, SlaveMode);
 80033ae:	f8db 1008 	ldr.w	r1, [fp, #8]
 80033b2:	f421 3180 	bic.w	r1, r1, #65536	@ 0x10000
 80033b6:	f021 0107 	bic.w	r1, r1, #7
 80033ba:	f041 0106 	orr.w	r1, r1, #6
 80033be:	f8cb 1008 	str.w	r1, [fp, #8]
  CLEAR_BIT(TIMx->DIER, TIM_DIER_TIE);
 80033c2:	f8db 100c 	ldr.w	r1, [fp, #12]
 80033c6:	f021 0140 	bic.w	r1, r1, #64	@ 0x40
 80033ca:	f8cb 100c 	str.w	r1, [fp, #12]
  * @param  TIMx Timer instance
  * @retval None
  */
__STATIC_INLINE void LL_TIM_DisableDMAReq_TRIG(TIM_TypeDef *TIMx)
{
  CLEAR_BIT(TIMx->DIER, TIM_DIER_TDE);
 80033ce:	f8db 100c 	ldr.w	r1, [fp, #12]
 80033d2:	f421 4180 	bic.w	r1, r1, #16384	@ 0x4000
 80033d6:	f8cb 100c 	str.w	r1, [fp, #12]
  MODIFY_REG(TIMx->CR2, TIM_CR2_MMS, TimerSynchronization);
 80033da:	f8db 1004 	ldr.w	r1, [fp, #4]
 80033de:	f021 7100 	bic.w	r1, r1, #33554432	@ 0x2000000
 80033e2:	f021 0170 	bic.w	r1, r1, #112	@ 0x70
 80033e6:	f041 0150 	orr.w	r1, r1, #80	@ 0x50
 80033ea:	f8cb 1004 	str.w	r1, [fp, #4]
  CLEAR_BIT(TIMx->SMCR, TIM_SMCR_MSM);
 80033ee:	f8db 1008 	ldr.w	r1, [fp, #8]
 80033f2:	f021 0180 	bic.w	r1, r1, #128	@ 0x80
  LL_TIM_IC_SetActiveInput(TIM5, LL_TIM_CHANNEL_CH1, LL_TIM_ACTIVEINPUT_TRC);
 80033f6:	f44f 3240 	mov.w	r2, #196608	@ 0x30000
 80033fa:	f8cb 1008 	str.w	r1, [fp, #8]
 80033fe:	4658      	mov	r0, fp
 8003400:	4649      	mov	r1, r9
 8003402:	f7fe fa1d 	bl	8001840 <LL_TIM_IC_SetActiveInput>
  LL_TIM_IC_SetPrescaler(TIM5, LL_TIM_CHANNEL_CH1, LL_TIM_ICPSC_DIV1);
 8003406:	4649      	mov	r1, r9
 8003408:	4658      	mov	r0, fp
 800340a:	f7fe fa5d 	bl	80018c8 <LL_TIM_IC_SetPrescaler.constprop.0>
  LL_TIM_IC_SetFilter(TIM5, LL_TIM_CHANNEL_CH1, LL_TIM_IC_FILTER_FDIV1);
 800340e:	4649      	mov	r1, r9
 8003410:	4658      	mov	r0, fp
 8003412:	f7fe fa3b 	bl	800188c <LL_TIM_IC_SetFilter.constprop.0>
  MODIFY_REG(TIMx->CCER, ((TIM_CCER_CC1NP | TIM_CCER_CC1P) << SHIFT_TAB_CCxP[iChannel]),
 8003416:	f8db 0020 	ldr.w	r0, [fp, #32]
  return ((uint32_t)((SCB->AIRCR & SCB_AIRCR_PRIGROUP_Msk) >> SCB_AIRCR_PRIGROUP_Pos));
 800341a:	4a63      	ldr	r2, [pc, #396]	@ (80035a8 <main+0x1328>)
 800341c:	f020 000a 	bic.w	r0, r0, #10
 8003420:	f8cb 0020 	str.w	r0, [fp, #32]
  CLEAR_BIT(*pReg, (TIM_CCMR1_OC1PE << SHIFT_TAB_OCxx[iChannel]));
 8003424:	f8d6 3c18 	ldr.w	r3, [r6, #3096]	@ 0xc18
 8003428:	f423 6300 	bic.w	r3, r3, #2048	@ 0x800
 800342c:	f8c6 3c18 	str.w	r3, [r6, #3096]	@ 0xc18
  LL_TIM_InitTypeDef TIM_InitStruct = {0};
 8003430:	e9cd 4434 	strd	r4, r4, [sp, #208]	@ 0xd0
 8003434:	e9cd 4436 	strd	r4, r4, [sp, #216]	@ 0xd8
 8003438:	9438      	str	r4, [sp, #224]	@ 0xe0
  SET_BIT(RCC->APB1ENR1, Periphs);
 800343a:	6dab      	ldr	r3, [r5, #88]	@ 0x58
 800343c:	ea43 0308 	orr.w	r3, r3, r8
 8003440:	65ab      	str	r3, [r5, #88]	@ 0x58
  tmpreg = READ_BIT(RCC->APB1ENR1, Periphs);
 8003442:	6dab      	ldr	r3, [r5, #88]	@ 0x58
 8003444:	ea03 0308 	and.w	r3, r3, r8
 8003448:	930d      	str	r3, [sp, #52]	@ 0x34
  (void)tmpreg;
 800344a:	9b0d      	ldr	r3, [sp, #52]	@ 0x34
 800344c:	68d0      	ldr	r0, [r2, #12]
  NVIC_SetPriority(TIM6_DAC_IRQn, NVIC_EncodePriority(NVIC_GetPriorityGrouping(),12, 0));
 800344e:	210c      	movs	r1, #12
 8003450:	f3c0 2002 	ubfx	r0, r0, #8, #3
 8003454:	f7fe fe8a 	bl	800216c <NVIC_EncodePriority.constprop.0>
    NVIC->IP[((uint32_t)IRQn)]               = (uint8_t)((priority << (8U - __NVIC_PRIO_BITS)) & (uint32_t)0xFFUL);
 8003458:	4a54      	ldr	r2, [pc, #336]	@ (80035ac <main+0x132c>)
 800345a:	0103      	lsls	r3, r0, #4
 800345c:	b2db      	uxtb	r3, r3
 800345e:	f882 3336 	strb.w	r3, [r2, #822]	@ 0x336
    NVIC->ISER[(((uint32_t)IRQn) >> 5UL)] = (uint32_t)(1UL << (((uint32_t)IRQn) & 0x1FUL));
 8003462:	f44f 0380 	mov.w	r3, #4194304	@ 0x400000
 8003466:	6053      	str	r3, [r2, #4]
  TIM_InitStruct.Prescaler = 169;
 8003468:	23a9      	movs	r3, #169	@ 0xa9
  LL_TIM_Init(TIM6, &TIM_InitStruct);
 800346a:	f506 5680 	add.w	r6, r6, #4096	@ 0x1000
  TIM_InitStruct.Prescaler = 169;
 800346e:	f8ad 30d0 	strh.w	r3, [sp, #208]	@ 0xd0
  LL_TIM_Init(TIM6, &TIM_InitStruct);
 8003472:	a934      	add	r1, sp, #208	@ 0xd0
  TIM_InitStruct.CounterMode = LL_TIM_COUNTERMODE_UP;
 8003474:	f240 33e7 	movw	r3, #999	@ 0x3e7
  LL_TIM_Init(TIM6, &TIM_InitStruct);
 8003478:	4630      	mov	r0, r6
  TIM_InitStruct.CounterMode = LL_TIM_COUNTERMODE_UP;
 800347a:	9336      	str	r3, [sp, #216]	@ 0xd8
 800347c:	9435      	str	r4, [sp, #212]	@ 0xd4
  LL_TIM_Init(TIM6, &TIM_InitStruct);
 800347e:	f000 fe0d 	bl	800409c <LL_TIM_Init>
  CLEAR_BIT(TIMx->CR1, TIM_CR1_ARPE);
 8003482:	6833      	ldr	r3, [r6, #0]
  LL_GPIO_Init(GPIOB, &GPIO_InitStruct);
 8003484:	484a      	ldr	r0, [pc, #296]	@ (80035b0 <main+0x1330>)
 8003486:	f023 0380 	bic.w	r3, r3, #128	@ 0x80
 800348a:	6033      	str	r3, [r6, #0]
  MODIFY_REG(TIMx->CR2, TIM_CR2_MMS, TimerSynchronization);
 800348c:	6873      	ldr	r3, [r6, #4]
 800348e:	f023 7300 	bic.w	r3, r3, #33554432	@ 0x2000000
 8003492:	f023 0370 	bic.w	r3, r3, #112	@ 0x70
 8003496:	6073      	str	r3, [r6, #4]
  CLEAR_BIT(TIMx->SMCR, TIM_SMCR_MSM);
 8003498:	68b3      	ldr	r3, [r6, #8]
 800349a:	f023 0380 	bic.w	r3, r3, #128	@ 0x80
 800349e:	60b3      	str	r3, [r6, #8]
  LL_GPIO_InitTypeDef GPIO_InitStruct = {0};
 80034a0:	e9cd 442e 	strd	r4, r4, [sp, #184]	@ 0xb8
 80034a4:	e9cd 4430 	strd	r4, r4, [sp, #192]	@ 0xc0
 80034a8:	e9cd 4432 	strd	r4, r4, [sp, #200]	@ 0xc8
  LL_I2C_InitTypeDef I2C_InitStruct = {0};
 80034ac:	e9cd 4434 	strd	r4, r4, [sp, #208]	@ 0xd0
 80034b0:	e9cd 4436 	strd	r4, r4, [sp, #216]	@ 0xd8
 80034b4:	e9cd 4438 	strd	r4, r4, [sp, #224]	@ 0xe0
 80034b8:	943a      	str	r4, [sp, #232]	@ 0xe8
  MODIFY_REG(*reg, 3UL << ((I2CxSource & 0x001F0000U) >> 16U), ((I2CxSource & 0x000000FFU) << ((I2CxSource & 0x001F0000U) >> 16U)));
 80034ba:	f8d5 3088 	ldr.w	r3, [r5, #136]	@ 0x88
 80034be:	f423 5340 	bic.w	r3, r3, #12288	@ 0x3000
 80034c2:	f8c5 3088 	str.w	r3, [r5, #136]	@ 0x88
  SET_BIT(RCC->AHB2ENR, Periphs);
 80034c6:	6ceb      	ldr	r3, [r5, #76]	@ 0x4c
 80034c8:	433b      	orrs	r3, r7
 80034ca:	64eb      	str	r3, [r5, #76]	@ 0x4c
  tmpreg = READ_BIT(RCC->AHB2ENR, Periphs);
 80034cc:	6ceb      	ldr	r3, [r5, #76]	@ 0x4c
  GPIO_InitStruct.Pin = LL_GPIO_PIN_8;
 80034ce:	f8cd a0b8 	str.w	sl, [sp, #184]	@ 0xb8
 80034d2:	403b      	ands	r3, r7
  GPIO_InitStruct.Pull = LL_GPIO_PULL_NO;
 80034d4:	f04f 0a00 	mov.w	sl, #0
 80034d8:	f04f 0b04 	mov.w	fp, #4
 80034dc:	930b      	str	r3, [sp, #44]	@ 0x2c
  LL_GPIO_Init(GPIOB, &GPIO_InitStruct);
 80034de:	a92e      	add	r1, sp, #184	@ 0xb8
  GPIO_InitStruct.Pull = LL_GPIO_PULL_NO;
 80034e0:	e9cd ab32 	strd	sl, fp, [sp, #200]	@ 0xc8
  (void)tmpreg;
 80034e4:	9b0b      	ldr	r3, [sp, #44]	@ 0x2c
  GPIO_InitStruct.OutputType = LL_GPIO_OUTPUT_OPENDRAIN;
 80034e6:	f8cd 90c4 	str.w	r9, [sp, #196]	@ 0xc4
  GPIO_InitStruct.Speed = LL_GPIO_SPEED_FREQ_LOW;
 80034ea:	e9cd 742f 	strd	r7, r4, [sp, #188]	@ 0xbc
  LL_GPIO_Init(GPIOB, &GPIO_InitStruct);
 80034ee:	f000 fb1f 	bl	8003b30 <LL_GPIO_Init>
  GPIO_InitStruct.Pin = LL_GPIO_PIN_9;
 80034f2:	f44f 7300 	mov.w	r3, #512	@ 0x200
  LL_GPIO_Init(GPIOB, &GPIO_InitStruct);
 80034f6:	a92e      	add	r1, sp, #184	@ 0xb8
 80034f8:	482d      	ldr	r0, [pc, #180]	@ (80035b0 <main+0x1330>)
  GPIO_InitStruct.Pin = LL_GPIO_PIN_9;
 80034fa:	932e      	str	r3, [sp, #184]	@ 0xb8
  GPIO_InitStruct.Pull = LL_GPIO_PULL_NO;
 80034fc:	e9cd ab32 	strd	sl, fp, [sp, #200]	@ 0xc8
  GPIO_InitStruct.OutputType = LL_GPIO_OUTPUT_OPENDRAIN;
 8003500:	f8cd 90c4 	str.w	r9, [sp, #196]	@ 0xc4
  GPIO_InitStruct.Speed = LL_GPIO_SPEED_FREQ_LOW;
 8003504:	e9cd 742f 	strd	r7, r4, [sp, #188]	@ 0xbc
  LL_GPIO_Init(GPIOB, &GPIO_InitStruct);
 8003508:	f000 fb12 	bl	8003b30 <LL_GPIO_Init>
  SET_BIT(RCC->APB1ENR1, Periphs);
 800350c:	6dab      	ldr	r3, [r5, #88]	@ 0x58
  I2C_InitStruct.Timing = 0x40B285C2;
 800350e:	4a29      	ldr	r2, [pc, #164]	@ (80035b4 <main+0x1334>)
 8003510:	f443 1300 	orr.w	r3, r3, #2097152	@ 0x200000
 8003514:	65ab      	str	r3, [r5, #88]	@ 0x58
  tmpreg = READ_BIT(RCC->APB1ENR1, Periphs);
 8003516:	6dab      	ldr	r3, [r5, #88]	@ 0x58
 8003518:	9235      	str	r2, [sp, #212]	@ 0xd4
 800351a:	f403 1300 	and.w	r3, r3, #2097152	@ 0x200000
  LL_I2C_Init(I2C1, &I2C_InitStruct);
 800351e:	f506 4688 	add.w	r6, r6, #17408	@ 0x4400
 8003522:	930c      	str	r3, [sp, #48]	@ 0x30
  I2C_InitStruct.OwnAddress1 = 0;
 8003524:	2200      	movs	r2, #0
  (void)tmpreg;
 8003526:	9b0c      	ldr	r3, [sp, #48]	@ 0x30
  I2C_InitStruct.PeripheralMode = LL_I2C_MODE_I2C;
 8003528:	9434      	str	r4, [sp, #208]	@ 0xd0
  I2C_InitStruct.OwnAddress1 = 0;
 800352a:	2300      	movs	r3, #0
  LL_I2C_Init(I2C1, &I2C_InitStruct);
 800352c:	a934      	add	r1, sp, #208	@ 0xd0
 800352e:	4630      	mov	r0, r6
  I2C_InitStruct.OwnAddress1 = 0;
 8003530:	e9cd 2338 	strd	r2, r3, [sp, #224]	@ 0xe0
  I2C_InitStruct.DigitalFilter = 0;
 8003534:	e9cd 4436 	strd	r4, r4, [sp, #216]	@ 0xd8
  I2C_InitStruct.OwnAddrSize = LL_I2C_OWNADDRESS1_7BIT;
 8003538:	943a      	str	r4, [sp, #232]	@ 0xe8
  LL_I2C_Init(I2C1, &I2C_InitStruct);
 800353a:	f000 fbb1 	bl	8003ca0 <LL_I2C_Init>
  * @param  I2Cx I2C Instance.
  * @retval None
  */
__STATIC_INLINE void LL_I2C_EnableAutoEndMode(I2C_TypeDef *I2Cx)
{
  SET_BIT(I2Cx->CR2, I2C_CR2_AUTOEND);
 800353e:	6873      	ldr	r3, [r6, #4]
 8003540:	f043 7300 	orr.w	r3, r3, #33554432	@ 0x2000000
 8003544:	6073      	str	r3, [r6, #4]
  MODIFY_REG(I2Cx->OAR2, I2C_OAR2_OA2 | I2C_OAR2_OA2MSK, OwnAddress2 | OwnAddrMask);
 8003546:	68f3      	ldr	r3, [r6, #12]
 8003548:	f36f 034a 	bfc	r3, #1, #10
 800354c:	60f3      	str	r3, [r6, #12]
  CLEAR_BIT(I2Cx->OAR2, I2C_OAR2_OA2EN);
 800354e:	68f3      	ldr	r3, [r6, #12]
 8003550:	f423 4300 	bic.w	r3, r3, #32768	@ 0x8000
 8003554:	60f3      	str	r3, [r6, #12]
  CLEAR_BIT(I2Cx->CR1, I2C_CR1_GCEN);
 8003556:	6833      	ldr	r3, [r6, #0]
 8003558:	f423 2300 	bic.w	r3, r3, #524288	@ 0x80000
 800355c:	6033      	str	r3, [r6, #0]
  CLEAR_BIT(I2Cx->CR1, I2C_CR1_NOSTRETCH);
 800355e:	6833      	ldr	r3, [r6, #0]
 8003560:	f423 3300 	bic.w	r3, r3, #131072	@ 0x20000
 8003564:	6033      	str	r3, [r6, #0]
  LL_SPI_InitTypeDef SPI_InitStruct = {0};
 8003566:	2228      	movs	r2, #40	@ 0x28
 8003568:	4621      	mov	r1, r4
 800356a:	a834      	add	r0, sp, #208	@ 0xd0
 800356c:	f003 fecc 	bl	8007308 <memset>
  LL_GPIO_InitTypeDef GPIO_InitStruct = {0};
 8003570:	e9cd 4430 	strd	r4, r4, [sp, #192]	@ 0xc0
 8003574:	9432      	str	r4, [sp, #200]	@ 0xc8
  SET_BIT(RCC->APB2ENR, Periphs);
 8003576:	6e2b      	ldr	r3, [r5, #96]	@ 0x60
 8003578:	f443 5380 	orr.w	r3, r3, #4096	@ 0x1000
 800357c:	662b      	str	r3, [r5, #96]	@ 0x60
  tmpreg = READ_BIT(RCC->APB2ENR, Periphs);
 800357e:	6e2b      	ldr	r3, [r5, #96]	@ 0x60
 8003580:	f403 5380 	and.w	r3, r3, #4096	@ 0x1000
 8003584:	9308      	str	r3, [sp, #32]
  (void)tmpreg;
 8003586:	9b08      	ldr	r3, [sp, #32]
  SET_BIT(RCC->AHB2ENR, Periphs);
 8003588:	6ceb      	ldr	r3, [r5, #76]	@ 0x4c
 800358a:	ea43 0309 	orr.w	r3, r3, r9
 800358e:	64eb      	str	r3, [r5, #76]	@ 0x4c
 8003590:	e012      	b.n	80035b8 <main+0x1338>
 8003592:	bf00      	nop
 8003594:	40020000 	.word	0x40020000
 8003598:	ffffbfef 	.word	0xffffbfef
 800359c:	40020400 	.word	0x40020400
 80035a0:	0019f09f 	.word	0x0019f09f
 80035a4:	0019f09e 	.word	0x0019f09e
 80035a8:	e000ed00 	.word	0xe000ed00
 80035ac:	e000e100 	.word	0xe000e100
 80035b0:	48000400 	.word	0x48000400
 80035b4:	40b285c2 	.word	0x40b285c2
  tmpreg = READ_BIT(RCC->AHB2ENR, Periphs);
 80035b8:	6ceb      	ldr	r3, [r5, #76]	@ 0x4c
 80035ba:	ea03 0309 	and.w	r3, r3, r9
 80035be:	9309      	str	r3, [sp, #36]	@ 0x24
  (void)tmpreg;
 80035c0:	9b09      	ldr	r3, [sp, #36]	@ 0x24
  SET_BIT(RCC->AHB2ENR, Periphs);
 80035c2:	6ceb      	ldr	r3, [r5, #76]	@ 0x4c
 80035c4:	433b      	orrs	r3, r7
 80035c6:	64eb      	str	r3, [r5, #76]	@ 0x4c
  tmpreg = READ_BIT(RCC->AHB2ENR, Periphs);
 80035c8:	6ceb      	ldr	r3, [r5, #76]	@ 0x4c
 80035ca:	403b      	ands	r3, r7
 80035cc:	930a      	str	r3, [sp, #40]	@ 0x28
  (void)tmpreg;
 80035ce:	9b0a      	ldr	r3, [sp, #40]	@ 0x28
  GPIO_InitStruct.Alternate = LL_GPIO_AF_5;
 80035d0:	2305      	movs	r3, #5
  GPIO_InitStruct.Pin = LL_GPIO_PIN_15;
 80035d2:	f44f 4200 	mov.w	r2, #32768	@ 0x8000
  GPIO_InitStruct.Alternate = LL_GPIO_AF_5;
 80035d6:	9333      	str	r3, [sp, #204]	@ 0xcc
  LL_GPIO_Init(GPIOA, &GPIO_InitStruct);
 80035d8:	a92e      	add	r1, sp, #184	@ 0xb8
  GPIO_InitStruct.Pin = LL_GPIO_PIN_15;
 80035da:	2302      	movs	r3, #2
  LL_GPIO_Init(GPIOA, &GPIO_InitStruct);
 80035dc:	f04f 4090 	mov.w	r0, #1207959552	@ 0x48000000
  GPIO_InitStruct.Pin = LL_GPIO_PIN_15;
 80035e0:	e9cd 232e 	strd	r2, r3, [sp, #184]	@ 0xb8
  GPIO_InitStruct.Pull = LL_GPIO_PULL_NO;
 80035e4:	f04f 0a00 	mov.w	sl, #0
  LL_GPIO_Init(GPIOA, &GPIO_InitStruct);
 80035e8:	f000 faa2 	bl	8003b30 <LL_GPIO_Init>
  GPIO_InitStruct.Pull = LL_GPIO_PULL_NO;
 80035ec:	f04f 0b05 	mov.w	fp, #5
  GPIO_InitStruct.Pin = LL_GPIO_PIN_3;
 80035f0:	2308      	movs	r3, #8
  LL_GPIO_Init(GPIOB, &GPIO_InitStruct);
 80035f2:	a92e      	add	r1, sp, #184	@ 0xb8
 80035f4:	48b9      	ldr	r0, [pc, #740]	@ (80038dc <main+0x165c>)
  GPIO_InitStruct.Pin = LL_GPIO_PIN_3;
 80035f6:	932e      	str	r3, [sp, #184]	@ 0xb8
  GPIO_InitStruct.Speed = LL_GPIO_SPEED_FREQ_LOW;
 80035f8:	e9cd 742f 	strd	r7, r4, [sp, #188]	@ 0xbc
  GPIO_InitStruct.Pull = LL_GPIO_PULL_NO;
 80035fc:	e9cd ab32 	strd	sl, fp, [sp, #200]	@ 0xc8
  GPIO_InitStruct.OutputType = LL_GPIO_OUTPUT_PUSHPULL;
 8003600:	9431      	str	r4, [sp, #196]	@ 0xc4
  LL_GPIO_Init(GPIOB, &GPIO_InitStruct);
 8003602:	f000 fa95 	bl	8003b30 <LL_GPIO_Init>
  LL_GPIO_Init(GPIOB, &GPIO_InitStruct);
 8003606:	a92e      	add	r1, sp, #184	@ 0xb8
 8003608:	48b4      	ldr	r0, [pc, #720]	@ (80038dc <main+0x165c>)
  GPIO_InitStruct.Mode = LL_GPIO_MODE_ALTERNATE;
 800360a:	e9cd 872e 	strd	r8, r7, [sp, #184]	@ 0xb8
  GPIO_InitStruct.Pull = LL_GPIO_PULL_NO;
 800360e:	e9cd ab32 	strd	sl, fp, [sp, #200]	@ 0xc8
  GPIO_InitStruct.OutputType = LL_GPIO_OUTPUT_PUSHPULL;
 8003612:	e9cd 4430 	strd	r4, r4, [sp, #192]	@ 0xc0
  LL_GPIO_Init(GPIOB, &GPIO_InitStruct);
 8003616:	f000 fa8b 	bl	8003b30 <LL_GPIO_Init>
  SPI_InitStruct.TransferDirection = LL_SPI_SIMPLEX_RX;
 800361a:	f44f 6380 	mov.w	r3, #1024	@ 0x400
  SPI_InitStruct.DataWidth = LL_SPI_DATAWIDTH_16BIT;
 800361e:	f44f 7c82 	mov.w	ip, #260	@ 0x104
  LL_SPI_Init(SPI1, &SPI_InitStruct);
 8003622:	f506 465c 	add.w	r6, r6, #56320	@ 0xdc00
  SPI_InitStruct.TransferDirection = LL_SPI_SIMPLEX_RX;
 8003626:	9334      	str	r3, [sp, #208]	@ 0xd0
  SPI_InitStruct.DataWidth = LL_SPI_DATAWIDTH_16BIT;
 8003628:	f44f 6370 	mov.w	r3, #3840	@ 0xf00
 800362c:	e9cd c335 	strd	ip, r3, [sp, #212]	@ 0xd4
  SPI_InitStruct.BaudRate = LL_SPI_BAUDRATEPRESCALER_DIV8;
 8003630:	f8cd 80e8 	str.w	r8, [sp, #232]	@ 0xe8
  SPI_InitStruct.NSS = LL_SPI_NSS_HARD_OUTPUT;
 8003634:	f44f 2380 	mov.w	r3, #262144	@ 0x40000
  LL_SPI_Init(SPI1, &SPI_InitStruct);
 8003638:	a934      	add	r1, sp, #208	@ 0xd0
  SPI_InitStruct.CRCCalculation = LL_SPI_CRCCALCULATION_DISABLE;
 800363a:	f04f 0800 	mov.w	r8, #0
 800363e:	f04f 0907 	mov.w	r9, #7
  LL_SPI_Init(SPI1, &SPI_InitStruct);
 8003642:	4630      	mov	r0, r6
  SPI_InitStruct.NSS = LL_SPI_NSS_HARD_OUTPUT;
 8003644:	9339      	str	r3, [sp, #228]	@ 0xe4
  SPI_InitStruct.ClockPhase = LL_SPI_PHASE_1EDGE;
 8003646:	e9cd 4437 	strd	r4, r4, [sp, #220]	@ 0xdc
  SPI_InitStruct.CRCCalculation = LL_SPI_CRCCALCULATION_DISABLE;
 800364a:	e9cd 893c 	strd	r8, r9, [sp, #240]	@ 0xf0
  SPI_InitStruct.BitOrder = LL_SPI_MSB_FIRST;
 800364e:	943b      	str	r4, [sp, #236]	@ 0xec
  LL_SPI_Init(SPI1, &SPI_InitStruct);
 8003650:	f000 fce4 	bl	800401c <LL_SPI_Init>
  *         @arg @ref LL_SPI_PROTOCOL_TI
  * @retval None
  */
__STATIC_INLINE void LL_SPI_SetStandard(SPI_TypeDef *SPIx, uint32_t Standard)
{
  MODIFY_REG(SPIx->CR2, SPI_CR2_FRF, Standard);
 8003654:	6873      	ldr	r3, [r6, #4]
 8003656:	f023 0310 	bic.w	r3, r3, #16
 800365a:	6073      	str	r3, [r6, #4]
  * @param  SPIx SPI Instance
  * @retval None
  */
__STATIC_INLINE void LL_SPI_EnableNSSPulseMgt(SPI_TypeDef *SPIx)
{
  SET_BIT(SPIx->CR2, SPI_CR2_NSSP);
 800365c:	6873      	ldr	r3, [r6, #4]
 800365e:	f043 0308 	orr.w	r3, r3, #8
  LL_USART_InitTypeDef USART_InitStruct = {0};
 8003662:	2220      	movs	r2, #32
 8003664:	6073      	str	r3, [r6, #4]
 8003666:	4621      	mov	r1, r4
 8003668:	a834      	add	r0, sp, #208	@ 0xd0
 800366a:	f003 fe4d 	bl	8007308 <memset>
  LL_GPIO_InitTypeDef GPIO_InitStruct = {0};
 800366e:	e9cd 4430 	strd	r4, r4, [sp, #192]	@ 0xc0
 8003672:	9432      	str	r4, [sp, #200]	@ 0xc8
  MODIFY_REG(RCC->CCIPR, (USARTxSource >> 16U), (USARTxSource & 0x0000FFFFU));
 8003674:	f8d5 3088 	ldr.w	r3, [r5, #136]	@ 0x88
  LL_GPIO_Init(GPIOC, &GPIO_InitStruct);
 8003678:	4899      	ldr	r0, [pc, #612]	@ (80038e0 <main+0x1660>)
 800367a:	f023 0330 	bic.w	r3, r3, #48	@ 0x30
 800367e:	f8c5 3088 	str.w	r3, [r5, #136]	@ 0x88
  SET_BIT(RCC->APB1ENR1, Periphs);
 8003682:	6dab      	ldr	r3, [r5, #88]	@ 0x58
 8003684:	f443 2380 	orr.w	r3, r3, #262144	@ 0x40000
 8003688:	65ab      	str	r3, [r5, #88]	@ 0x58
  tmpreg = READ_BIT(RCC->APB1ENR1, Periphs);
 800368a:	6dab      	ldr	r3, [r5, #88]	@ 0x58
 800368c:	f403 2380 	and.w	r3, r3, #262144	@ 0x40000
 8003690:	9306      	str	r3, [sp, #24]
  (void)tmpreg;
 8003692:	9b06      	ldr	r3, [sp, #24]
  SET_BIT(RCC->AHB2ENR, Periphs);
 8003694:	6ceb      	ldr	r3, [r5, #76]	@ 0x4c
 8003696:	f043 0304 	orr.w	r3, r3, #4
 800369a:	64eb      	str	r3, [r5, #76]	@ 0x4c
  tmpreg = READ_BIT(RCC->AHB2ENR, Periphs);
 800369c:	6ceb      	ldr	r3, [r5, #76]	@ 0x4c
 800369e:	f003 0304 	and.w	r3, r3, #4
 80036a2:	9307      	str	r3, [sp, #28]
  (void)tmpreg;
 80036a4:	9b07      	ldr	r3, [sp, #28]
  GPIO_InitStruct.Alternate = LL_GPIO_AF_7;
 80036a6:	2307      	movs	r3, #7
  GPIO_InitStruct.Pin = LL_GPIO_PIN_10;
 80036a8:	f44f 6280 	mov.w	r2, #1024	@ 0x400
  GPIO_InitStruct.Alternate = LL_GPIO_AF_7;
 80036ac:	9333      	str	r3, [sp, #204]	@ 0xcc
  LL_GPIO_Init(GPIOC, &GPIO_InitStruct);
 80036ae:	a92e      	add	r1, sp, #184	@ 0xb8
  GPIO_InitStruct.Pin = LL_GPIO_PIN_10;
 80036b0:	2302      	movs	r3, #2
 80036b2:	e9cd 232e 	strd	r2, r3, [sp, #184]	@ 0xb8
  LL_GPIO_Init(GPIOC, &GPIO_InitStruct);
 80036b6:	f000 fa3b 	bl	8003b30 <LL_GPIO_Init>
  GPIO_InitStruct.Pin = LL_GPIO_PIN_11;
 80036ba:	f44f 6300 	mov.w	r3, #2048	@ 0x800
  LL_GPIO_Init(GPIOC, &GPIO_InitStruct);
 80036be:	a92e      	add	r1, sp, #184	@ 0xb8
 80036c0:	4887      	ldr	r0, [pc, #540]	@ (80038e0 <main+0x1660>)
  GPIO_InitStruct.Mode = LL_GPIO_MODE_ALTERNATE;
 80036c2:	e9cd 372e 	strd	r3, r7, [sp, #184]	@ 0xb8
  GPIO_InitStruct.Pull = LL_GPIO_PULL_NO;
 80036c6:	e9cd 8932 	strd	r8, r9, [sp, #200]	@ 0xc8
  GPIO_InitStruct.OutputType = LL_GPIO_OUTPUT_PUSHPULL;
 80036ca:	e9cd 4430 	strd	r4, r4, [sp, #192]	@ 0xc0
  LL_GPIO_Init(GPIOC, &GPIO_InitStruct);
 80036ce:	f000 fa2f 	bl	8003b30 <LL_GPIO_Init>
  USART_InitStruct.BaudRate = 115200;
 80036d2:	f44f 33e1 	mov.w	r3, #115200	@ 0x1c200
 80036d6:	9335      	str	r3, [sp, #212]	@ 0xd4
  LL_USART_Init(USART3, &USART_InitStruct);
 80036d8:	4882      	ldr	r0, [pc, #520]	@ (80038e4 <main+0x1664>)
  USART_InitStruct.PrescalerValue = LL_USART_PRESCALER_DIV1;
 80036da:	9434      	str	r4, [sp, #208]	@ 0xd0
  USART_InitStruct.TransferDirection = LL_USART_DIRECTION_TX_RX;
 80036dc:	230c      	movs	r3, #12
  LL_USART_Init(USART3, &USART_InitStruct);
 80036de:	a934      	add	r1, sp, #208	@ 0xd0
  USART_InitStruct.StopBits = LL_USART_STOPBITS_1;
 80036e0:	e9cd 4436 	strd	r4, r4, [sp, #216]	@ 0xd8
  USART_InitStruct.OverSampling = LL_USART_OVERSAMPLING_16;
 80036e4:	e9cd 443a 	strd	r4, r4, [sp, #232]	@ 0xe8
  USART_InitStruct.Parity = LL_USART_PARITY_NONE;
 80036e8:	9438      	str	r4, [sp, #224]	@ 0xe0
  USART_InitStruct.TransferDirection = LL_USART_DIRECTION_TX_RX;
 80036ea:	9339      	str	r3, [sp, #228]	@ 0xe4
  LL_USART_Init(USART3, &USART_InitStruct);
 80036ec:	f000 feee 	bl	80044cc <LL_USART_Init>
 */
__STATIC_FORCEINLINE uint32_t __LDREXW(volatile uint32_t *addr)
{
    uint32_t result;

   __ASM volatile ("ldrex %0, %1" : "=r" (result) : "Q" (*addr) );
 80036f0:	f04f 2240 	mov.w	r2, #1073758208	@ 0x40004000
 80036f4:	f602 0308 	addw	r3, r2, #2056	@ 0x808
 80036f8:	e853 3f00 	ldrex	r3, [r3]
  *         @arg @ref LL_USART_FIFOTHRESHOLD_8_8
  * @retval None
  */
__STATIC_INLINE void LL_USART_SetTXFIFOThreshold(USART_TypeDef *USARTx, uint32_t Threshold)
{
  ATOMIC_MODIFY_REG(USARTx->CR3, USART_CR3_TXFTCFG, Threshold << USART_CR3_TXFTCFG_Pos);
 80036fc:	f023 4360 	bic.w	r3, r3, #3758096384	@ 0xe0000000
 */
__STATIC_FORCEINLINE uint32_t __STREXW(uint32_t value, volatile uint32_t *addr)
{
   uint32_t result;

   __ASM volatile ("strex %0, %2, %1" : "=&r" (result), "=Q" (*addr) : "r" (value) );
 8003700:	f602 0008 	addw	r0, r2, #2056	@ 0x808
 8003704:	e840 3100 	strex	r1, r3, [r0]
 8003708:	2900      	cmp	r1, #0
 800370a:	d1f3      	bne.n	80036f4 <main+0x1474>
   __ASM volatile ("ldrex %0, %1" : "=r" (result) : "Q" (*addr) );
 800370c:	f04f 2240 	mov.w	r2, #1073758208	@ 0x40004000
 8003710:	f602 0308 	addw	r3, r2, #2056	@ 0x808
 8003714:	e853 3f00 	ldrex	r3, [r3]
  *         @arg @ref LL_USART_FIFOTHRESHOLD_8_8
  * @retval None
  */
__STATIC_INLINE void LL_USART_SetRXFIFOThreshold(USART_TypeDef *USARTx, uint32_t Threshold)
{
  ATOMIC_MODIFY_REG(USARTx->CR3, USART_CR3_RXFTCFG, Threshold << USART_CR3_RXFTCFG_Pos);
 8003718:	f023 6360 	bic.w	r3, r3, #234881024	@ 0xe000000
   __ASM volatile ("strex %0, %2, %1" : "=&r" (result), "=Q" (*addr) : "r" (value) );
 800371c:	f602 0008 	addw	r0, r2, #2056	@ 0x808
 8003720:	e840 3100 	strex	r1, r3, [r0]
 8003724:	2900      	cmp	r1, #0
 8003726:	d1f3      	bne.n	8003710 <main+0x1490>
  CLEAR_BIT(USARTx->CR1, USART_CR1_FIFOEN);
 8003728:	4b6e      	ldr	r3, [pc, #440]	@ (80038e4 <main+0x1664>)
 800372a:	681a      	ldr	r2, [r3, #0]
 800372c:	f022 5200 	bic.w	r2, r2, #536870912	@ 0x20000000
 8003730:	601a      	str	r2, [r3, #0]
{
  /* In Asynchronous mode, the following bits must be kept cleared:
  - LINEN, CLKEN bits in the USART_CR2 register,
  - SCEN, IREN and HDSEL bits in the USART_CR3 register.
  */
  CLEAR_BIT(USARTx->CR2, (USART_CR2_LINEN | USART_CR2_CLKEN));
 8003732:	685a      	ldr	r2, [r3, #4]
 8003734:	f422 4290 	bic.w	r2, r2, #18432	@ 0x4800
 8003738:	605a      	str	r2, [r3, #4]
  CLEAR_BIT(USARTx->CR3, (USART_CR3_SCEN | USART_CR3_IREN | USART_CR3_HDSEL));
 800373a:	689a      	ldr	r2, [r3, #8]
 800373c:	f022 022a 	bic.w	r2, r2, #42	@ 0x2a
 8003740:	609a      	str	r2, [r3, #8]
  SET_BIT(USARTx->CR1, USART_CR1_UE);
 8003742:	681a      	ldr	r2, [r3, #0]
 8003744:	f042 0201 	orr.w	r2, r2, #1
 8003748:	601a      	str	r2, [r3, #0]
  * @param  USARTx USART Instance
  * @retval State of bit (1 or 0).
  */
__STATIC_INLINE uint32_t LL_USART_IsActiveFlag_TEACK(const USART_TypeDef *USARTx)
{
  return ((READ_BIT(USARTx->ISR, USART_ISR_TEACK) == (USART_ISR_TEACK)) ? 1UL : 0UL);
 800374a:	69da      	ldr	r2, [r3, #28]
 800374c:	0297      	lsls	r7, r2, #10
 800374e:	d5fc      	bpl.n	800374a <main+0x14ca>
  * @param  USARTx USART Instance
  * @retval State of bit (1 or 0).
  */
__STATIC_INLINE uint32_t LL_USART_IsActiveFlag_REACK(const USART_TypeDef *USARTx)
{
  return ((READ_BIT(USARTx->ISR, USART_ISR_REACK) == (USART_ISR_REACK)) ? 1UL : 0UL);
 8003750:	69da      	ldr	r2, [r3, #28]
 8003752:	0256      	lsls	r6, r2, #9
 8003754:	d5f9      	bpl.n	800374a <main+0x14ca>
  LL_LPUART_InitTypeDef LPUART_InitStruct = {0};
 8003756:	2400      	movs	r4, #0
 8003758:	e9cd 4434 	strd	r4, r4, [sp, #208]	@ 0xd0
 800375c:	e9cd 4436 	strd	r4, r4, [sp, #216]	@ 0xd8
 8003760:	e9cd 4438 	strd	r4, r4, [sp, #224]	@ 0xe0
  LL_GPIO_InitTypeDef GPIO_InitStruct = {0};
 8003764:	e9cd 4430 	strd	r4, r4, [sp, #192]	@ 0xc0
  MODIFY_REG(RCC->CCIPR, RCC_CCIPR_LPUART1SEL, LPUARTxSource);
 8003768:	4b5f      	ldr	r3, [pc, #380]	@ (80038e8 <main+0x1668>)
  LL_LPUART_InitTypeDef LPUART_InitStruct = {0};
 800376a:	943a      	str	r4, [sp, #232]	@ 0xe8
  LL_GPIO_InitTypeDef GPIO_InitStruct = {0};
 800376c:	9432      	str	r4, [sp, #200]	@ 0xc8
 800376e:	f8d3 2088 	ldr.w	r2, [r3, #136]	@ 0x88
 8003772:	f422 6240 	bic.w	r2, r2, #3072	@ 0xc00
 8003776:	f8c3 2088 	str.w	r2, [r3, #136]	@ 0x88
  SET_BIT(RCC->APB1ENR2, Periphs);
 800377a:	6dda      	ldr	r2, [r3, #92]	@ 0x5c
 800377c:	f042 0201 	orr.w	r2, r2, #1
 8003780:	65da      	str	r2, [r3, #92]	@ 0x5c
  tmpreg = READ_BIT(RCC->APB1ENR2, Periphs);
 8003782:	6dda      	ldr	r2, [r3, #92]	@ 0x5c
 8003784:	f002 0201 	and.w	r2, r2, #1
 8003788:	9204      	str	r2, [sp, #16]
  (void)tmpreg;
 800378a:	9a04      	ldr	r2, [sp, #16]
  SET_BIT(RCC->AHB2ENR, Periphs);
 800378c:	6cda      	ldr	r2, [r3, #76]	@ 0x4c
 800378e:	f042 0201 	orr.w	r2, r2, #1
 8003792:	64da      	str	r2, [r3, #76]	@ 0x4c
  tmpreg = READ_BIT(RCC->AHB2ENR, Periphs);
 8003794:	6cdb      	ldr	r3, [r3, #76]	@ 0x4c
 8003796:	f003 0301 	and.w	r3, r3, #1
 800379a:	9305      	str	r3, [sp, #20]
  GPIO_InitStruct.Pin = LL_GPIO_PIN_2;
 800379c:	2204      	movs	r2, #4
  (void)tmpreg;
 800379e:	9b05      	ldr	r3, [sp, #20]
 80037a0:	2302      	movs	r3, #2
 80037a2:	e9cd 232e 	strd	r2, r3, [sp, #184]	@ 0xb8
  LL_GPIO_Init(GPIOA, &GPIO_InitStruct);
 80037a6:	a92e      	add	r1, sp, #184	@ 0xb8
  GPIO_InitStruct.Alternate = LL_GPIO_AF_12;
 80037a8:	230c      	movs	r3, #12
  LL_GPIO_Init(GPIOA, &GPIO_InitStruct);
 80037aa:	f04f 4090 	mov.w	r0, #1207959552	@ 0x48000000
  GPIO_InitStruct.Alternate = LL_GPIO_AF_12;
 80037ae:	9333      	str	r3, [sp, #204]	@ 0xcc
  GPIO_InitStruct.Pull = LL_GPIO_PULL_NO;
 80037b0:	2600      	movs	r6, #0
  LL_GPIO_Init(GPIOA, &GPIO_InitStruct);
 80037b2:	f000 f9bd 	bl	8003b30 <LL_GPIO_Init>
  GPIO_InitStruct.Pull = LL_GPIO_PULL_NO;
 80037b6:	270c      	movs	r7, #12
  GPIO_InitStruct.Mode = LL_GPIO_MODE_ALTERNATE;
 80037b8:	2302      	movs	r3, #2
  LL_GPIO_Init(GPIOA, &GPIO_InitStruct);
 80037ba:	a92e      	add	r1, sp, #184	@ 0xb8
  GPIO_InitStruct.Mode = LL_GPIO_MODE_ALTERNATE;
 80037bc:	2508      	movs	r5, #8
  LL_GPIO_Init(GPIOA, &GPIO_InitStruct);
 80037be:	f04f 4090 	mov.w	r0, #1207959552	@ 0x48000000
  GPIO_InitStruct.Mode = LL_GPIO_MODE_ALTERNATE;
 80037c2:	e9cd 532e 	strd	r5, r3, [sp, #184]	@ 0xb8
  GPIO_InitStruct.OutputType = LL_GPIO_OUTPUT_PUSHPULL;
 80037c6:	e9cd 4430 	strd	r4, r4, [sp, #192]	@ 0xc0
  GPIO_InitStruct.Pull = LL_GPIO_PULL_NO;
 80037ca:	e9cd 6732 	strd	r6, r7, [sp, #200]	@ 0xc8
  LL_GPIO_Init(GPIOA, &GPIO_InitStruct);
 80037ce:	f000 f9af 	bl	8003b30 <LL_GPIO_Init>
  LPUART_InitStruct.BaudRate = 115200;
 80037d2:	f44f 33e1 	mov.w	r3, #115200	@ 0x1c200
  LL_LPUART_Init(LPUART1, &LPUART_InitStruct);
 80037d6:	4845      	ldr	r0, [pc, #276]	@ (80038ec <main+0x166c>)
  LPUART_InitStruct.PrescalerValue = LL_LPUART_PRESCALER_DIV1;
 80037d8:	9434      	str	r4, [sp, #208]	@ 0xd0
  LL_LPUART_Init(LPUART1, &LPUART_InitStruct);
 80037da:	a934      	add	r1, sp, #208	@ 0xd0
  LPUART_InitStruct.Parity = LL_LPUART_PARITY_NONE;
 80037dc:	e9cd 6738 	strd	r6, r7, [sp, #224]	@ 0xe0
  LPUART_InitStruct.StopBits = LL_LPUART_STOPBITS_1;
 80037e0:	e9cd 4436 	strd	r4, r4, [sp, #216]	@ 0xd8
  LPUART_InitStruct.HardwareFlowControl = LL_LPUART_HWCONTROL_NONE;
 80037e4:	943a      	str	r4, [sp, #232]	@ 0xe8
  LPUART_InitStruct.BaudRate = 115200;
 80037e6:	9335      	str	r3, [sp, #212]	@ 0xd4
  LL_LPUART_Init(LPUART1, &LPUART_InitStruct);
 80037e8:	f000 fa90 	bl	8003d0c <LL_LPUART_Init>
   __ASM volatile ("ldrex %0, %1" : "=r" (result) : "Q" (*addr) );
 80037ec:	4a3f      	ldr	r2, [pc, #252]	@ (80038ec <main+0x166c>)
 80037ee:	f102 0308 	add.w	r3, r2, #8
 80037f2:	e853 3f00 	ldrex	r3, [r3]
  *         @arg @ref LL_LPUART_FIFOTHRESHOLD_8_8
  * @retval None
  */
__STATIC_INLINE void LL_LPUART_SetTXFIFOThreshold(USART_TypeDef *LPUARTx, uint32_t Threshold)
{
  ATOMIC_MODIFY_REG(LPUARTx->CR3, USART_CR3_TXFTCFG, Threshold << USART_CR3_TXFTCFG_Pos);
 80037f6:	f023 4360 	bic.w	r3, r3, #3758096384	@ 0xe0000000
 80037fa:	f043 4380 	orr.w	r3, r3, #1073741824	@ 0x40000000
   __ASM volatile ("strex %0, %2, %1" : "=&r" (result), "=Q" (*addr) : "r" (value) );
 80037fe:	f102 0008 	add.w	r0, r2, #8
 8003802:	e840 3100 	strex	r1, r3, [r0]
 8003806:	2900      	cmp	r1, #0
 8003808:	d1f1      	bne.n	80037ee <main+0x156e>
   __ASM volatile ("ldrex %0, %1" : "=r" (result) : "Q" (*addr) );
 800380a:	4a38      	ldr	r2, [pc, #224]	@ (80038ec <main+0x166c>)
 800380c:	f102 0308 	add.w	r3, r2, #8
 8003810:	e853 3f00 	ldrex	r3, [r3]
  *         @arg @ref LL_LPUART_FIFOTHRESHOLD_8_8
  * @retval None
  */
__STATIC_INLINE void LL_LPUART_SetRXFIFOThreshold(USART_TypeDef *LPUARTx, uint32_t Threshold)
{
  ATOMIC_MODIFY_REG(LPUARTx->CR3, USART_CR3_RXFTCFG, Threshold << USART_CR3_RXFTCFG_Pos);
 8003814:	f023 6360 	bic.w	r3, r3, #234881024	@ 0xe000000
 8003818:	f043 6380 	orr.w	r3, r3, #67108864	@ 0x4000000
   __ASM volatile ("strex %0, %2, %1" : "=&r" (result), "=Q" (*addr) : "r" (value) );
 800381c:	f102 0008 	add.w	r0, r2, #8
 8003820:	e840 3100 	strex	r1, r3, [r0]
 8003824:	2900      	cmp	r1, #0
 8003826:	d1f1      	bne.n	800380c <main+0x158c>
  SET_BIT(LPUARTx->CR1, USART_CR1_FIFOEN);
 8003828:	6813      	ldr	r3, [r2, #0]
 800382a:	f043 5300 	orr.w	r3, r3, #536870912	@ 0x20000000
 800382e:	6013      	str	r3, [r2, #0]
  SET_BIT(LPUARTx->CR1, USART_CR1_UE);
 8003830:	6813      	ldr	r3, [r2, #0]
 8003832:	f043 0301 	orr.w	r3, r3, #1
 8003836:	6013      	str	r3, [r2, #0]
  * @param  LPUARTx LPUART Instance
  * @retval State of bit (1 or 0).
  */
__STATIC_INLINE uint32_t LL_LPUART_IsActiveFlag_TEACK(const USART_TypeDef *LPUARTx)
{
  return ((READ_BIT(LPUARTx->ISR, USART_ISR_TEACK) == (USART_ISR_TEACK)) ? 1UL : 0UL);
 8003838:	4a2c      	ldr	r2, [pc, #176]	@ (80038ec <main+0x166c>)
 800383a:	69d3      	ldr	r3, [r2, #28]
 800383c:	029c      	lsls	r4, r3, #10
 800383e:	d5fc      	bpl.n	800383a <main+0x15ba>
  * @param  LPUARTx LPUART Instance
  * @retval State of bit (1 or 0).
  */
__STATIC_INLINE uint32_t LL_LPUART_IsActiveFlag_REACK(const USART_TypeDef *LPUARTx)
{
  return ((READ_BIT(LPUARTx->ISR, USART_ISR_REACK) == (USART_ISR_REACK)) ? 1UL : 0UL);
 8003840:	69d3      	ldr	r3, [r2, #28]
 8003842:	0258      	lsls	r0, r3, #9
 8003844:	d5f9      	bpl.n	800383a <main+0x15ba>
  LL_USART_InitTypeDef USART_InitStruct = {0};
 8003846:	2520      	movs	r5, #32
  LL_GPIO_InitTypeDef GPIO_InitStruct = {0};
 8003848:	2400      	movs	r4, #0
  LL_USART_InitTypeDef USART_InitStruct = {0};
 800384a:	462a      	mov	r2, r5
 800384c:	2100      	movs	r1, #0
 800384e:	a834      	add	r0, sp, #208	@ 0xd0
 8003850:	f003 fd5a 	bl	8007308 <memset>
  LL_GPIO_InitTypeDef GPIO_InitStruct = {0};
 8003854:	e9cd 4430 	strd	r4, r4, [sp, #192]	@ 0xc0
  MODIFY_REG(RCC->CCIPR, (USARTxSource >> 16U), (USARTxSource & 0x0000FFFFU));
 8003858:	4b23      	ldr	r3, [pc, #140]	@ (80038e8 <main+0x1668>)
 800385a:	9432      	str	r4, [sp, #200]	@ 0xc8
 800385c:	f8d3 2088 	ldr.w	r2, [r3, #136]	@ 0x88
 8003860:	f022 0203 	bic.w	r2, r2, #3
 8003864:	f8c3 2088 	str.w	r2, [r3, #136]	@ 0x88
  SET_BIT(RCC->APB2ENR, Periphs);
 8003868:	6e19      	ldr	r1, [r3, #96]	@ 0x60
 800386a:	f441 4180 	orr.w	r1, r1, #16384	@ 0x4000
 800386e:	6619      	str	r1, [r3, #96]	@ 0x60
  tmpreg = READ_BIT(RCC->APB2ENR, Periphs);
 8003870:	6e19      	ldr	r1, [r3, #96]	@ 0x60
 8003872:	f401 4180 	and.w	r1, r1, #16384	@ 0x4000
 8003876:	9102      	str	r1, [sp, #8]
  (void)tmpreg;
 8003878:	9a02      	ldr	r2, [sp, #8]
  SET_BIT(RCC->AHB2ENR, Periphs);
 800387a:	6cd9      	ldr	r1, [r3, #76]	@ 0x4c
 800387c:	f041 0104 	orr.w	r1, r1, #4
 8003880:	64d9      	str	r1, [r3, #76]	@ 0x4c
  tmpreg = READ_BIT(RCC->AHB2ENR, Periphs);
 8003882:	6cdb      	ldr	r3, [r3, #76]	@ 0x4c
 8003884:	f003 0304 	and.w	r3, r3, #4
  GPIO_InitStruct.Alternate = LL_GPIO_AF_7;
 8003888:	2007      	movs	r0, #7
 800388a:	9303      	str	r3, [sp, #12]
  GPIO_InitStruct.Pin = LL_GPIO_PIN_4;
 800388c:	2210      	movs	r2, #16
  (void)tmpreg;
 800388e:	9b03      	ldr	r3, [sp, #12]
  GPIO_InitStruct.Alternate = LL_GPIO_AF_7;
 8003890:	9033      	str	r0, [sp, #204]	@ 0xcc
  GPIO_InitStruct.Pin = LL_GPIO_PIN_4;
 8003892:	2302      	movs	r3, #2
  LL_GPIO_Init(GPIOC, &GPIO_InitStruct);
 8003894:	a92e      	add	r1, sp, #184	@ 0xb8
 8003896:	4812      	ldr	r0, [pc, #72]	@ (80038e0 <main+0x1660>)
  GPIO_InitStruct.Pin = LL_GPIO_PIN_4;
 8003898:	e9cd 232e 	strd	r2, r3, [sp, #184]	@ 0xb8
  LL_GPIO_Init(GPIOC, &GPIO_InitStruct);
 800389c:	f000 f948 	bl	8003b30 <LL_GPIO_Init>
  GPIO_InitStruct.Mode = LL_GPIO_MODE_ALTERNATE;
 80038a0:	2302      	movs	r3, #2
  GPIO_InitStruct.Pull = LL_GPIO_PULL_NO;
 80038a2:	2200      	movs	r2, #0
  GPIO_InitStruct.Mode = LL_GPIO_MODE_ALTERNATE;
 80038a4:	e9cd 532e 	strd	r5, r3, [sp, #184]	@ 0xb8
  LL_GPIO_Init(GPIOC, &GPIO_InitStruct);
 80038a8:	a92e      	add	r1, sp, #184	@ 0xb8
  GPIO_InitStruct.Pull = LL_GPIO_PULL_NO;
 80038aa:	2307      	movs	r3, #7
  LL_GPIO_Init(GPIOC, &GPIO_InitStruct);
 80038ac:	480c      	ldr	r0, [pc, #48]	@ (80038e0 <main+0x1660>)
  GPIO_InitStruct.Pull = LL_GPIO_PULL_NO;
 80038ae:	e9cd 2332 	strd	r2, r3, [sp, #200]	@ 0xc8
  GPIO_InitStruct.OutputType = LL_GPIO_OUTPUT_PUSHPULL;
 80038b2:	e9cd 4430 	strd	r4, r4, [sp, #192]	@ 0xc0
  LL_GPIO_Init(GPIOC, &GPIO_InitStruct);
 80038b6:	f000 f93b 	bl	8003b30 <LL_GPIO_Init>
  USART_InitStruct.BaudRate = 115200;
 80038ba:	f44f 32e1 	mov.w	r2, #115200	@ 0x1c200
  USART_InitStruct.TransferDirection = LL_USART_DIRECTION_TX_RX;
 80038be:	230c      	movs	r3, #12
  LL_USART_Init(USART1, &USART_InitStruct);
 80038c0:	480b      	ldr	r0, [pc, #44]	@ (80038f0 <main+0x1670>)
 80038c2:	a934      	add	r1, sp, #208	@ 0xd0
  USART_InitStruct.BaudRate = 115200;
 80038c4:	e9cd 4234 	strd	r4, r2, [sp, #208]	@ 0xd0
  USART_InitStruct.StopBits = LL_USART_STOPBITS_1;
 80038c8:	e9cd 4436 	strd	r4, r4, [sp, #216]	@ 0xd8
  USART_InitStruct.TransferDirection = LL_USART_DIRECTION_TX_RX;
 80038cc:	e9cd 4338 	strd	r4, r3, [sp, #224]	@ 0xe0
  USART_InitStruct.OverSampling = LL_USART_OVERSAMPLING_16;
 80038d0:	e9cd 443a 	strd	r4, r4, [sp, #232]	@ 0xe8
  LL_USART_Init(USART1, &USART_InitStruct);
 80038d4:	f000 fdfa 	bl	80044cc <LL_USART_Init>
   __ASM volatile ("ldrex %0, %1" : "=r" (result) : "Q" (*addr) );
 80038d8:	4a06      	ldr	r2, [pc, #24]	@ (80038f4 <main+0x1674>)
 80038da:	e00d      	b.n	80038f8 <main+0x1678>
 80038dc:	48000400 	.word	0x48000400
 80038e0:	48000800 	.word	0x48000800
 80038e4:	40004800 	.word	0x40004800
 80038e8:	40021000 	.word	0x40021000
 80038ec:	40008000 	.word	0x40008000
 80038f0:	40013800 	.word	0x40013800
 80038f4:	40013000 	.word	0x40013000
 80038f8:	f602 0308 	addw	r3, r2, #2056	@ 0x808
 80038fc:	e853 3f00 	ldrex	r3, [r3]
  ATOMIC_MODIFY_REG(USARTx->CR3, USART_CR3_TXFTCFG, Threshold << USART_CR3_TXFTCFG_Pos);
 8003900:	f023 4360 	bic.w	r3, r3, #3758096384	@ 0xe0000000
   __ASM volatile ("strex %0, %2, %1" : "=&r" (result), "=Q" (*addr) : "r" (value) );
 8003904:	f602 0008 	addw	r0, r2, #2056	@ 0x808
 8003908:	e840 3100 	strex	r1, r3, [r0]
 800390c:	2900      	cmp	r1, #0
 800390e:	d1f3      	bne.n	80038f8 <main+0x1678>
   __ASM volatile ("ldrex %0, %1" : "=r" (result) : "Q" (*addr) );
 8003910:	4a1d      	ldr	r2, [pc, #116]	@ (8003988 <main+0x1708>)
 8003912:	f602 0308 	addw	r3, r2, #2056	@ 0x808
 8003916:	e853 3f00 	ldrex	r3, [r3]
  ATOMIC_MODIFY_REG(USARTx->CR3, USART_CR3_RXFTCFG, Threshold << USART_CR3_RXFTCFG_Pos);
 800391a:	f023 6360 	bic.w	r3, r3, #234881024	@ 0xe000000
   __ASM volatile ("strex %0, %2, %1" : "=&r" (result), "=Q" (*addr) : "r" (value) );
 800391e:	f602 0008 	addw	r0, r2, #2056	@ 0x808
 8003922:	e840 3100 	strex	r1, r3, [r0]
 8003926:	2900      	cmp	r1, #0
 8003928:	d1f3      	bne.n	8003912 <main+0x1692>
  CLEAR_BIT(USARTx->CR1, USART_CR1_FIFOEN);
 800392a:	4b18      	ldr	r3, [pc, #96]	@ (800398c <main+0x170c>)
 800392c:	681a      	ldr	r2, [r3, #0]
 800392e:	f022 5200 	bic.w	r2, r2, #536870912	@ 0x20000000
 8003932:	601a      	str	r2, [r3, #0]
  CLEAR_BIT(USARTx->CR2, (USART_CR2_LINEN | USART_CR2_CLKEN));
 8003934:	685a      	ldr	r2, [r3, #4]
 8003936:	f422 4290 	bic.w	r2, r2, #18432	@ 0x4800
 800393a:	605a      	str	r2, [r3, #4]
  CLEAR_BIT(USARTx->CR3, (USART_CR3_SCEN | USART_CR3_IREN | USART_CR3_HDSEL));
 800393c:	689a      	ldr	r2, [r3, #8]
 800393e:	f022 022a 	bic.w	r2, r2, #42	@ 0x2a
 8003942:	609a      	str	r2, [r3, #8]
  SET_BIT(USARTx->CR1, USART_CR1_UE);
 8003944:	681a      	ldr	r2, [r3, #0]
 8003946:	f042 0201 	orr.w	r2, r2, #1
 800394a:	601a      	str	r2, [r3, #0]
  return ((READ_BIT(USARTx->ISR, USART_ISR_TEACK) == (USART_ISR_TEACK)) ? 1UL : 0UL);
 800394c:	69da      	ldr	r2, [r3, #28]
 800394e:	0291      	lsls	r1, r2, #10
 8003950:	d5fc      	bpl.n	800394c <main+0x16cc>
  return ((READ_BIT(USARTx->ISR, USART_ISR_REACK) == (USART_ISR_REACK)) ? 1UL : 0UL);
 8003952:	69da      	ldr	r2, [r3, #28]
 8003954:	0252      	lsls	r2, r2, #9
 8003956:	d5f9      	bpl.n	800394c <main+0x16cc>
  WRITE_REG(IWDGx->KR, LL_IWDG_KEY_ENABLE);
 8003958:	4a0d      	ldr	r2, [pc, #52]	@ (8003990 <main+0x1710>)
 800395a:	f64c 44cc 	movw	r4, #52428	@ 0xcccc
  * @param  IWDGx IWDG Instance
  * @retval None
  */
__STATIC_INLINE void LL_IWDG_EnableWriteAccess(IWDG_TypeDef *IWDGx)
{
  WRITE_REG(IWDGx->KR, LL_IWDG_KEY_WR_ACCESS_ENABLE);
 800395e:	f245 5055 	movw	r0, #21845	@ 0x5555
  *         @arg @ref LL_IWDG_PRESCALER_256
  * @retval None
  */
__STATIC_INLINE void LL_IWDG_SetPrescaler(IWDG_TypeDef *IWDGx, uint32_t Prescaler)
{
  WRITE_REG(IWDGx->PR, IWDG_PR_PR & Prescaler);
 8003962:	2102      	movs	r1, #2
  * @param  Counter Value between Min_Data=0 and Max_Data=0x0FFF
  * @retval None
  */
__STATIC_INLINE void LL_IWDG_SetReloadCounter(IWDG_TypeDef *IWDGx, uint32_t Counter)
{
  WRITE_REG(IWDGx->RLR, IWDG_RLR_RL & Counter);
 8003964:	f640 73ff 	movw	r3, #4095	@ 0xfff
  WRITE_REG(IWDGx->KR, LL_IWDG_KEY_ENABLE);
 8003968:	6014      	str	r4, [r2, #0]
  WRITE_REG(IWDGx->KR, LL_IWDG_KEY_WR_ACCESS_ENABLE);
 800396a:	6010      	str	r0, [r2, #0]
  WRITE_REG(IWDGx->PR, IWDG_PR_PR & Prescaler);
 800396c:	6051      	str	r1, [r2, #4]
  WRITE_REG(IWDGx->RLR, IWDG_RLR_RL & Counter);
 800396e:	6093      	str	r3, [r2, #8]
  * @param  IWDGx IWDG Instance
  * @retval State of bits (1 or 0).
  */
__STATIC_INLINE uint32_t LL_IWDG_IsReady(IWDG_TypeDef *IWDGx)
{
  return ((READ_BIT(IWDGx->SR, IWDG_SR_PVU | IWDG_SR_RVU | IWDG_SR_WVU) == 0U) ? 1UL : 0UL);
 8003970:	68d3      	ldr	r3, [r2, #12]
 8003972:	075b      	lsls	r3, r3, #29
 8003974:	d1fc      	bne.n	8003970 <main+0x16f0>
  WRITE_REG(IWDGx->KR, LL_IWDG_KEY_RELOAD);
 8003976:	f64a 23aa 	movw	r3, #43690	@ 0xaaaa
 800397a:	6013      	str	r3, [r2, #0]
  stand_im_init_2();
 800397c:	f7fd fbd0 	bl	8001120 <stand_im_init_2>
    stand_im_loop();
 8003980:	f7fd fd2e 	bl	80013e0 <stand_im_loop>
  while (1)
 8003984:	e7fc      	b.n	8003980 <main+0x1700>
 8003986:	bf00      	nop
 8003988:	40013000 	.word	0x40013000
 800398c:	40013800 	.word	0x40013800
 8003990:	40003000 	.word	0x40003000

08003994 <NMI_Handler>:
{
  /* USER CODE BEGIN NonMaskableInt_IRQn 0 */

  /* USER CODE END NonMaskableInt_IRQn 0 */
  /* USER CODE BEGIN NonMaskableInt_IRQn 1 */
  while (1)
 8003994:	e7fe      	b.n	8003994 <NMI_Handler>
 8003996:	bf00      	nop

08003998 <HardFault_Handler>:
void HardFault_Handler(void)
{
  /* USER CODE BEGIN HardFault_IRQn 0 */

  /* USER CODE END HardFault_IRQn 0 */
  while (1)
 8003998:	e7fe      	b.n	8003998 <HardFault_Handler>
 800399a:	bf00      	nop

0800399c <MemManage_Handler>:
void MemManage_Handler(void)
{
  /* USER CODE BEGIN MemoryManagement_IRQn 0 */

  /* USER CODE END MemoryManagement_IRQn 0 */
  while (1)
 800399c:	e7fe      	b.n	800399c <MemManage_Handler>
 800399e:	bf00      	nop

080039a0 <BusFault_Handler>:
void BusFault_Handler(void)
{
  /* USER CODE BEGIN BusFault_IRQn 0 */

  /* USER CODE END BusFault_IRQn 0 */
  while (1)
 80039a0:	e7fe      	b.n	80039a0 <BusFault_Handler>
 80039a2:	bf00      	nop

080039a4 <UsageFault_Handler>:
void UsageFault_Handler(void)
{
  /* USER CODE BEGIN UsageFault_IRQn 0 */

  /* USER CODE END UsageFault_IRQn 0 */
  while (1)
 80039a4:	e7fe      	b.n	80039a4 <UsageFault_Handler>
 80039a6:	bf00      	nop

080039a8 <SVC_Handler>:

  /* USER CODE END SVCall_IRQn 0 */
  /* USER CODE BEGIN SVCall_IRQn 1 */

  /* USER CODE END SVCall_IRQn 1 */
}
 80039a8:	4770      	bx	lr
 80039aa:	bf00      	nop

080039ac <DebugMon_Handler>:

/**
  * @brief This function handles Debug monitor.
  */
void DebugMon_Handler(void)
 80039ac:	4770      	bx	lr
 80039ae:	bf00      	nop

080039b0 <PendSV_Handler>:
}

/**
  * @brief This function handles Pendable request for system service.
  */
void PendSV_Handler(void)
 80039b0:	4770      	bx	lr
 80039b2:	bf00      	nop

080039b4 <SysTick_Handler>:
}

/**
  * @brief This function handles System tick timer.
  */
void SysTick_Handler(void)
 80039b4:	4770      	bx	lr
 80039b6:	bf00      	nop

080039b8 <SystemInit>:

void SystemInit(void)
{
  /* FPU settings ------------------------------------------------------------*/
  #if (__FPU_PRESENT == 1) && (__FPU_USED == 1)
    SCB->CPACR |= ((3UL << (10*2))|(3UL << (11*2)));  /* set CP10 and CP11 Full Access */
 80039b8:	4b05      	ldr	r3, [pc, #20]	@ (80039d0 <SystemInit+0x18>)
 80039ba:	f8d3 2088 	ldr.w	r2, [r3, #136]	@ 0x88
  #endif

  /* Configure the Vector Table location add offset address ------------------*/
#if defined(USER_VECT_TAB_ADDRESS)
  SCB->VTOR = VECT_TAB_BASE_ADDRESS | VECT_TAB_OFFSET; /* Vector Table Relocation in Internal SRAM */
 80039be:	f04f 6100 	mov.w	r1, #134217728	@ 0x8000000
    SCB->CPACR |= ((3UL << (10*2))|(3UL << (11*2)));  /* set CP10 and CP11 Full Access */
 80039c2:	f442 0270 	orr.w	r2, r2, #15728640	@ 0xf00000
 80039c6:	f8c3 2088 	str.w	r2, [r3, #136]	@ 0x88
  SCB->VTOR = VECT_TAB_BASE_ADDRESS | VECT_TAB_OFFSET; /* Vector Table Relocation in Internal SRAM */
 80039ca:	6099      	str	r1, [r3, #8]
#endif /* USER_VECT_TAB_ADDRESS */
}
 80039cc:	4770      	bx	lr
 80039ce:	bf00      	nop
 80039d0:	e000ed00 	.word	0xe000ed00

080039d4 <Reset_Handler>:

    .section	.text.Reset_Handler
	.weak	Reset_Handler
	.type	Reset_Handler, %function
Reset_Handler:
  ldr   r0, =_estack
 80039d4:	480d      	ldr	r0, [pc, #52]	@ (8003a0c <LoopForever+0x2>)
  mov   sp, r0          /* set stack pointer */
 80039d6:	4685      	mov	sp, r0

/* Copy the data segment initializers from flash to SRAM */
  ldr r0, =_sdata
 80039d8:	480d      	ldr	r0, [pc, #52]	@ (8003a10 <LoopForever+0x6>)
  ldr r1, =_edata
 80039da:	490e      	ldr	r1, [pc, #56]	@ (8003a14 <LoopForever+0xa>)
  ldr r2, =_sidata
 80039dc:	4a0e      	ldr	r2, [pc, #56]	@ (8003a18 <LoopForever+0xe>)
  movs r3, #0
 80039de:	2300      	movs	r3, #0
  b	LoopCopyDataInit
 80039e0:	e002      	b.n	80039e8 <LoopCopyDataInit>

080039e2 <CopyDataInit>:

CopyDataInit:
  ldr r4, [r2, r3]
 80039e2:	58d4      	ldr	r4, [r2, r3]
  str r4, [r0, r3]
 80039e4:	50c4      	str	r4, [r0, r3]
  adds r3, r3, #4
 80039e6:	3304      	adds	r3, #4

080039e8 <LoopCopyDataInit>:

LoopCopyDataInit:
  adds r4, r0, r3
 80039e8:	18c4      	adds	r4, r0, r3
  cmp r4, r1
 80039ea:	428c      	cmp	r4, r1
  bcc CopyDataInit
 80039ec:	d3f9      	bcc.n	80039e2 <CopyDataInit>
  
/* Zero fill the bss segment. */
  ldr r2, =_sbss
 80039ee:	4a0b      	ldr	r2, [pc, #44]	@ (8003a1c <LoopForever+0x12>)
  ldr r4, =_ebss
 80039f0:	4c0b      	ldr	r4, [pc, #44]	@ (8003a20 <LoopForever+0x16>)
  movs r3, #0
 80039f2:	2300      	movs	r3, #0
  b LoopFillZerobss
 80039f4:	e001      	b.n	80039fa <LoopFillZerobss>

080039f6 <FillZerobss>:

FillZerobss:
  str  r3, [r2]
 80039f6:	6013      	str	r3, [r2, #0]
  adds r2, r2, #4
 80039f8:	3204      	adds	r2, #4

080039fa <LoopFillZerobss>:

LoopFillZerobss:
  cmp r2, r4
 80039fa:	42a2      	cmp	r2, r4
  bcc FillZerobss
 80039fc:	d3fb      	bcc.n	80039f6 <FillZerobss>

/* Call the clock system intitialization function.*/
    bl  SystemInit
 80039fe:	f7ff ffdb 	bl	80039b8 <SystemInit>
/* Call static constructors */
    bl __libc_init_array
 8003a02:	f003 fc89 	bl	8007318 <__libc_init_array>
/* Call the application's entry point.*/
	bl	main
 8003a06:	f7fe fc3b 	bl	8002280 <main>

08003a0a <LoopForever>:

LoopForever:
    b LoopForever
 8003a0a:	e7fe      	b.n	8003a0a <LoopForever>
  ldr   r0, =_estack
 8003a0c:	20020000 	.word	0x20020000
  ldr r0, =_sdata
 8003a10:	20000000 	.word	0x20000000
  ldr r1, =_edata
 8003a14:	2000002c 	.word	0x2000002c
  ldr r2, =_sidata
 8003a18:	08008980 	.word	0x08008980
  ldr r2, =_sbss
 8003a1c:	20000030 	.word	0x20000030
  ldr r4, =_ebss
 8003a20:	200086f0 	.word	0x200086f0

08003a24 <ADC1_2_IRQHandler>:
 * @retval : None
*/
    .section	.text.Default_Handler,"ax",%progbits
Default_Handler:
Infinite_Loop:
	b	Infinite_Loop
 8003a24:	e7fe      	b.n	8003a24 <ADC1_2_IRQHandler>
	...

08003a28 <LL_ADC_CommonInit>:
  /* Note: Hardware constraint (refer to description of functions             */
  /*       "LL_ADC_SetCommonXXX()" and "LL_ADC_SetMultiXXX()"):               */
  /*       On this STM32 series, setting of these features is conditioned to  */
  /*       ADC state:                                                         */
  /*       All ADC instances of the ADC common group must be disabled.        */
  if (__LL_ADC_IS_ENABLED_ALL_COMMON_INSTANCE(ADCxy_COMMON) == 0UL)
 8003a28:	4b1b      	ldr	r3, [pc, #108]	@ (8003a98 <LL_ADC_CommonInit+0x70>)
 8003a2a:	4298      	cmp	r0, r3
 8003a2c:	d021      	beq.n	8003a72 <LL_ADC_CommonInit+0x4a>
  return ((READ_BIT(ADCx->CR, ADC_CR_ADEN) == (ADC_CR_ADEN)) ? 1UL : 0UL);
 8003a2e:	4a1b      	ldr	r2, [pc, #108]	@ (8003a9c <LL_ADC_CommonInit+0x74>)
 8003a30:	4b1b      	ldr	r3, [pc, #108]	@ (8003aa0 <LL_ADC_CommonInit+0x78>)
 8003a32:	6892      	ldr	r2, [r2, #8]
 8003a34:	689b      	ldr	r3, [r3, #8]
 8003a36:	f013 0f01 	tst.w	r3, #1
 8003a3a:	4b1a      	ldr	r3, [pc, #104]	@ (8003aa4 <LL_ADC_CommonInit+0x7c>)
 8003a3c:	d002      	beq.n	8003a44 <LL_ADC_CommonInit+0x1c>
 8003a3e:	689b      	ldr	r3, [r3, #8]
  }
  else
  {
    /* Initialization error: One or several ADC instances belonging to        */
    /* the same ADC common instance are not disabled.                         */
    status = ERROR;
 8003a40:	2001      	movs	r0, #1
 8003a42:	4770      	bx	lr
 8003a44:	689b      	ldr	r3, [r3, #8]
 8003a46:	07db      	lsls	r3, r3, #31
 8003a48:	d41d      	bmi.n	8003a86 <LL_ADC_CommonInit+0x5e>
  if (__LL_ADC_IS_ENABLED_ALL_COMMON_INSTANCE(ADCxy_COMMON) == 0UL)
 8003a4a:	07d3      	lsls	r3, r2, #31
 8003a4c:	d41b      	bmi.n	8003a86 <LL_ADC_CommonInit+0x5e>
      MODIFY_REG(ADCxy_COMMON->CCR,
 8003a4e:	e9d1 2300 	ldrd	r2, r3, [r1]
    if (pADC_CommonInitStruct->Multimode != LL_ADC_MULTI_INDEPENDENT)
 8003a52:	b1d3      	cbz	r3, 8003a8a <LL_ADC_CommonInit+0x62>
{
 8003a54:	b410      	push	{r4}
      MODIFY_REG(ADCxy_COMMON->CCR,
 8003a56:	431a      	orrs	r2, r3
 8003a58:	6884      	ldr	r4, [r0, #8]
 8003a5a:	4b13      	ldr	r3, [pc, #76]	@ (8003aa8 <LL_ADC_CommonInit+0x80>)
 8003a5c:	4023      	ands	r3, r4
 8003a5e:	e9d1 4102 	ldrd	r4, r1, [r1, #8]
 8003a62:	4313      	orrs	r3, r2
 8003a64:	4323      	orrs	r3, r4
 8003a66:	430b      	orrs	r3, r1
 8003a68:	6083      	str	r3, [r0, #8]
  }

  return status;
}
 8003a6a:	f85d 4b04 	ldr.w	r4, [sp], #4
  ErrorStatus status = SUCCESS;
 8003a6e:	2000      	movs	r0, #0
}
 8003a70:	4770      	bx	lr
 8003a72:	f04f 43a0 	mov.w	r3, #1342177280	@ 0x50000000
 8003a76:	689b      	ldr	r3, [r3, #8]
 8003a78:	f013 0f01 	tst.w	r3, #1
 8003a7c:	4b0b      	ldr	r3, [pc, #44]	@ (8003aac <LL_ADC_CommonInit+0x84>)
 8003a7e:	d1de      	bne.n	8003a3e <LL_ADC_CommonInit+0x16>
 8003a80:	689b      	ldr	r3, [r3, #8]
 8003a82:	07da      	lsls	r2, r3, #31
 8003a84:	d5e3      	bpl.n	8003a4e <LL_ADC_CommonInit+0x26>
    status = ERROR;
 8003a86:	2001      	movs	r0, #1
 8003a88:	4770      	bx	lr
      MODIFY_REG(ADCxy_COMMON->CCR,
 8003a8a:	6881      	ldr	r1, [r0, #8]
 8003a8c:	4b06      	ldr	r3, [pc, #24]	@ (8003aa8 <LL_ADC_CommonInit+0x80>)
 8003a8e:	400b      	ands	r3, r1
 8003a90:	4313      	orrs	r3, r2
 8003a92:	6083      	str	r3, [r0, #8]
  ErrorStatus status = SUCCESS;
 8003a94:	2000      	movs	r0, #0
}
 8003a96:	4770      	bx	lr
 8003a98:	50000300 	.word	0x50000300
 8003a9c:	50000400 	.word	0x50000400
 8003aa0:	50000500 	.word	0x50000500
 8003aa4:	50000600 	.word	0x50000600
 8003aa8:	ffc030e0 	.word	0xffc030e0
 8003aac:	50000100 	.word	0x50000100

08003ab0 <LL_ADC_Init>:
  * @retval An ErrorStatus enumeration value:
  *          - SUCCESS: ADC registers are initialized
  *          - ERROR: ADC registers are not initialized
  */
ErrorStatus LL_ADC_Init(ADC_TypeDef *ADCx, const LL_ADC_InitTypeDef *pADC_InitStruct)
{
 8003ab0:	4602      	mov	r2, r0
 8003ab2:	6880      	ldr	r0, [r0, #8]
 8003ab4:	f010 0001 	ands.w	r0, r0, #1
 8003ab8:	d110      	bne.n	8003adc <LL_ADC_Init+0x2c>
 8003aba:	b410      	push	{r4}
    /* Configuration of ADC hierarchical scope:                               */
    /*  - ADC instance                                                        */
    /*    - Set ADC data resolution                                           */
    /*    - Set ADC conversion data alignment                                 */
    /*    - Set ADC low power mode                                            */
    MODIFY_REG(ADCx->CFGR,
 8003abc:	68d4      	ldr	r4, [r2, #12]
 8003abe:	680b      	ldr	r3, [r1, #0]
 8003ac0:	f424 4c40 	bic.w	ip, r4, #49152	@ 0xc000
 8003ac4:	684c      	ldr	r4, [r1, #4]
 8003ac6:	6889      	ldr	r1, [r1, #8]
 8003ac8:	4323      	orrs	r3, r4
 8003aca:	f02c 0c18 	bic.w	ip, ip, #24
 8003ace:	430b      	orrs	r3, r1
 8003ad0:	ea43 030c 	orr.w	r3, r3, ip
    /* Initialization error: ADC instance is not disabled. */
    status = ERROR;
  }

  return status;
}
 8003ad4:	f85d 4b04 	ldr.w	r4, [sp], #4
    MODIFY_REG(ADCx->CFGR,
 8003ad8:	60d3      	str	r3, [r2, #12]
}
 8003ada:	4770      	bx	lr
    status = ERROR;
 8003adc:	2001      	movs	r0, #1
}
 8003ade:	4770      	bx	lr

08003ae0 <LL_ADC_REG_Init>:
 8003ae0:	6882      	ldr	r2, [r0, #8]
 8003ae2:	07d3      	lsls	r3, r2, #31
 8003ae4:	d417      	bmi.n	8003b16 <LL_ADC_REG_Init+0x36>
  * @retval An ErrorStatus enumeration value:
  *          - SUCCESS: ADC registers are initialized
  *          - ERROR: ADC registers are not initialized
  */
ErrorStatus LL_ADC_REG_Init(ADC_TypeDef *ADCx, const LL_ADC_REG_InitTypeDef *pADC_RegInitStruct)
{
 8003ae6:	b470      	push	{r4, r5, r6}
    /*    - Set ADC group regular overrun behavior                            */
    /* Note: On this STM32 series, ADC trigger edge is set to value 0x0 by    */
    /*       setting of trigger source to SW start.                           */
    if (pADC_RegInitStruct->SequencerLength != LL_ADC_REG_SEQ_SCAN_DISABLE)
    {
      MODIFY_REG(ADCx->CFGR,
 8003ae8:	e9d1 6503 	ldrd	r6, r5, [r1, #12]
 8003aec:	e9d1 2400 	ldrd	r2, r4, [r1]
 8003af0:	4332      	orrs	r2, r6
 8003af2:	4603      	mov	r3, r0
 8003af4:	432a      	orrs	r2, r5
 8003af6:	6948      	ldr	r0, [r1, #20]
    if (pADC_RegInitStruct->SequencerLength != LL_ADC_REG_SEQ_SCAN_DISABLE)
 8003af8:	b97c      	cbnz	r4, 8003b1a <LL_ADC_REG_Init+0x3a>
                 | pADC_RegInitStruct->Overrun
                );
    }
    else
    {
      MODIFY_REG(ADCx->CFGR,
 8003afa:	4302      	orrs	r2, r0
 8003afc:	490b      	ldr	r1, [pc, #44]	@ (8003b2c <LL_ADC_REG_Init+0x4c>)
 8003afe:	68d8      	ldr	r0, [r3, #12]
 8003b00:	4001      	ands	r1, r0
 8003b02:	430a      	orrs	r2, r1
 8003b04:	60da      	str	r2, [r3, #12]
  MODIFY_REG(ADCx->SQR1, ADC_SQR1_L, SequencerNbRanks);
 8003b06:	6b1a      	ldr	r2, [r3, #48]	@ 0x30
 8003b08:	f022 020f 	bic.w	r2, r2, #15
 8003b0c:	4322      	orrs	r2, r4
  ErrorStatus status = SUCCESS;
 8003b0e:	2000      	movs	r0, #0
  {
    /* Initialization error: ADC instance is not disabled. */
    status = ERROR;
  }
  return status;
}
 8003b10:	bc70      	pop	{r4, r5, r6}
 8003b12:	631a      	str	r2, [r3, #48]	@ 0x30
 8003b14:	4770      	bx	lr
    status = ERROR;
 8003b16:	2001      	movs	r0, #1
}
 8003b18:	4770      	bx	lr
      MODIFY_REG(ADCx->CFGR,
 8003b1a:	688d      	ldr	r5, [r1, #8]
 8003b1c:	4903      	ldr	r1, [pc, #12]	@ (8003b2c <LL_ADC_REG_Init+0x4c>)
 8003b1e:	4302      	orrs	r2, r0
 8003b20:	68d8      	ldr	r0, [r3, #12]
 8003b22:	4001      	ands	r1, r0
 8003b24:	430a      	orrs	r2, r1
 8003b26:	432a      	orrs	r2, r5
 8003b28:	60da      	str	r2, [r3, #12]
 8003b2a:	e7ec      	b.n	8003b06 <LL_ADC_REG_Init+0x26>
 8003b2c:	fff0c01c 	.word	0xfff0c01c

08003b30 <LL_GPIO_Init>:
  * @retval An ErrorStatus enumeration value:
  *          - SUCCESS: GPIO registers are initialized according to GPIO_InitStruct content
  *          - ERROR:   Not applicable
  */
ErrorStatus LL_GPIO_Init(GPIO_TypeDef *GPIOx, LL_GPIO_InitTypeDef *GPIO_InitStruct)
{
 8003b30:	e92d 4ff0 	stmdb	sp!, {r4, r5, r6, r7, r8, r9, sl, fp, lr}
  assert_param(IS_LL_GPIO_MODE(GPIO_InitStruct->Mode));
  assert_param(IS_LL_GPIO_PULL(GPIO_InitStruct->Pull));

  /* ------------------------- Configure the port pins ---------------- */
  /* Initialize  pinpos on first pin set */
  pinpos = POSITION_VAL(GPIO_InitStruct->Pin);
 8003b34:	680d      	ldr	r5, [r1, #0]
   __ASM volatile ("rbit %0, %1" : "=r" (result) : "r" (value) );
 8003b36:	fa95 f2a5 	rbit	r2, r5
  if (value == 0U)
 8003b3a:	2a00      	cmp	r2, #0
 8003b3c:	f000 808e 	beq.w	8003c5c <LL_GPIO_Init+0x12c>
  return __builtin_clz(value);
 8003b40:	fab2 f282 	clz	r2, r2

  /* Configure the port pins */
  while (((GPIO_InitStruct->Pin) >> pinpos) != 0x00000000U)
 8003b44:	fa35 f302 	lsrs.w	r3, r5, r2
 8003b48:	f000 8088 	beq.w	8003c5c <LL_GPIO_Init+0x12c>
  {
    /* Get current io position */
    currentpin = (GPIO_InitStruct->Pin) & (0x00000001UL << pinpos);
 8003b4c:	f04f 0c01 	mov.w	ip, #1
  MODIFY_REG(GPIOx->MODER, (GPIO_MODER_MODE0 << (POSITION_VAL(Pin) * 2U)), (Mode << (POSITION_VAL(Pin) * 2U)));
 8003b50:	f04f 0e03 	mov.w	lr, #3
  MODIFY_REG(GPIOx->OTYPER, PinMask, (PinMask * OutputType));
 8003b54:	43ef      	mvns	r7, r5
 8003b56:	e01a      	b.n	8003b8e <LL_GPIO_Init+0x5e>
  MODIFY_REG(GPIOx->MODER, (GPIO_MODER_MODE0 << (POSITION_VAL(Pin) * 2U)), (Mode << (POSITION_VAL(Pin) * 2U)));
 8003b58:	f8d0 8000 	ldr.w	r8, [r0]
   __ASM volatile ("rbit %0, %1" : "=r" (result) : "r" (value) );
 8003b5c:	fa93 f4a3 	rbit	r4, r3
  if (value == 0U)
 8003b60:	b134      	cbz	r4, 8003b70 <LL_GPIO_Init+0x40>
  return __builtin_clz(value);
 8003b62:	fab4 f484 	clz	r4, r4
 8003b66:	0064      	lsls	r4, r4, #1
 8003b68:	fa0e f404 	lsl.w	r4, lr, r4
 8003b6c:	ea28 0804 	bic.w	r8, r8, r4
   __ASM volatile ("rbit %0, %1" : "=r" (result) : "r" (value) );
 8003b70:	fa93 f3a3 	rbit	r3, r3
  if (value == 0U)
 8003b74:	b12b      	cbz	r3, 8003b82 <LL_GPIO_Init+0x52>
  return __builtin_clz(value);
 8003b76:	fab3 f383 	clz	r3, r3
 8003b7a:	005b      	lsls	r3, r3, #1
 8003b7c:	409e      	lsls	r6, r3
 8003b7e:	ea48 0806 	orr.w	r8, r8, r6
 8003b82:	f8c0 8000 	str.w	r8, [r0]
      }

      /* Pin Mode configuration */
      LL_GPIO_SetPinMode(GPIOx, currentpin, GPIO_InitStruct->Mode);
    }
    pinpos++;
 8003b86:	3201      	adds	r2, #1
  while (((GPIO_InitStruct->Pin) >> pinpos) != 0x00000000U)
 8003b88:	fa35 f302 	lsrs.w	r3, r5, r2
 8003b8c:	d066      	beq.n	8003c5c <LL_GPIO_Init+0x12c>
    currentpin = (GPIO_InitStruct->Pin) & (0x00000001UL << pinpos);
 8003b8e:	fa0c f302 	lsl.w	r3, ip, r2
    if (currentpin != 0x00u)
 8003b92:	402b      	ands	r3, r5
 8003b94:	d0f7      	beq.n	8003b86 <LL_GPIO_Init+0x56>
      if ((GPIO_InitStruct->Mode == LL_GPIO_MODE_OUTPUT) || (GPIO_InitStruct->Mode == LL_GPIO_MODE_ALTERNATE))
 8003b96:	684e      	ldr	r6, [r1, #4]
 8003b98:	1e74      	subs	r4, r6, #1
 8003b9a:	2c01      	cmp	r4, #1
 8003b9c:	d93a      	bls.n	8003c14 <LL_GPIO_Init+0xe4>
      LL_GPIO_SetPinPull(GPIOx, currentpin, GPIO_InitStruct->Pull);
 8003b9e:	f8d1 9010 	ldr.w	r9, [r1, #16]
  MODIFY_REG(GPIOx->PUPDR, (GPIO_PUPDR_PUPD0 << (POSITION_VAL(Pin) * 2U)), (Pull << (POSITION_VAL(Pin) * 2U)));
 8003ba2:	f8d0 800c 	ldr.w	r8, [r0, #12]
   __ASM volatile ("rbit %0, %1" : "=r" (result) : "r" (value) );
 8003ba6:	fa93 f4a3 	rbit	r4, r3
  if (value == 0U)
 8003baa:	b134      	cbz	r4, 8003bba <LL_GPIO_Init+0x8a>
  return __builtin_clz(value);
 8003bac:	fab4 f484 	clz	r4, r4
 8003bb0:	0064      	lsls	r4, r4, #1
 8003bb2:	fa0e f404 	lsl.w	r4, lr, r4
 8003bb6:	ea28 0804 	bic.w	r8, r8, r4
   __ASM volatile ("rbit %0, %1" : "=r" (result) : "r" (value) );
 8003bba:	fa93 f4a3 	rbit	r4, r3
  if (value == 0U)
 8003bbe:	b134      	cbz	r4, 8003bce <LL_GPIO_Init+0x9e>
  return __builtin_clz(value);
 8003bc0:	fab4 f484 	clz	r4, r4
 8003bc4:	0064      	lsls	r4, r4, #1
 8003bc6:	fa09 f904 	lsl.w	r9, r9, r4
 8003bca:	ea48 0809 	orr.w	r8, r8, r9
      if (GPIO_InitStruct->Mode == LL_GPIO_MODE_ALTERNATE)
 8003bce:	2e02      	cmp	r6, #2
 8003bd0:	f8c0 800c 	str.w	r8, [r0, #12]
 8003bd4:	d1c0      	bne.n	8003b58 <LL_GPIO_Init+0x28>
        if (currentpin < LL_GPIO_PIN_8)
 8003bd6:	2bff      	cmp	r3, #255	@ 0xff
          LL_GPIO_SetAFPin_0_7(GPIOx, currentpin, GPIO_InitStruct->Alternate);
 8003bd8:	f8d1 8014 	ldr.w	r8, [r1, #20]
        if (currentpin < LL_GPIO_PIN_8)
 8003bdc:	d841      	bhi.n	8003c62 <LL_GPIO_Init+0x132>
  MODIFY_REG(GPIOx->AFR[0], (GPIO_AFRL_AFSEL0 << (POSITION_VAL(Pin) * 4U)),
 8003bde:	f8d0 9020 	ldr.w	r9, [r0, #32]
   __ASM volatile ("rbit %0, %1" : "=r" (result) : "r" (value) );
 8003be2:	fa93 f4a3 	rbit	r4, r3
  if (value == 0U)
 8003be6:	b144      	cbz	r4, 8003bfa <LL_GPIO_Init+0xca>
  return __builtin_clz(value);
 8003be8:	fab4 f484 	clz	r4, r4
 8003bec:	00a4      	lsls	r4, r4, #2
 8003bee:	f04f 0a0f 	mov.w	sl, #15
 8003bf2:	fa0a f404 	lsl.w	r4, sl, r4
 8003bf6:	ea29 0904 	bic.w	r9, r9, r4
   __ASM volatile ("rbit %0, %1" : "=r" (result) : "r" (value) );
 8003bfa:	fa93 f4a3 	rbit	r4, r3
  if (value == 0U)
 8003bfe:	b134      	cbz	r4, 8003c0e <LL_GPIO_Init+0xde>
  return __builtin_clz(value);
 8003c00:	fab4 f484 	clz	r4, r4
 8003c04:	00a4      	lsls	r4, r4, #2
 8003c06:	fa08 f404 	lsl.w	r4, r8, r4
 8003c0a:	ea49 0904 	orr.w	r9, r9, r4
 8003c0e:	f8c0 9020 	str.w	r9, [r0, #32]
}
 8003c12:	e7a1      	b.n	8003b58 <LL_GPIO_Init+0x28>
        LL_GPIO_SetPinSpeed(GPIOx, currentpin, GPIO_InitStruct->Speed);
 8003c14:	f8d1 9008 	ldr.w	r9, [r1, #8]
  MODIFY_REG(GPIOx->OSPEEDR, (GPIO_OSPEEDR_OSPEED0 << (POSITION_VAL(Pin) * 2U)),
 8003c18:	f8d0 8008 	ldr.w	r8, [r0, #8]
   __ASM volatile ("rbit %0, %1" : "=r" (result) : "r" (value) );
 8003c1c:	fa93 f4a3 	rbit	r4, r3
  if (value == 0U)
 8003c20:	b134      	cbz	r4, 8003c30 <LL_GPIO_Init+0x100>
  return __builtin_clz(value);
 8003c22:	fab4 f484 	clz	r4, r4
 8003c26:	0064      	lsls	r4, r4, #1
 8003c28:	fa0e f404 	lsl.w	r4, lr, r4
 8003c2c:	ea28 0804 	bic.w	r8, r8, r4
   __ASM volatile ("rbit %0, %1" : "=r" (result) : "r" (value) );
 8003c30:	fa93 f4a3 	rbit	r4, r3
  if (value == 0U)
 8003c34:	b134      	cbz	r4, 8003c44 <LL_GPIO_Init+0x114>
  return __builtin_clz(value);
 8003c36:	fab4 f484 	clz	r4, r4
 8003c3a:	0064      	lsls	r4, r4, #1
 8003c3c:	fa09 f904 	lsl.w	r9, r9, r4
 8003c40:	ea48 0809 	orr.w	r8, r8, r9
 8003c44:	f8c0 8008 	str.w	r8, [r0, #8]
  MODIFY_REG(GPIOx->OTYPER, PinMask, (PinMask * OutputType));
 8003c48:	6844      	ldr	r4, [r0, #4]
 8003c4a:	ea07 0804 	and.w	r8, r7, r4
 8003c4e:	68cc      	ldr	r4, [r1, #12]
 8003c50:	fb05 f404 	mul.w	r4, r5, r4
 8003c54:	ea48 0404 	orr.w	r4, r8, r4
 8003c58:	6044      	str	r4, [r0, #4]
}
 8003c5a:	e7a0      	b.n	8003b9e <LL_GPIO_Init+0x6e>
  }
  return (SUCCESS);
}
 8003c5c:	2000      	movs	r0, #0
 8003c5e:	e8bd 8ff0 	ldmia.w	sp!, {r4, r5, r6, r7, r8, r9, sl, fp, pc}
  MODIFY_REG(GPIOx->AFR[1], (GPIO_AFRH_AFSEL8 << (POSITION_VAL(Pin >> 8U) * 4U)),
 8003c62:	f8d0 9024 	ldr.w	r9, [r0, #36]	@ 0x24
 8003c66:	0a1c      	lsrs	r4, r3, #8
   __ASM volatile ("rbit %0, %1" : "=r" (result) : "r" (value) );
 8003c68:	fa94 faa4 	rbit	sl, r4
  if (value == 0U)
 8003c6c:	f1ba 0f00 	cmp.w	sl, #0
 8003c70:	d009      	beq.n	8003c86 <LL_GPIO_Init+0x156>
  return __builtin_clz(value);
 8003c72:	faba fa8a 	clz	sl, sl
 8003c76:	ea4f 0a8a 	mov.w	sl, sl, lsl #2
 8003c7a:	f04f 0b0f 	mov.w	fp, #15
 8003c7e:	fa0b fa0a 	lsl.w	sl, fp, sl
 8003c82:	ea29 090a 	bic.w	r9, r9, sl
   __ASM volatile ("rbit %0, %1" : "=r" (result) : "r" (value) );
 8003c86:	fa94 f4a4 	rbit	r4, r4
  if (value == 0U)
 8003c8a:	b134      	cbz	r4, 8003c9a <LL_GPIO_Init+0x16a>
  return __builtin_clz(value);
 8003c8c:	fab4 f484 	clz	r4, r4
 8003c90:	00a4      	lsls	r4, r4, #2
 8003c92:	fa08 f804 	lsl.w	r8, r8, r4
 8003c96:	ea49 0908 	orr.w	r9, r9, r8
 8003c9a:	f8c0 9024 	str.w	r9, [r0, #36]	@ 0x24
}
 8003c9e:	e75b      	b.n	8003b58 <LL_GPIO_Init+0x28>

08003ca0 <LL_I2C_Init>:
  CLEAR_BIT(I2Cx->CR1, I2C_CR1_PE);
 8003ca0:	6803      	ldr	r3, [r0, #0]
 8003ca2:	f023 0301 	bic.w	r3, r3, #1
  * @retval An ErrorStatus enumeration value:
  *          - SUCCESS: I2C registers are initialized
  *          - ERROR: Not applicable
  */
ErrorStatus LL_I2C_Init(I2C_TypeDef *I2Cx, const LL_I2C_InitTypeDef *I2C_InitStruct)
{
 8003ca6:	b410      	push	{r4}
 8003ca8:	6003      	str	r3, [r0, #0]
  MODIFY_REG(I2Cx->CR1, I2C_CR1_ANFOFF | I2C_CR1_DNF, AnalogFilter | (DigitalFilter << I2C_CR1_DNF_Pos));
 8003caa:	e9d1 3402 	ldrd	r3, r4, [r1, #8]
 8003cae:	6802      	ldr	r2, [r0, #0]
 8003cb0:	ea43 2304 	orr.w	r3, r3, r4, lsl #8
 8003cb4:	f422 52f8 	bic.w	r2, r2, #7936	@ 0x1f00
  /*---------------------------- I2Cx TIMINGR Configuration --------------------
   * Configure the SDA setup, hold time and the SCL high, low period with parameter :
   * - Timing: I2C_TIMINGR_PRESC[3:0], I2C_TIMINGR_SCLDEL[3:0], I2C_TIMINGR_SDADEL[3:0],
   *           I2C_TIMINGR_SCLH[7:0] and I2C_TIMINGR_SCLL[7:0] bits
   */
  LL_I2C_SetTiming(I2Cx, I2C_InitStruct->Timing);
 8003cb8:	684c      	ldr	r4, [r1, #4]
 8003cba:	4313      	orrs	r3, r2
 8003cbc:	6003      	str	r3, [r0, #0]
  WRITE_REG(I2Cx->TIMINGR, Timing);
 8003cbe:	6104      	str	r4, [r0, #16]
  SET_BIT(I2Cx->CR1, I2C_CR1_PE);
 8003cc0:	6803      	ldr	r3, [r0, #0]
   * Disable, Configure and Enable I2Cx device own address 1 with parameters :
   * - OwnAddress1:  I2C_OAR1_OA1[9:0] bits
   * - OwnAddrSize:  I2C_OAR1_OA1MODE bit
   */
  LL_I2C_DisableOwnAddress1(I2Cx);
  LL_I2C_SetOwnAddress1(I2Cx, I2C_InitStruct->OwnAddress1, I2C_InitStruct->OwnAddrSize);
 8003cc2:	690c      	ldr	r4, [r1, #16]
 8003cc4:	f043 0301 	orr.w	r3, r3, #1
 8003cc8:	6003      	str	r3, [r0, #0]
  CLEAR_BIT(I2Cx->OAR1, I2C_OAR1_OA1EN);
 8003cca:	6883      	ldr	r3, [r0, #8]
 8003ccc:	f423 4300 	bic.w	r3, r3, #32768	@ 0x8000
 8003cd0:	6083      	str	r3, [r0, #8]
  MODIFY_REG(I2Cx->OAR1, I2C_OAR1_OA1 | I2C_OAR1_OA1MODE, OwnAddress1 | OwnAddrSize);
 8003cd2:	6882      	ldr	r2, [r0, #8]
 8003cd4:	698b      	ldr	r3, [r1, #24]
 8003cd6:	f36f 020a 	bfc	r2, #0, #11
 8003cda:	4323      	orrs	r3, r4
 8003cdc:	4313      	orrs	r3, r2
 8003cde:	6083      	str	r3, [r0, #8]

  /* OwnAdress1 == 0 is reserved for General Call address */
  if (I2C_InitStruct->OwnAddress1 != 0U)
 8003ce0:	b11c      	cbz	r4, 8003cea <LL_I2C_Init+0x4a>
  SET_BIT(I2Cx->OAR1, I2C_OAR1_OA1EN);
 8003ce2:	6883      	ldr	r3, [r0, #8]
 8003ce4:	f443 4300 	orr.w	r3, r3, #32768	@ 0x8000
 8003ce8:	6083      	str	r3, [r0, #8]
  MODIFY_REG(I2Cx->CR1, I2C_CR1_SMBHEN | I2C_CR1_SMBDEN, PeripheralMode);
 8003cea:	6803      	ldr	r3, [r0, #0]
 8003cec:	680a      	ldr	r2, [r1, #0]
   * - TypeAcknowledge: I2C_CR2_NACK bit
   */
  LL_I2C_AcknowledgeNextData(I2Cx, I2C_InitStruct->TypeAcknowledge);

  return SUCCESS;
}
 8003cee:	f85d 4b04 	ldr.w	r4, [sp], #4
 8003cf2:	f423 1340 	bic.w	r3, r3, #3145728	@ 0x300000
 8003cf6:	4313      	orrs	r3, r2
 8003cf8:	6003      	str	r3, [r0, #0]
  *         @arg @ref LL_I2C_NACK
  * @retval None
  */
__STATIC_INLINE void LL_I2C_AcknowledgeNextData(I2C_TypeDef *I2Cx, uint32_t TypeAcknowledge)
{
  MODIFY_REG(I2Cx->CR2, I2C_CR2_NACK, TypeAcknowledge);
 8003cfa:	6843      	ldr	r3, [r0, #4]
 8003cfc:	694a      	ldr	r2, [r1, #20]
 8003cfe:	f423 4300 	bic.w	r3, r3, #32768	@ 0x8000
 8003d02:	4313      	orrs	r3, r2
 8003d04:	6043      	str	r3, [r0, #4]
 8003d06:	2000      	movs	r0, #0
 8003d08:	4770      	bx	lr
 8003d0a:	bf00      	nop

08003d0c <LL_LPUART_Init>:
  * @retval An ErrorStatus enumeration value:
  *          - SUCCESS: LPUART registers are initialized according to LPUART_InitStruct content
  *          - ERROR: Problem occurred during LPUART Registers initialization
  */
ErrorStatus LL_LPUART_Init(USART_TypeDef *LPUARTx, const LL_LPUART_InitTypeDef *LPUART_InitStruct)
{
 8003d0c:	b5f8      	push	{r3, r4, r5, r6, r7, lr}
  return ((READ_BIT(LPUARTx->CR1, USART_CR1_UE) == (USART_CR1_UE)) ? 1UL : 0UL);
 8003d0e:	6806      	ldr	r6, [r0, #0]
 8003d10:	f016 0601 	ands.w	r6, r6, #1
 8003d14:	d124      	bne.n	8003d60 <LL_LPUART_Init+0x54>
     * Configure LPUARTx CR1 (LPUART Word Length, Parity and Transfer Direction bits) with parameters:
     * - DataWidth:          USART_CR1_M bits according to LPUART_InitStruct->DataWidth value
     * - Parity:             USART_CR1_PCE, USART_CR1_PS bits according to LPUART_InitStruct->Parity value
     * - TransferDirection:  USART_CR1_TE, USART_CR1_RE bits according to LPUART_InitStruct->TransferDirection value
     */
    MODIFY_REG(LPUARTx->CR1,
 8003d16:	690b      	ldr	r3, [r1, #16]
 8003d18:	688a      	ldr	r2, [r1, #8]
 8003d1a:	460d      	mov	r5, r1
 8003d1c:	431a      	orrs	r2, r3
 8003d1e:	696b      	ldr	r3, [r5, #20]
 8003d20:	6801      	ldr	r1, [r0, #0]
 8003d22:	431a      	orrs	r2, r3
 8003d24:	4b1e      	ldr	r3, [pc, #120]	@ (8003da0 <LL_LPUART_Init+0x94>)
 8003d26:	400b      	ands	r3, r1
 8003d28:	431a      	orrs	r2, r3
 8003d2a:	6002      	str	r2, [r0, #0]
  MODIFY_REG(LPUARTx->CR2, USART_CR2_STOP, StopBits);
 8003d2c:	6843      	ldr	r3, [r0, #4]
 8003d2e:	68ea      	ldr	r2, [r5, #12]
 8003d30:	f423 5340 	bic.w	r3, r3, #12288	@ 0x3000
 8003d34:	4313      	orrs	r3, r2
 8003d36:	6043      	str	r3, [r0, #4]
  MODIFY_REG(LPUARTx->CR3, USART_CR3_RTSE | USART_CR3_CTSE, HardwareFlowControl);
 8003d38:	6883      	ldr	r3, [r0, #8]
 8003d3a:	69aa      	ldr	r2, [r5, #24]
 8003d3c:	f423 7340 	bic.w	r3, r3, #768	@ 0x300
 8003d40:	4313      	orrs	r3, r2
 8003d42:	4604      	mov	r4, r0
 8003d44:	6083      	str	r3, [r0, #8]
    LL_LPUART_SetHWFlowCtrl(LPUARTx, LPUART_InitStruct->HardwareFlowControl);

    /*---------------------------- LPUART BRR Configuration -----------------------
     * Retrieve Clock frequency used for LPUART Peripheral
     */
    periphclk = LL_RCC_GetLPUARTClockFreq(LL_RCC_LPUART1_CLKSOURCE);
 8003d46:	f44f 6040 	mov.w	r0, #3072	@ 0xc00
 8003d4a:	f000 f92d 	bl	8003fa8 <LL_RCC_GetLPUARTClockFreq>
    /* Configure the LPUART Baud Rate :
       - prescaler value is required
       - valid baud rate value (different from 0) is required
       - Peripheral clock as returned by RCC service, should be valid (different from 0).
    */
    if ((periphclk != LL_RCC_PERIPH_FREQUENCY_NO)
 8003d4e:	b948      	cbnz	r0, 8003d64 <LL_LPUART_Init+0x58>
 8003d50:	882d      	ldrh	r5, [r5, #0]
  ErrorStatus status = ERROR;
 8003d52:	2001      	movs	r0, #1
  MODIFY_REG(LPUARTx->PRESC, USART_PRESC_PRESCALER, (uint16_t)PrescalerValue);
 8003d54:	6ae3      	ldr	r3, [r4, #44]	@ 0x2c
 8003d56:	f023 030f 	bic.w	r3, r3, #15
 8003d5a:	432b      	orrs	r3, r5
 8003d5c:	62e3      	str	r3, [r4, #44]	@ 0x2c
     */
    LL_LPUART_SetPrescaler(LPUARTx, LPUART_InitStruct->PrescalerValue);
  }

  return (status);
}
 8003d5e:	bdf8      	pop	{r3, r4, r5, r6, r7, pc}
  ErrorStatus status = ERROR;
 8003d60:	2001      	movs	r0, #1
}
 8003d62:	bdf8      	pop	{r3, r4, r5, r6, r7, pc}
        && (LPUART_InitStruct->BaudRate != 0U))
 8003d64:	686f      	ldr	r7, [r5, #4]
 8003d66:	882d      	ldrh	r5, [r5, #0]
 8003d68:	b90f      	cbnz	r7, 8003d6e <LL_LPUART_Init+0x62>
  ErrorStatus status = ERROR;
 8003d6a:	2001      	movs	r0, #1
 8003d6c:	e7f2      	b.n	8003d54 <LL_LPUART_Init+0x48>
    LPUARTx->BRR = __LL_LPUART_DIV(PeriphClk, PrescalerValue, BaudRate);
 8003d6e:	4b0d      	ldr	r3, [pc, #52]	@ (8003da4 <LL_LPUART_Init+0x98>)
 8003d70:	4631      	mov	r1, r6
 8003d72:	f833 2015 	ldrh.w	r2, [r3, r5, lsl #1]
 8003d76:	4633      	mov	r3, r6
 8003d78:	f7fd f83a 	bl	8000df0 <__aeabi_uldivmod>
 8003d7c:	0209      	lsls	r1, r1, #8
 8003d7e:	ea41 6110 	orr.w	r1, r1, r0, lsr #24
 8003d82:	087b      	lsrs	r3, r7, #1
 8003d84:	0200      	lsls	r0, r0, #8
 8003d86:	18c0      	adds	r0, r0, r3
 8003d88:	463a      	mov	r2, r7
 8003d8a:	f141 0100 	adc.w	r1, r1, #0
 8003d8e:	4633      	mov	r3, r6
 8003d90:	f7fd f82e 	bl	8000df0 <__aeabi_uldivmod>
 8003d94:	f3c0 0013 	ubfx	r0, r0, #0, #20
 8003d98:	60e0      	str	r0, [r4, #12]
      status = SUCCESS;
 8003d9a:	4630      	mov	r0, r6
}
 8003d9c:	e7da      	b.n	8003d54 <LL_LPUART_Init+0x48>
 8003d9e:	bf00      	nop
 8003da0:	efffe9f3 	.word	0xefffe9f3
 8003da4:	08007f84 	.word	0x08007f84

08003da8 <RCC_GetSystemClockFreq>:
  return (uint32_t)(READ_BIT(RCC->CFGR, RCC_CFGR_SWS));
 8003da8:	4a14      	ldr	r2, [pc, #80]	@ (8003dfc <RCC_GetSystemClockFreq+0x54>)
 8003daa:	6893      	ldr	r3, [r2, #8]
 8003dac:	f003 030c 	and.w	r3, r3, #12
static uint32_t RCC_GetSystemClockFreq(void)
{
  uint32_t frequency;

  /* Get SYSCLK source -------------------------------------------------------*/
  switch (LL_RCC_GetSysClkSource())
 8003db0:	2b08      	cmp	r3, #8
 8003db2:	d021      	beq.n	8003df8 <RCC_GetSystemClockFreq+0x50>
 8003db4:	2b0c      	cmp	r3, #12
 8003db6:	d001      	beq.n	8003dbc <RCC_GetSystemClockFreq+0x14>
  {
    case LL_RCC_SYS_CLKSOURCE_STATUS_HSI:  /* HSI used as system clock  source */
      frequency = HSI_VALUE;
 8003db8:	4811      	ldr	r0, [pc, #68]	@ (8003e00 <RCC_GetSystemClockFreq+0x58>)
      frequency = HSI_VALUE;
      break;
  }

  return frequency;
}
 8003dba:	4770      	bx	lr
{
 8003dbc:	b430      	push	{r4, r5}
  return (uint32_t)(READ_BIT(RCC->PLLCFGR, RCC_PLLCFGR_PLLSRC));
 8003dbe:	68d5      	ldr	r5, [r2, #12]
  return (uint32_t)(READ_BIT(RCC->PLLCFGR, RCC_PLLCFGR_PLLN) >>  RCC_PLLCFGR_PLLN_Pos);
 8003dc0:	68d0      	ldr	r0, [r2, #12]
  return (uint32_t)(READ_BIT(RCC->PLLCFGR, RCC_PLLCFGR_PLLM));
 8003dc2:	68d1      	ldr	r1, [r2, #12]
  return (uint32_t)(READ_BIT(RCC->PLLCFGR, RCC_PLLCFGR_PLLR));
 8003dc4:	68d3      	ldr	r3, [r2, #12]
  pllsource = LL_RCC_PLL_GetMainSource();

  switch (pllsource)
  {
    case LL_RCC_PLLSOURCE_HSI:  /* HSI used as PLL clock source */
      pllinputfreq = HSI_VALUE;
 8003dc6:	4c0f      	ldr	r4, [pc, #60]	@ (8003e04 <RCC_GetSystemClockFreq+0x5c>)

    default:
      pllinputfreq = HSI_VALUE;
      break;
  }
  return __LL_RCC_CALC_PLLCLK_FREQ(pllinputfreq, LL_RCC_PLL_GetDivider(),
 8003dc8:	f3c1 1203 	ubfx	r2, r1, #4, #4
      pllinputfreq = HSI_VALUE;
 8003dcc:	490c      	ldr	r1, [pc, #48]	@ (8003e00 <RCC_GetSystemClockFreq+0x58>)
  return (uint32_t)(READ_BIT(RCC->PLLCFGR, RCC_PLLCFGR_PLLSRC));
 8003dce:	f005 0c03 	and.w	ip, r5, #3
  return __LL_RCC_CALC_PLLCLK_FREQ(pllinputfreq, LL_RCC_PLL_GetDivider(),
 8003dd2:	f3c3 6341 	ubfx	r3, r3, #25, #2
      pllinputfreq = HSI_VALUE;
 8003dd6:	f1bc 0f03 	cmp.w	ip, #3
 8003dda:	bf08      	it	eq
 8003ddc:	4621      	moveq	r1, r4
  return (uint32_t)(READ_BIT(RCC->PLLCFGR, RCC_PLLCFGR_PLLN) >>  RCC_PLLCFGR_PLLN_Pos);
 8003dde:	f3c0 2006 	ubfx	r0, r0, #8, #7
  return __LL_RCC_CALC_PLLCLK_FREQ(pllinputfreq, LL_RCC_PLL_GetDivider(),
 8003de2:	3301      	adds	r3, #1
 8003de4:	3201      	adds	r2, #1
 8003de6:	005b      	lsls	r3, r3, #1
 8003de8:	fb01 f000 	mul.w	r0, r1, r0
}
 8003dec:	bc30      	pop	{r4, r5}
  return __LL_RCC_CALC_PLLCLK_FREQ(pllinputfreq, LL_RCC_PLL_GetDivider(),
 8003dee:	fbb0 f0f2 	udiv	r0, r0, r2
 8003df2:	fbb0 f0f3 	udiv	r0, r0, r3
}
 8003df6:	4770      	bx	lr
  switch (LL_RCC_GetSysClkSource())
 8003df8:	4802      	ldr	r0, [pc, #8]	@ (8003e04 <RCC_GetSystemClockFreq+0x5c>)
 8003dfa:	4770      	bx	lr
 8003dfc:	40021000 	.word	0x40021000
 8003e00:	00f42400 	.word	0x00f42400
 8003e04:	016e3600 	.word	0x016e3600

08003e08 <LL_RCC_GetUSARTClockFreq>:
  if (USARTxSource == LL_RCC_USART1_CLKSOURCE)
 8003e08:	2803      	cmp	r0, #3
{
 8003e0a:	b510      	push	{r4, lr}
  if (USARTxSource == LL_RCC_USART1_CLKSOURCE)
 8003e0c:	d01f      	beq.n	8003e4e <LL_RCC_GetUSARTClockFreq+0x46>
  else if (USARTxSource == LL_RCC_USART2_CLKSOURCE)
 8003e0e:	280c      	cmp	r0, #12
 8003e10:	d003      	beq.n	8003e1a <LL_RCC_GetUSARTClockFreq+0x12>
    if (USARTxSource == LL_RCC_USART3_CLKSOURCE)
 8003e12:	2830      	cmp	r0, #48	@ 0x30
 8003e14:	d04b      	beq.n	8003eae <LL_RCC_GetUSARTClockFreq+0xa6>
  uint32_t usart_frequency = LL_RCC_PERIPH_FREQUENCY_NO;
 8003e16:	2000      	movs	r0, #0
}
 8003e18:	bd10      	pop	{r4, pc}
  return (uint32_t)(READ_BIT(RCC->CCIPR, USARTx) | (USARTx << 16U));
 8003e1a:	4c2f      	ldr	r4, [pc, #188]	@ (8003ed8 <LL_RCC_GetUSARTClockFreq+0xd0>)
    switch (LL_RCC_GetUSARTClockSource(USARTxSource))
 8003e1c:	4a2f      	ldr	r2, [pc, #188]	@ (8003edc <LL_RCC_GetUSARTClockFreq+0xd4>)
 8003e1e:	f8d4 3088 	ldr.w	r3, [r4, #136]	@ 0x88
 8003e22:	f003 030c 	and.w	r3, r3, #12
 8003e26:	f443 2340 	orr.w	r3, r3, #786432	@ 0xc0000
 8003e2a:	4293      	cmp	r3, r2
 8003e2c:	d038      	beq.n	8003ea0 <LL_RCC_GetUSARTClockFreq+0x98>
 8003e2e:	f1b3 1f0c 	cmp.w	r3, #786444	@ 0xc000c
 8003e32:	d02f      	beq.n	8003e94 <LL_RCC_GetUSARTClockFreq+0x8c>
 8003e34:	3a04      	subs	r2, #4
 8003e36:	4293      	cmp	r3, r2
 8003e38:	d049      	beq.n	8003ece <LL_RCC_GetUSARTClockFreq+0xc6>
          usart_frequency = RCC_GetPCLK1ClockFreq(RCC_GetHCLKClockFreq(RCC_GetSystemClockFreq()));
 8003e3a:	f7ff ffb5 	bl	8003da8 <RCC_GetSystemClockFreq>
  return (uint32_t)(READ_BIT(RCC->CFGR, RCC_CFGR_HPRE));
 8003e3e:	68a2      	ldr	r2, [r4, #8]
  return (uint32_t)(READ_BIT(RCC->CFGR, RCC_CFGR_PPRE1));
 8003e40:	68a3      	ldr	r3, [r4, #8]
  return __LL_RCC_CALC_HCLK_FREQ(SYSCLK_Frequency, LL_RCC_GetAHBPrescaler());
 8003e42:	4927      	ldr	r1, [pc, #156]	@ (8003ee0 <LL_RCC_GetUSARTClockFreq+0xd8>)
 8003e44:	f3c2 1203 	ubfx	r2, r2, #4, #4
  return __LL_RCC_CALC_PCLK1_FREQ(HCLK_Frequency, LL_RCC_GetAPB1Prescaler());
 8003e48:	f3c3 2302 	ubfx	r3, r3, #8, #3
 8003e4c:	e018      	b.n	8003e80 <LL_RCC_GetUSARTClockFreq+0x78>
  return (uint32_t)(READ_BIT(RCC->CCIPR, USARTx) | (USARTx << 16U));
 8003e4e:	4c22      	ldr	r4, [pc, #136]	@ (8003ed8 <LL_RCC_GetUSARTClockFreq+0xd0>)
    switch (LL_RCC_GetUSARTClockSource(USARTxSource))
 8003e50:	4a24      	ldr	r2, [pc, #144]	@ (8003ee4 <LL_RCC_GetUSARTClockFreq+0xdc>)
 8003e52:	f8d4 3088 	ldr.w	r3, [r4, #136]	@ 0x88
 8003e56:	f003 0303 	and.w	r3, r3, #3
 8003e5a:	f443 3340 	orr.w	r3, r3, #196608	@ 0x30000
 8003e5e:	4293      	cmp	r3, r2
 8003e60:	d01e      	beq.n	8003ea0 <LL_RCC_GetUSARTClockFreq+0x98>
 8003e62:	f1b3 1f03 	cmp.w	r3, #196611	@ 0x30003
 8003e66:	d015      	beq.n	8003e94 <LL_RCC_GetUSARTClockFreq+0x8c>
 8003e68:	3a01      	subs	r2, #1
 8003e6a:	4293      	cmp	r3, r2
 8003e6c:	d02f      	beq.n	8003ece <LL_RCC_GetUSARTClockFreq+0xc6>
        usart_frequency = RCC_GetPCLK2ClockFreq(RCC_GetHCLKClockFreq(RCC_GetSystemClockFreq()));
 8003e6e:	f7ff ff9b 	bl	8003da8 <RCC_GetSystemClockFreq>
  return (uint32_t)(READ_BIT(RCC->CFGR, RCC_CFGR_HPRE));
 8003e72:	68a2      	ldr	r2, [r4, #8]
  return (uint32_t)(READ_BIT(RCC->CFGR, RCC_CFGR_PPRE2));
 8003e74:	68a3      	ldr	r3, [r4, #8]
  return __LL_RCC_CALC_HCLK_FREQ(SYSCLK_Frequency, LL_RCC_GetAHBPrescaler());
 8003e76:	491a      	ldr	r1, [pc, #104]	@ (8003ee0 <LL_RCC_GetUSARTClockFreq+0xd8>)
 8003e78:	f3c2 1203 	ubfx	r2, r2, #4, #4
  return __LL_RCC_CALC_PCLK2_FREQ(HCLK_Frequency, LL_RCC_GetAPB2Prescaler());
 8003e7c:	f3c3 23c2 	ubfx	r3, r3, #11, #3
  return __LL_RCC_CALC_HCLK_FREQ(SYSCLK_Frequency, LL_RCC_GetAHBPrescaler());
 8003e80:	5c8a      	ldrb	r2, [r1, r2]
  return __LL_RCC_CALC_PCLK1_FREQ(HCLK_Frequency, LL_RCC_GetAPB1Prescaler());
 8003e82:	4919      	ldr	r1, [pc, #100]	@ (8003ee8 <LL_RCC_GetUSARTClockFreq+0xe0>)
 8003e84:	5ccb      	ldrb	r3, [r1, r3]
  return __LL_RCC_CALC_HCLK_FREQ(SYSCLK_Frequency, LL_RCC_GetAHBPrescaler());
 8003e86:	f002 021f 	and.w	r2, r2, #31
 8003e8a:	40d0      	lsrs	r0, r2
  return __LL_RCC_CALC_PCLK1_FREQ(HCLK_Frequency, LL_RCC_GetAPB1Prescaler());
 8003e8c:	f003 031f 	and.w	r3, r3, #31
 8003e90:	40d8      	lsrs	r0, r3
}
 8003e92:	bd10      	pop	{r4, pc}
  return ((READ_BIT(RCC->BDCR, RCC_BDCR_LSERDY) == (RCC_BDCR_LSERDY)) ? 1UL : 0UL);
 8003e94:	f8d4 0090 	ldr.w	r0, [r4, #144]	@ 0x90
 8003e98:	f3c0 0040 	ubfx	r0, r0, #1, #1
 8003e9c:	03c0      	lsls	r0, r0, #15
 8003e9e:	bd10      	pop	{r4, pc}
  return ((READ_BIT(RCC->CR, RCC_CR_HSIRDY) == (RCC_CR_HSIRDY)) ? 1UL : 0UL);
 8003ea0:	6820      	ldr	r0, [r4, #0]
          usart_frequency = HSI_VALUE;
 8003ea2:	4b12      	ldr	r3, [pc, #72]	@ (8003eec <LL_RCC_GetUSARTClockFreq+0xe4>)
 8003ea4:	f410 6080 	ands.w	r0, r0, #1024	@ 0x400
 8003ea8:	bf18      	it	ne
 8003eaa:	4618      	movne	r0, r3
}
 8003eac:	bd10      	pop	{r4, pc}
  return (uint32_t)(READ_BIT(RCC->CCIPR, USARTx) | (USARTx << 16U));
 8003eae:	4c0a      	ldr	r4, [pc, #40]	@ (8003ed8 <LL_RCC_GetUSARTClockFreq+0xd0>)
      switch (LL_RCC_GetUSARTClockSource(USARTxSource))
 8003eb0:	4a0f      	ldr	r2, [pc, #60]	@ (8003ef0 <LL_RCC_GetUSARTClockFreq+0xe8>)
 8003eb2:	f8d4 3088 	ldr.w	r3, [r4, #136]	@ 0x88
 8003eb6:	f003 0330 	and.w	r3, r3, #48	@ 0x30
 8003eba:	f443 1340 	orr.w	r3, r3, #3145728	@ 0x300000
 8003ebe:	4293      	cmp	r3, r2
 8003ec0:	d0ee      	beq.n	8003ea0 <LL_RCC_GetUSARTClockFreq+0x98>
 8003ec2:	f1b3 1f30 	cmp.w	r3, #3145776	@ 0x300030
 8003ec6:	d0e5      	beq.n	8003e94 <LL_RCC_GetUSARTClockFreq+0x8c>
 8003ec8:	3a10      	subs	r2, #16
 8003eca:	4293      	cmp	r3, r2
 8003ecc:	d1b5      	bne.n	8003e3a <LL_RCC_GetUSARTClockFreq+0x32>
}
 8003ece:	e8bd 4010 	ldmia.w	sp!, {r4, lr}
        usart_frequency = RCC_GetSystemClockFreq();
 8003ed2:	f7ff bf69 	b.w	8003da8 <RCC_GetSystemClockFreq>
 8003ed6:	bf00      	nop
 8003ed8:	40021000 	.word	0x40021000
 8003edc:	000c0008 	.word	0x000c0008
 8003ee0:	08007f74 	.word	0x08007f74
 8003ee4:	00030002 	.word	0x00030002
 8003ee8:	08007f6c 	.word	0x08007f6c
 8003eec:	00f42400 	.word	0x00f42400
 8003ef0:	00300020 	.word	0x00300020

08003ef4 <LL_RCC_GetUARTClockFreq>:
  if (UARTxSource == LL_RCC_UART4_CLKSOURCE)
 8003ef4:	28c0      	cmp	r0, #192	@ 0xc0
{
 8003ef6:	b510      	push	{r4, lr}
  if (UARTxSource == LL_RCC_UART4_CLKSOURCE)
 8003ef8:	d028      	beq.n	8003f4c <LL_RCC_GetUARTClockFreq+0x58>
  if (UARTxSource == LL_RCC_UART5_CLKSOURCE)
 8003efa:	f5b0 7f40 	cmp.w	r0, #768	@ 0x300
 8003efe:	d123      	bne.n	8003f48 <LL_RCC_GetUARTClockFreq+0x54>
  return (uint32_t)(READ_BIT(RCC->CCIPR, UARTx) | (UARTx << 16U));
 8003f00:	4c23      	ldr	r4, [pc, #140]	@ (8003f90 <LL_RCC_GetUARTClockFreq+0x9c>)
    switch (LL_RCC_GetUARTClockSource(UARTxSource))
 8003f02:	4a24      	ldr	r2, [pc, #144]	@ (8003f94 <LL_RCC_GetUARTClockFreq+0xa0>)
 8003f04:	f8d4 3088 	ldr.w	r3, [r4, #136]	@ 0x88
 8003f08:	f403 7340 	and.w	r3, r3, #768	@ 0x300
 8003f0c:	f043 7340 	orr.w	r3, r3, #50331648	@ 0x3000000
 8003f10:	4293      	cmp	r3, r2
 8003f12:	d035      	beq.n	8003f80 <LL_RCC_GetUARTClockFreq+0x8c>
 8003f14:	f1b3 2f03 	cmp.w	r3, #50332416	@ 0x3000300
 8003f18:	d02c      	beq.n	8003f74 <LL_RCC_GetUARTClockFreq+0x80>
 8003f1a:	f5a2 7280 	sub.w	r2, r2, #256	@ 0x100
 8003f1e:	4293      	cmp	r3, r2
 8003f20:	d024      	beq.n	8003f6c <LL_RCC_GetUARTClockFreq+0x78>
        uart_frequency = RCC_GetPCLK1ClockFreq(RCC_GetHCLKClockFreq(RCC_GetSystemClockFreq()));
 8003f22:	f7ff ff41 	bl	8003da8 <RCC_GetSystemClockFreq>
  return (uint32_t)(READ_BIT(RCC->CFGR, RCC_CFGR_HPRE));
 8003f26:	68a2      	ldr	r2, [r4, #8]
  return __LL_RCC_CALC_HCLK_FREQ(SYSCLK_Frequency, LL_RCC_GetAHBPrescaler());
 8003f28:	491b      	ldr	r1, [pc, #108]	@ (8003f98 <LL_RCC_GetUARTClockFreq+0xa4>)
  return (uint32_t)(READ_BIT(RCC->CFGR, RCC_CFGR_PPRE1));
 8003f2a:	68a3      	ldr	r3, [r4, #8]
 8003f2c:	f3c2 1203 	ubfx	r2, r2, #4, #4
  return __LL_RCC_CALC_PCLK1_FREQ(HCLK_Frequency, LL_RCC_GetAPB1Prescaler());
 8003f30:	f3c3 2302 	ubfx	r3, r3, #8, #3
  return __LL_RCC_CALC_HCLK_FREQ(SYSCLK_Frequency, LL_RCC_GetAHBPrescaler());
 8003f34:	5c8a      	ldrb	r2, [r1, r2]
  return __LL_RCC_CALC_PCLK1_FREQ(HCLK_Frequency, LL_RCC_GetAPB1Prescaler());
 8003f36:	4919      	ldr	r1, [pc, #100]	@ (8003f9c <LL_RCC_GetUARTClockFreq+0xa8>)
 8003f38:	5ccb      	ldrb	r3, [r1, r3]
  return __LL_RCC_CALC_HCLK_FREQ(SYSCLK_Frequency, LL_RCC_GetAHBPrescaler());
 8003f3a:	f002 021f 	and.w	r2, r2, #31
 8003f3e:	40d0      	lsrs	r0, r2
  return __LL_RCC_CALC_PCLK1_FREQ(HCLK_Frequency, LL_RCC_GetAPB1Prescaler());
 8003f40:	f003 031f 	and.w	r3, r3, #31
 8003f44:	40d8      	lsrs	r0, r3
}
 8003f46:	bd10      	pop	{r4, pc}
 8003f48:	2000      	movs	r0, #0
 8003f4a:	bd10      	pop	{r4, pc}
  return (uint32_t)(READ_BIT(RCC->CCIPR, UARTx) | (UARTx << 16U));
 8003f4c:	4c10      	ldr	r4, [pc, #64]	@ (8003f90 <LL_RCC_GetUARTClockFreq+0x9c>)
    switch (LL_RCC_GetUARTClockSource(UARTxSource))
 8003f4e:	4a14      	ldr	r2, [pc, #80]	@ (8003fa0 <LL_RCC_GetUARTClockFreq+0xac>)
 8003f50:	f8d4 3088 	ldr.w	r3, [r4, #136]	@ 0x88
 8003f54:	f003 03c0 	and.w	r3, r3, #192	@ 0xc0
 8003f58:	f443 0340 	orr.w	r3, r3, #12582912	@ 0xc00000
 8003f5c:	4293      	cmp	r3, r2
 8003f5e:	d00f      	beq.n	8003f80 <LL_RCC_GetUARTClockFreq+0x8c>
 8003f60:	f1b3 1fc0 	cmp.w	r3, #12583104	@ 0xc000c0
 8003f64:	d006      	beq.n	8003f74 <LL_RCC_GetUARTClockFreq+0x80>
 8003f66:	3a40      	subs	r2, #64	@ 0x40
 8003f68:	4293      	cmp	r3, r2
 8003f6a:	d1da      	bne.n	8003f22 <LL_RCC_GetUARTClockFreq+0x2e>
}
 8003f6c:	e8bd 4010 	ldmia.w	sp!, {r4, lr}
        uart_frequency = RCC_GetSystemClockFreq();
 8003f70:	f7ff bf1a 	b.w	8003da8 <RCC_GetSystemClockFreq>
  return ((READ_BIT(RCC->BDCR, RCC_BDCR_LSERDY) == (RCC_BDCR_LSERDY)) ? 1UL : 0UL);
 8003f74:	f8d4 0090 	ldr.w	r0, [r4, #144]	@ 0x90
 8003f78:	f3c0 0040 	ubfx	r0, r0, #1, #1
 8003f7c:	03c0      	lsls	r0, r0, #15
}
 8003f7e:	bd10      	pop	{r4, pc}
  return ((READ_BIT(RCC->CR, RCC_CR_HSIRDY) == (RCC_CR_HSIRDY)) ? 1UL : 0UL);
 8003f80:	6820      	ldr	r0, [r4, #0]
          uart_frequency = HSI_VALUE;
 8003f82:	4b08      	ldr	r3, [pc, #32]	@ (8003fa4 <LL_RCC_GetUARTClockFreq+0xb0>)
 8003f84:	f410 6080 	ands.w	r0, r0, #1024	@ 0x400
 8003f88:	bf18      	it	ne
 8003f8a:	4618      	movne	r0, r3
}
 8003f8c:	bd10      	pop	{r4, pc}
 8003f8e:	bf00      	nop
 8003f90:	40021000 	.word	0x40021000
 8003f94:	03000200 	.word	0x03000200
 8003f98:	08007f74 	.word	0x08007f74
 8003f9c:	08007f6c 	.word	0x08007f6c
 8003fa0:	00c00080 	.word	0x00c00080
 8003fa4:	00f42400 	.word	0x00f42400

08003fa8 <LL_RCC_GetLPUARTClockFreq>:
{
 8003fa8:	b510      	push	{r4, lr}
  return (uint32_t)(READ_BIT(RCC->CCIPR, LPUARTx));
 8003faa:	4c18      	ldr	r4, [pc, #96]	@ (800400c <LL_RCC_GetLPUARTClockFreq+0x64>)
 8003fac:	f8d4 3088 	ldr.w	r3, [r4, #136]	@ 0x88
 8003fb0:	4018      	ands	r0, r3
  switch (LL_RCC_GetLPUARTClockSource(LPUARTxSource))
 8003fb2:	f5b0 6f00 	cmp.w	r0, #2048	@ 0x800
 8003fb6:	d00f      	beq.n	8003fd8 <LL_RCC_GetLPUARTClockFreq+0x30>
 8003fb8:	f5b0 6f40 	cmp.w	r0, #3072	@ 0xc00
 8003fbc:	d006      	beq.n	8003fcc <LL_RCC_GetLPUARTClockFreq+0x24>
 8003fbe:	f5b0 6f80 	cmp.w	r0, #1024	@ 0x400
 8003fc2:	d110      	bne.n	8003fe6 <LL_RCC_GetLPUARTClockFreq+0x3e>
}
 8003fc4:	e8bd 4010 	ldmia.w	sp!, {r4, lr}
      lpuart_frequency = RCC_GetSystemClockFreq();
 8003fc8:	f7ff beee 	b.w	8003da8 <RCC_GetSystemClockFreq>
  return ((READ_BIT(RCC->BDCR, RCC_BDCR_LSERDY) == (RCC_BDCR_LSERDY)) ? 1UL : 0UL);
 8003fcc:	f8d4 0090 	ldr.w	r0, [r4, #144]	@ 0x90
 8003fd0:	f3c0 0040 	ubfx	r0, r0, #1, #1
 8003fd4:	03c0      	lsls	r0, r0, #15
}
 8003fd6:	bd10      	pop	{r4, pc}
  return ((READ_BIT(RCC->CR, RCC_CR_HSIRDY) == (RCC_CR_HSIRDY)) ? 1UL : 0UL);
 8003fd8:	6820      	ldr	r0, [r4, #0]
        lpuart_frequency = HSI_VALUE;
 8003fda:	4b0d      	ldr	r3, [pc, #52]	@ (8004010 <LL_RCC_GetLPUARTClockFreq+0x68>)
 8003fdc:	f410 6080 	ands.w	r0, r0, #1024	@ 0x400
 8003fe0:	bf18      	it	ne
 8003fe2:	4618      	movne	r0, r3
}
 8003fe4:	bd10      	pop	{r4, pc}
      lpuart_frequency = RCC_GetPCLK1ClockFreq(RCC_GetHCLKClockFreq(RCC_GetSystemClockFreq()));
 8003fe6:	f7ff fedf 	bl	8003da8 <RCC_GetSystemClockFreq>
  return (uint32_t)(READ_BIT(RCC->CFGR, RCC_CFGR_HPRE));
 8003fea:	68a2      	ldr	r2, [r4, #8]
  return __LL_RCC_CALC_HCLK_FREQ(SYSCLK_Frequency, LL_RCC_GetAHBPrescaler());
 8003fec:	4909      	ldr	r1, [pc, #36]	@ (8004014 <LL_RCC_GetLPUARTClockFreq+0x6c>)
  return (uint32_t)(READ_BIT(RCC->CFGR, RCC_CFGR_PPRE1));
 8003fee:	68a3      	ldr	r3, [r4, #8]
 8003ff0:	f3c2 1203 	ubfx	r2, r2, #4, #4
  return __LL_RCC_CALC_PCLK1_FREQ(HCLK_Frequency, LL_RCC_GetAPB1Prescaler());
 8003ff4:	f3c3 2302 	ubfx	r3, r3, #8, #3
  return __LL_RCC_CALC_HCLK_FREQ(SYSCLK_Frequency, LL_RCC_GetAHBPrescaler());
 8003ff8:	5c8a      	ldrb	r2, [r1, r2]
  return __LL_RCC_CALC_PCLK1_FREQ(HCLK_Frequency, LL_RCC_GetAPB1Prescaler());
 8003ffa:	4907      	ldr	r1, [pc, #28]	@ (8004018 <LL_RCC_GetLPUARTClockFreq+0x70>)
 8003ffc:	5ccb      	ldrb	r3, [r1, r3]
  return __LL_RCC_CALC_HCLK_FREQ(SYSCLK_Frequency, LL_RCC_GetAHBPrescaler());
 8003ffe:	f002 021f 	and.w	r2, r2, #31
 8004002:	40d0      	lsrs	r0, r2
  return __LL_RCC_CALC_PCLK1_FREQ(HCLK_Frequency, LL_RCC_GetAPB1Prescaler());
 8004004:	f003 031f 	and.w	r3, r3, #31
 8004008:	40d8      	lsrs	r0, r3
}
 800400a:	bd10      	pop	{r4, pc}
 800400c:	40021000 	.word	0x40021000
 8004010:	00f42400 	.word	0x00f42400
 8004014:	08007f74 	.word	0x08007f74
 8004018:	08007f6c 	.word	0x08007f6c

0800401c <LL_SPI_Init>:
  return ((READ_BIT(SPIx->CR1, SPI_CR1_SPE) == (SPI_CR1_SPE)) ? 1UL : 0UL);
 800401c:	6803      	ldr	r3, [r0, #0]
 800401e:	065b      	lsls	r3, r3, #25
  * @param  SPIx SPI Instance
  * @param  SPI_InitStruct pointer to a @ref LL_SPI_InitTypeDef structure
  * @retval An ErrorStatus enumeration value. (Return always SUCCESS)
  */
ErrorStatus LL_SPI_Init(SPI_TypeDef *SPIx, LL_SPI_InitTypeDef *SPI_InitStruct)
{
 8004020:	4602      	mov	r2, r0
 8004022:	d432      	bmi.n	800408a <LL_SPI_Init+0x6e>
 8004024:	b430      	push	{r4, r5}
     * - NSS management:     SPI_CR1_SSM bit
     * - BaudRate prescaler: SPI_CR1_BR[2:0] bits
     * - BitOrder:           SPI_CR1_LSBFIRST bit
     * - CRCCalculation:     SPI_CR1_CRCEN bit
     */
    MODIFY_REG(SPIx->CR1,
 8004026:	6814      	ldr	r4, [r2, #0]
 8004028:	6948      	ldr	r0, [r1, #20]
 800402a:	e9d1 3500 	ldrd	r3, r5, [r1]
 800402e:	f424 4c7f 	bic.w	ip, r4, #65280	@ 0xff00
 8004032:	68cc      	ldr	r4, [r1, #12]
 8004034:	432b      	orrs	r3, r5
 8004036:	4323      	orrs	r3, r4
 8004038:	690c      	ldr	r4, [r1, #16]
    /*---------------------------- SPIx CR2 Configuration ------------------------
     * Configure SPIx CR2 with parameters:
     * - DataWidth:          DS[3:0] bits
     * - NSS management:     SSOE bit
     */
    MODIFY_REG(SPIx->CR2,
 800403a:	688d      	ldr	r5, [r1, #8]
    MODIFY_REG(SPIx->CR1,
 800403c:	4323      	orrs	r3, r4
 800403e:	698c      	ldr	r4, [r1, #24]
 8004040:	4303      	orrs	r3, r0
 8004042:	4323      	orrs	r3, r4
 8004044:	69cc      	ldr	r4, [r1, #28]
 8004046:	4323      	orrs	r3, r4
 8004048:	6a0c      	ldr	r4, [r1, #32]
 800404a:	f02c 0cbf 	bic.w	ip, ip, #191	@ 0xbf
 800404e:	4323      	orrs	r3, r4
 8004050:	ea43 030c 	orr.w	r3, r3, ip
 8004054:	6013      	str	r3, [r2, #0]
    MODIFY_REG(SPIx->CR2,
 8004056:	6853      	ldr	r3, [r2, #4]
 8004058:	f423 6370 	bic.w	r3, r3, #3840	@ 0xf00
 800405c:	f023 0304 	bic.w	r3, r3, #4
 8004060:	ea45 4010 	orr.w	r0, r5, r0, lsr #16
 8004064:	4318      	orrs	r0, r3
               SPI_CR2_DS | SPI_CR2_SSOE,
               SPI_InitStruct->DataWidth | (SPI_InitStruct->NSS >> 16U));

    /* Set Rx FIFO to Quarter (1 Byte) in case of 8 Bits mode. No DataPacking by default */
    if (SPI_InitStruct->DataWidth < LL_SPI_DATAWIDTH_9BIT)
 8004066:	f5b5 6f00 	cmp.w	r5, #2048	@ 0x800
    MODIFY_REG(SPIx->CR2,
 800406a:	6050      	str	r0, [r2, #4]
    if (SPI_InitStruct->DataWidth < LL_SPI_DATAWIDTH_9BIT)
 800406c:	d203      	bcs.n	8004076 <LL_SPI_Init+0x5a>
  MODIFY_REG(SPIx->CR2, SPI_CR2_FRXTH, Threshold);
 800406e:	6853      	ldr	r3, [r2, #4]
 8004070:	f443 5380 	orr.w	r3, r3, #4096	@ 0x1000
 8004074:	6053      	str	r3, [r2, #4]

    /*---------------------------- SPIx CRCPR Configuration ----------------------
     * Configure SPIx CRCPR with parameters:
     * - CRCPoly:            CRCPOLY[15:0] bits
     */
    if (SPI_InitStruct->CRCCalculation == LL_SPI_CRCCALCULATION_ENABLE)
 8004076:	f5b4 5f00 	cmp.w	r4, #8192	@ 0x2000
 800407a:	d00c      	beq.n	8004096 <LL_SPI_Init+0x7a>
    status = SUCCESS;
  }

#if defined (SPI_I2S_SUPPORT)
  /* Activate the SPI mode (Reset I2SMOD bit in I2SCFGR register) */
  CLEAR_BIT(SPIx->I2SCFGR, SPI_I2SCFGR_I2SMOD);
 800407c:	69d3      	ldr	r3, [r2, #28]
 800407e:	f423 6300 	bic.w	r3, r3, #2048	@ 0x800
    status = SUCCESS;
 8004082:	2000      	movs	r0, #0
#endif /* SPI_I2S_SUPPORT */
  return status;
}
 8004084:	bc30      	pop	{r4, r5}
  CLEAR_BIT(SPIx->I2SCFGR, SPI_I2SCFGR_I2SMOD);
 8004086:	61d3      	str	r3, [r2, #28]
}
 8004088:	4770      	bx	lr
  CLEAR_BIT(SPIx->I2SCFGR, SPI_I2SCFGR_I2SMOD);
 800408a:	69d3      	ldr	r3, [r2, #28]
 800408c:	f423 6300 	bic.w	r3, r3, #2048	@ 0x800
  ErrorStatus status = ERROR;
 8004090:	2001      	movs	r0, #1
  CLEAR_BIT(SPIx->I2SCFGR, SPI_I2SCFGR_I2SMOD);
 8004092:	61d3      	str	r3, [r2, #28]
}
 8004094:	4770      	bx	lr
  WRITE_REG(SPIx->CRCPR, (uint16_t)CRCPoly);
 8004096:	8c8b      	ldrh	r3, [r1, #36]	@ 0x24
 8004098:	6113      	str	r3, [r2, #16]
}
 800409a:	e7ef      	b.n	800407c <LL_SPI_Init+0x60>

0800409c <LL_TIM_Init>:
  * @retval An ErrorStatus enumeration value:
  *          - SUCCESS: TIMx registers are de-initialized
  *          - ERROR: not applicable
  */
ErrorStatus LL_TIM_Init(TIM_TypeDef *TIMx, const LL_TIM_InitTypeDef *TIM_InitStruct)
{
 800409c:	b430      	push	{r4, r5}
  assert_param(IS_LL_TIM_COUNTERMODE(TIM_InitStruct->CounterMode));
  assert_param(IS_LL_TIM_CLOCKDIVISION(TIM_InitStruct->ClockDivision));

  tmpcr1 = LL_TIM_ReadReg(TIMx, CR1);

  if (IS_TIM_COUNTER_MODE_SELECT_INSTANCE(TIMx))
 800409e:	4d2e      	ldr	r5, [pc, #184]	@ (8004158 <LL_TIM_Init+0xbc>)

  /* Write to TIMx CR1 */
  LL_TIM_WriteReg(TIMx, CR1, tmpcr1);

  /* Set the Autoreload value */
  LL_TIM_SetAutoReload(TIMx, TIM_InitStruct->Autoreload);
 80040a0:	688c      	ldr	r4, [r1, #8]
  tmpcr1 = LL_TIM_ReadReg(TIMx, CR1);
 80040a2:	6803      	ldr	r3, [r0, #0]

  /* Set the Prescaler value */
  LL_TIM_SetPrescaler(TIMx, TIM_InitStruct->Prescaler);
 80040a4:	880a      	ldrh	r2, [r1, #0]
  if (IS_TIM_COUNTER_MODE_SELECT_INSTANCE(TIMx))
 80040a6:	42a8      	cmp	r0, r5
 80040a8:	d041      	beq.n	800412e <LL_TIM_Init+0x92>
 80040aa:	f1b0 4f80 	cmp.w	r0, #1073741824	@ 0x40000000
 80040ae:	d023      	beq.n	80040f8 <LL_TIM_Init+0x5c>
 80040b0:	f5a5 3594 	sub.w	r5, r5, #75776	@ 0x12800
 80040b4:	42a8      	cmp	r0, r5
 80040b6:	d01f      	beq.n	80040f8 <LL_TIM_Init+0x5c>
 80040b8:	f505 6580 	add.w	r5, r5, #1024	@ 0x400
 80040bc:	42a8      	cmp	r0, r5
 80040be:	d01b      	beq.n	80040f8 <LL_TIM_Init+0x5c>
 80040c0:	f505 6580 	add.w	r5, r5, #1024	@ 0x400
 80040c4:	42a8      	cmp	r0, r5
 80040c6:	d017      	beq.n	80040f8 <LL_TIM_Init+0x5c>
 80040c8:	f505 3594 	add.w	r5, r5, #75776	@ 0x12800
 80040cc:	42a8      	cmp	r0, r5
 80040ce:	d02e      	beq.n	800412e <LL_TIM_Init+0x92>
 80040d0:	f505 55e0 	add.w	r5, r5, #7168	@ 0x1c00
 80040d4:	42a8      	cmp	r0, r5
 80040d6:	d02a      	beq.n	800412e <LL_TIM_Init+0x92>
  if (IS_TIM_CLOCK_DIVISION_INSTANCE(TIMx))
 80040d8:	f5a5 5580 	sub.w	r5, r5, #4096	@ 0x1000
 80040dc:	42a8      	cmp	r0, r5
 80040de:	d02a      	beq.n	8004136 <LL_TIM_Init+0x9a>
 80040e0:	f505 6580 	add.w	r5, r5, #1024	@ 0x400
 80040e4:	42a8      	cmp	r0, r5
 80040e6:	d00b      	beq.n	8004100 <LL_TIM_Init+0x64>
 80040e8:	f505 6580 	add.w	r5, r5, #1024	@ 0x400
 80040ec:	42a8      	cmp	r0, r5
 80040ee:	d02a      	beq.n	8004146 <LL_TIM_Init+0xaa>
  LL_TIM_WriteReg(TIMx, CR1, tmpcr1);
 80040f0:	6003      	str	r3, [r0, #0]
  WRITE_REG(TIMx->ARR, AutoReload);
 80040f2:	62c4      	str	r4, [r0, #44]	@ 0x2c
  WRITE_REG(TIMx->PSC, Prescaler);
 80040f4:	6282      	str	r2, [r0, #40]	@ 0x28

  if (IS_TIM_REPETITION_COUNTER_INSTANCE(TIMx))
 80040f6:	e013      	b.n	8004120 <LL_TIM_Init+0x84>
    MODIFY_REG(tmpcr1, (TIM_CR1_DIR | TIM_CR1_CMS), TIM_InitStruct->CounterMode);
 80040f8:	684d      	ldr	r5, [r1, #4]
 80040fa:	f023 0370 	bic.w	r3, r3, #112	@ 0x70
 80040fe:	432b      	orrs	r3, r5
    MODIFY_REG(tmpcr1, TIM_CR1_CKD, TIM_InitStruct->ClockDivision);
 8004100:	68cd      	ldr	r5, [r1, #12]
 8004102:	f423 7340 	bic.w	r3, r3, #768	@ 0x300
 8004106:	432b      	orrs	r3, r5
  LL_TIM_WriteReg(TIMx, CR1, tmpcr1);
 8004108:	6003      	str	r3, [r0, #0]
  WRITE_REG(TIMx->ARR, AutoReload);
 800410a:	62c4      	str	r4, [r0, #44]	@ 0x2c
  WRITE_REG(TIMx->PSC, Prescaler);
 800410c:	6282      	str	r2, [r0, #40]	@ 0x28
  if (IS_TIM_REPETITION_COUNTER_INSTANCE(TIMx))
 800410e:	4b13      	ldr	r3, [pc, #76]	@ (800415c <LL_TIM_Init+0xc0>)
 8004110:	4298      	cmp	r0, r3
 8004112:	d003      	beq.n	800411c <LL_TIM_Init+0x80>
 8004114:	f503 6380 	add.w	r3, r3, #1024	@ 0x400
 8004118:	4298      	cmp	r0, r3
 800411a:	d101      	bne.n	8004120 <LL_TIM_Init+0x84>
  {
    /* Set the Repetition Counter value */
    LL_TIM_SetRepetitionCounter(TIMx, TIM_InitStruct->RepetitionCounter);
 800411c:	690b      	ldr	r3, [r1, #16]
  WRITE_REG(TIMx->RCR, RepetitionCounter);
 800411e:	6303      	str	r3, [r0, #48]	@ 0x30
  * @param  TIMx Timer instance
  * @retval None
  */
__STATIC_INLINE void LL_TIM_GenerateEvent_UPDATE(TIM_TypeDef *TIMx)
{
  SET_BIT(TIMx->EGR, TIM_EGR_UG);
 8004120:	6943      	ldr	r3, [r0, #20]
 8004122:	f043 0301 	orr.w	r3, r3, #1
 8004126:	6143      	str	r3, [r0, #20]
  /* Generate an update event to reload the Prescaler
     and the repetition counter value (if applicable) immediately */
  LL_TIM_GenerateEvent_UPDATE(TIMx);

  return SUCCESS;
}
 8004128:	bc30      	pop	{r4, r5}
 800412a:	2000      	movs	r0, #0
 800412c:	4770      	bx	lr
    MODIFY_REG(tmpcr1, (TIM_CR1_DIR | TIM_CR1_CMS), TIM_InitStruct->CounterMode);
 800412e:	684d      	ldr	r5, [r1, #4]
 8004130:	f023 0370 	bic.w	r3, r3, #112	@ 0x70
 8004134:	432b      	orrs	r3, r5
    MODIFY_REG(tmpcr1, TIM_CR1_CKD, TIM_InitStruct->ClockDivision);
 8004136:	68cd      	ldr	r5, [r1, #12]
 8004138:	f423 7340 	bic.w	r3, r3, #768	@ 0x300
 800413c:	432b      	orrs	r3, r5
  LL_TIM_WriteReg(TIMx, CR1, tmpcr1);
 800413e:	6003      	str	r3, [r0, #0]
  WRITE_REG(TIMx->ARR, AutoReload);
 8004140:	62c4      	str	r4, [r0, #44]	@ 0x2c
  WRITE_REG(TIMx->PSC, Prescaler);
 8004142:	6282      	str	r2, [r0, #40]	@ 0x28
  if (IS_TIM_REPETITION_COUNTER_INSTANCE(TIMx))
 8004144:	e7ea      	b.n	800411c <LL_TIM_Init+0x80>
    MODIFY_REG(tmpcr1, TIM_CR1_CKD, TIM_InitStruct->ClockDivision);
 8004146:	68cd      	ldr	r5, [r1, #12]
 8004148:	f423 7340 	bic.w	r3, r3, #768	@ 0x300
 800414c:	432b      	orrs	r3, r5
  LL_TIM_WriteReg(TIMx, CR1, tmpcr1);
 800414e:	4d04      	ldr	r5, [pc, #16]	@ (8004160 <LL_TIM_Init+0xc4>)
 8004150:	602b      	str	r3, [r5, #0]
  WRITE_REG(TIMx->ARR, AutoReload);
 8004152:	62ec      	str	r4, [r5, #44]	@ 0x2c
  WRITE_REG(TIMx->PSC, Prescaler);
 8004154:	62aa      	str	r2, [r5, #40]	@ 0x28
  if (IS_TIM_REPETITION_COUNTER_INSTANCE(TIMx))
 8004156:	e7da      	b.n	800410e <LL_TIM_Init+0x72>
 8004158:	40012c00 	.word	0x40012c00
 800415c:	40014400 	.word	0x40014400
 8004160:	40014800 	.word	0x40014800

08004164 <LL_TIM_OC_Init>:
  */
ErrorStatus LL_TIM_OC_Init(TIM_TypeDef *TIMx, uint32_t Channel, const LL_TIM_OC_InitTypeDef *TIM_OC_InitStruct)
{
  ErrorStatus result = ERROR;

  switch (Channel)
 8004164:	f5b1 5f80 	cmp.w	r1, #4096	@ 0x1000
{
 8004168:	b430      	push	{r4, r5}
  switch (Channel)
 800416a:	f000 8163 	beq.w	8004434 <LL_TIM_OC_Init+0x2d0>
 800416e:	d84e      	bhi.n	800420e <LL_TIM_OC_Init+0xaa>
 8004170:	2910      	cmp	r1, #16
 8004172:	f000 8113 	beq.w	800439c <LL_TIM_OC_Init+0x238>
 8004176:	f5b1 7f80 	cmp.w	r1, #256	@ 0x100
 800417a:	f000 80c7 	beq.w	800430c <LL_TIM_OC_Init+0x1a8>
 800417e:	2901      	cmp	r1, #1
 8004180:	f040 8087 	bne.w	8004292 <LL_TIM_OC_Init+0x12e>
  assert_param(IS_LL_TIM_OCMODE(TIM_OCInitStruct->OCMode));
  assert_param(IS_LL_TIM_OCSTATE(TIM_OCInitStruct->OCState));
  assert_param(IS_LL_TIM_OCPOLARITY(TIM_OCInitStruct->OCPolarity));

  /* Disable the Channel 1: Reset the CC1E Bit */
  CLEAR_BIT(TIMx->CCER, TIM_CCER_CC1E);
 8004184:	6a03      	ldr	r3, [r0, #32]

  /* Set the Output Compare Mode */
  MODIFY_REG(tmpccmr1, TIM_CCMR1_OC1M, TIM_OCInitStruct->OCMode);

  /* Set the Output Compare Polarity */
  MODIFY_REG(tmpccer, TIM_CCER_CC1P, TIM_OCInitStruct->OCPolarity);
 8004186:	6915      	ldr	r5, [r2, #16]
  CLEAR_BIT(TIMx->CCER, TIM_CCER_CC1E);
 8004188:	f023 0301 	bic.w	r3, r3, #1
 800418c:	6203      	str	r3, [r0, #32]
  tmpccer = LL_TIM_ReadReg(TIMx, CCER);
 800418e:	6a03      	ldr	r3, [r0, #32]
  tmpcr2 = LL_TIM_ReadReg(TIMx, CR2);
 8004190:	6841      	ldr	r1, [r0, #4]
  tmpccmr1 = LL_TIM_ReadReg(TIMx, CCMR1);
 8004192:	6984      	ldr	r4, [r0, #24]
  MODIFY_REG(tmpccer, TIM_CCER_CC1P, TIM_OCInitStruct->OCPolarity);
 8004194:	f023 0302 	bic.w	r3, r3, #2
 8004198:	432b      	orrs	r3, r5
  MODIFY_REG(tmpccmr1, TIM_CCMR1_OC1M, TIM_OCInitStruct->OCMode);
 800419a:	f424 3480 	bic.w	r4, r4, #65536	@ 0x10000
 800419e:	6815      	ldr	r5, [r2, #0]
 80041a0:	f024 0473 	bic.w	r4, r4, #115	@ 0x73
 80041a4:	432c      	orrs	r4, r5

  /* Set the Output State */
  MODIFY_REG(tmpccer, TIM_CCER_CC1E, TIM_OCInitStruct->OCState);
 80041a6:	6855      	ldr	r5, [r2, #4]
 80041a8:	f023 0301 	bic.w	r3, r3, #1
 80041ac:	432b      	orrs	r3, r5

  if (IS_TIM_BREAK_INSTANCE(TIMx))
 80041ae:	4da0      	ldr	r5, [pc, #640]	@ (8004430 <LL_TIM_OC_Init+0x2cc>)
 80041b0:	42a8      	cmp	r0, r5
 80041b2:	d013      	beq.n	80041dc <LL_TIM_OC_Init+0x78>
 80041b4:	f505 6500 	add.w	r5, r5, #2048	@ 0x800
 80041b8:	42a8      	cmp	r0, r5
 80041ba:	d00f      	beq.n	80041dc <LL_TIM_OC_Init+0x78>
 80041bc:	f505 6540 	add.w	r5, r5, #3072	@ 0xc00
 80041c0:	42a8      	cmp	r0, r5
 80041c2:	d00b      	beq.n	80041dc <LL_TIM_OC_Init+0x78>
 80041c4:	f505 6580 	add.w	r5, r5, #1024	@ 0x400
 80041c8:	42a8      	cmp	r0, r5
 80041ca:	d007      	beq.n	80041dc <LL_TIM_OC_Init+0x78>
 80041cc:	f505 6580 	add.w	r5, r5, #1024	@ 0x400
 80041d0:	42a8      	cmp	r0, r5
 80041d2:	d003      	beq.n	80041dc <LL_TIM_OC_Init+0x78>
 80041d4:	f505 6500 	add.w	r5, r5, #2048	@ 0x800
 80041d8:	42a8      	cmp	r0, r5
 80041da:	d112      	bne.n	8004202 <LL_TIM_OC_Init+0x9e>
    assert_param(IS_LL_TIM_OCSTATE(TIM_OCInitStruct->OCNState));
    assert_param(IS_LL_TIM_OCPOLARITY(TIM_OCInitStruct->OCNPolarity));
    assert_param(IS_LL_TIM_OCIDLESTATE(TIM_OCInitStruct->OCNIdleState));

    /* Set the complementary output Polarity */
    MODIFY_REG(tmpccer, TIM_CCER_CC1NP, TIM_OCInitStruct->OCNPolarity << 2U);
 80041dc:	6955      	ldr	r5, [r2, #20]
 80041de:	f023 0308 	bic.w	r3, r3, #8
 80041e2:	ea43 0385 	orr.w	r3, r3, r5, lsl #2

    /* Set the complementary output State */
    MODIFY_REG(tmpccer, TIM_CCER_CC1NE, TIM_OCInitStruct->OCNState << 2U);

    /* Set the Output Idle state */
    MODIFY_REG(tmpcr2, TIM_CR2_OIS1, TIM_OCInitStruct->OCIdleState);
 80041e6:	6995      	ldr	r5, [r2, #24]
 80041e8:	f421 7180 	bic.w	r1, r1, #256	@ 0x100
 80041ec:	4329      	orrs	r1, r5
    MODIFY_REG(tmpccer, TIM_CCER_CC1NE, TIM_OCInitStruct->OCNState << 2U);
 80041ee:	6895      	ldr	r5, [r2, #8]
 80041f0:	f023 0304 	bic.w	r3, r3, #4
 80041f4:	ea43 0385 	orr.w	r3, r3, r5, lsl #2

    /* Set the complementary output Idle state */
    MODIFY_REG(tmpcr2, TIM_CR2_OIS1N, TIM_OCInitStruct->OCNIdleState << 1U);
 80041f8:	69d5      	ldr	r5, [r2, #28]
 80041fa:	f421 7100 	bic.w	r1, r1, #512	@ 0x200
 80041fe:	ea41 0145 	orr.w	r1, r1, r5, lsl #1

  /* Write to TIMx CCMR1 */
  LL_TIM_WriteReg(TIMx, CCMR1, tmpccmr1);

  /* Set the Capture Compare Register value */
  LL_TIM_OC_SetCompareCH1(TIMx, TIM_OCInitStruct->CompareValue);
 8004202:	68d2      	ldr	r2, [r2, #12]
  LL_TIM_WriteReg(TIMx, CR2, tmpcr2);
 8004204:	6041      	str	r1, [r0, #4]
  LL_TIM_WriteReg(TIMx, CCMR1, tmpccmr1);
 8004206:	6184      	str	r4, [r0, #24]
  WRITE_REG(TIMx->CCR1, CompareValue);
 8004208:	6342      	str	r2, [r0, #52]	@ 0x34

  /* Write to TIMx CCER */
  LL_TIM_WriteReg(TIMx, CCER, tmpccer);
 800420a:	6203      	str	r3, [r0, #32]
      break;
 800420c:	e03e      	b.n	800428c <LL_TIM_OC_Init+0x128>
  switch (Channel)
 800420e:	f5b1 3f80 	cmp.w	r1, #65536	@ 0x10000
 8004212:	d041      	beq.n	8004298 <LL_TIM_OC_Init+0x134>
 8004214:	f5b1 1f80 	cmp.w	r1, #1048576	@ 0x100000
 8004218:	d13b      	bne.n	8004292 <LL_TIM_OC_Init+0x12e>
  assert_param(IS_LL_TIM_OCPOLARITY(TIM_OCInitStruct->OCPolarity));
  assert_param(IS_LL_TIM_OCPOLARITY(TIM_OCInitStruct->OCNPolarity));
  assert_param(IS_LL_TIM_OCSTATE(TIM_OCInitStruct->OCNState));

  /* Disable the Channel 5: Reset the CC6E Bit */
  CLEAR_BIT(TIMx->CCER, TIM_CCER_CC6E);
 800421a:	6a03      	ldr	r3, [r0, #32]

  /* Get the TIMx CCMR3 register value */
  tmpccmr3 = LL_TIM_ReadReg(TIMx, CCMR3);

  /* Select the Output Compare Mode */
  MODIFY_REG(tmpccmr3, TIM_CCMR3_OC6M, TIM_OCInitStruct->OCMode << 8U);
 800421c:	6814      	ldr	r4, [r2, #0]
  CLEAR_BIT(TIMx->CCER, TIM_CCER_CC6E);
 800421e:	f423 1380 	bic.w	r3, r3, #1048576	@ 0x100000
 8004222:	6203      	str	r3, [r0, #32]
  tmpccer = LL_TIM_ReadReg(TIMx, CCER);
 8004224:	6a03      	ldr	r3, [r0, #32]
  tmpccmr3 = LL_TIM_ReadReg(TIMx, CCMR3);
 8004226:	6d01      	ldr	r1, [r0, #80]	@ 0x50
  MODIFY_REG(tmpccmr3, TIM_CCMR3_OC6M, TIM_OCInitStruct->OCMode << 8U);
 8004228:	f021 7180 	bic.w	r1, r1, #16777216	@ 0x1000000
 800422c:	f421 41e0 	bic.w	r1, r1, #28672	@ 0x7000
 8004230:	ea41 2104 	orr.w	r1, r1, r4, lsl #8

  /* Set the Output Compare Polarity */
  MODIFY_REG(tmpccer, TIM_CCER_CC6P, TIM_OCInitStruct->OCPolarity << 20U);
 8004234:	6914      	ldr	r4, [r2, #16]
 8004236:	f423 1300 	bic.w	r3, r3, #2097152	@ 0x200000
 800423a:	ea43 5304 	orr.w	r3, r3, r4, lsl #20

  /* Set the Output State */
  MODIFY_REG(tmpccer, TIM_CCER_CC6E, TIM_OCInitStruct->OCState << 20U);
 800423e:	6854      	ldr	r4, [r2, #4]
 8004240:	f423 1380 	bic.w	r3, r3, #1048576	@ 0x100000
 8004244:	ea43 5304 	orr.w	r3, r3, r4, lsl #20

  if (IS_TIM_BREAK_INSTANCE(TIMx))
 8004248:	4c79      	ldr	r4, [pc, #484]	@ (8004430 <LL_TIM_OC_Init+0x2cc>)
 800424a:	42a0      	cmp	r0, r4
 800424c:	d013      	beq.n	8004276 <LL_TIM_OC_Init+0x112>
 800424e:	f504 6400 	add.w	r4, r4, #2048	@ 0x800
 8004252:	42a0      	cmp	r0, r4
 8004254:	d00f      	beq.n	8004276 <LL_TIM_OC_Init+0x112>
 8004256:	f504 6440 	add.w	r4, r4, #3072	@ 0xc00
 800425a:	42a0      	cmp	r0, r4
 800425c:	d00b      	beq.n	8004276 <LL_TIM_OC_Init+0x112>
 800425e:	f504 6480 	add.w	r4, r4, #1024	@ 0x400
 8004262:	42a0      	cmp	r0, r4
 8004264:	d007      	beq.n	8004276 <LL_TIM_OC_Init+0x112>
 8004266:	f504 6480 	add.w	r4, r4, #1024	@ 0x400
 800426a:	42a0      	cmp	r0, r4
 800426c:	d003      	beq.n	8004276 <LL_TIM_OC_Init+0x112>
 800426e:	f504 6400 	add.w	r4, r4, #2048	@ 0x800
 8004272:	42a0      	cmp	r0, r4
 8004274:	d106      	bne.n	8004284 <LL_TIM_OC_Init+0x120>
  {
    assert_param(IS_LL_TIM_OCIDLESTATE(TIM_OCInitStruct->OCNIdleState));
    assert_param(IS_LL_TIM_OCIDLESTATE(TIM_OCInitStruct->OCIdleState));

    /* Set the Output Idle state */
    MODIFY_REG(TIMx->CR2, TIM_CR2_OIS6, TIM_OCInitStruct->OCIdleState << 10U);
 8004276:	6844      	ldr	r4, [r0, #4]
 8004278:	6995      	ldr	r5, [r2, #24]
 800427a:	f424 2480 	bic.w	r4, r4, #262144	@ 0x40000
 800427e:	ea44 2485 	orr.w	r4, r4, r5, lsl #10
 8004282:	6044      	str	r4, [r0, #4]

  /* Write to TIMx CCMR3 */
  LL_TIM_WriteReg(TIMx, CCMR3, tmpccmr3);

  /* Set the Capture Compare Register value */
  LL_TIM_OC_SetCompareCH6(TIMx, TIM_OCInitStruct->CompareValue);
 8004284:	68d2      	ldr	r2, [r2, #12]
  LL_TIM_WriteReg(TIMx, CCMR3, tmpccmr3);
 8004286:	6501      	str	r1, [r0, #80]	@ 0x50
  WRITE_REG(TIMx->CCR6, CompareValue);
 8004288:	64c2      	str	r2, [r0, #76]	@ 0x4c

  /* Write to TIMx CCER */
  LL_TIM_WriteReg(TIMx, CCER, tmpccer);
 800428a:	6203      	str	r3, [r0, #32]
      result = OC1Config(TIMx, TIM_OC_InitStruct);
 800428c:	2000      	movs	r0, #0
}
 800428e:	bc30      	pop	{r4, r5}
 8004290:	4770      	bx	lr
  switch (Channel)
 8004292:	2001      	movs	r0, #1
}
 8004294:	bc30      	pop	{r4, r5}
 8004296:	4770      	bx	lr
  CLEAR_BIT(TIMx->CCER, TIM_CCER_CC5E);
 8004298:	6a03      	ldr	r3, [r0, #32]
  MODIFY_REG(tmpccmr3, TIM_CCMR3_OC5M, TIM_OCInitStruct->OCMode);
 800429a:	6814      	ldr	r4, [r2, #0]
  CLEAR_BIT(TIMx->CCER, TIM_CCER_CC5E);
 800429c:	f423 3380 	bic.w	r3, r3, #65536	@ 0x10000
 80042a0:	6203      	str	r3, [r0, #32]
  tmpccer = LL_TIM_ReadReg(TIMx, CCER);
 80042a2:	6a03      	ldr	r3, [r0, #32]
  tmpccmr3 = LL_TIM_ReadReg(TIMx, CCMR3);
 80042a4:	6d01      	ldr	r1, [r0, #80]	@ 0x50
  MODIFY_REG(tmpccmr3, TIM_CCMR3_OC5M, TIM_OCInitStruct->OCMode);
 80042a6:	f421 3180 	bic.w	r1, r1, #65536	@ 0x10000
 80042aa:	f021 0170 	bic.w	r1, r1, #112	@ 0x70
 80042ae:	4321      	orrs	r1, r4
  MODIFY_REG(tmpccer, TIM_CCER_CC5P, TIM_OCInitStruct->OCPolarity << 16U);
 80042b0:	6914      	ldr	r4, [r2, #16]
 80042b2:	f423 3300 	bic.w	r3, r3, #131072	@ 0x20000
 80042b6:	ea43 4304 	orr.w	r3, r3, r4, lsl #16
  MODIFY_REG(tmpccer, TIM_CCER_CC5E, TIM_OCInitStruct->OCState << 16U);
 80042ba:	6854      	ldr	r4, [r2, #4]
 80042bc:	f423 3380 	bic.w	r3, r3, #65536	@ 0x10000
 80042c0:	ea43 4304 	orr.w	r3, r3, r4, lsl #16
  if (IS_TIM_BREAK_INSTANCE(TIMx))
 80042c4:	4c5a      	ldr	r4, [pc, #360]	@ (8004430 <LL_TIM_OC_Init+0x2cc>)
 80042c6:	42a0      	cmp	r0, r4
 80042c8:	d013      	beq.n	80042f2 <LL_TIM_OC_Init+0x18e>
 80042ca:	f504 6400 	add.w	r4, r4, #2048	@ 0x800
 80042ce:	42a0      	cmp	r0, r4
 80042d0:	d00f      	beq.n	80042f2 <LL_TIM_OC_Init+0x18e>
 80042d2:	f504 6440 	add.w	r4, r4, #3072	@ 0xc00
 80042d6:	42a0      	cmp	r0, r4
 80042d8:	d00b      	beq.n	80042f2 <LL_TIM_OC_Init+0x18e>
 80042da:	f504 6480 	add.w	r4, r4, #1024	@ 0x400
 80042de:	42a0      	cmp	r0, r4
 80042e0:	d007      	beq.n	80042f2 <LL_TIM_OC_Init+0x18e>
 80042e2:	f504 6480 	add.w	r4, r4, #1024	@ 0x400
 80042e6:	42a0      	cmp	r0, r4
 80042e8:	d003      	beq.n	80042f2 <LL_TIM_OC_Init+0x18e>
 80042ea:	f504 6400 	add.w	r4, r4, #2048	@ 0x800
 80042ee:	42a0      	cmp	r0, r4
 80042f0:	d106      	bne.n	8004300 <LL_TIM_OC_Init+0x19c>
    MODIFY_REG(TIMx->CR2, TIM_CR2_OIS5, TIM_OCInitStruct->OCIdleState << 8U);
 80042f2:	6844      	ldr	r4, [r0, #4]
 80042f4:	6995      	ldr	r5, [r2, #24]
 80042f6:	f424 3480 	bic.w	r4, r4, #65536	@ 0x10000
 80042fa:	ea44 2405 	orr.w	r4, r4, r5, lsl #8
 80042fe:	6044      	str	r4, [r0, #4]
  LL_TIM_WriteReg(TIMx, CCMR3, tmpccmr3);
 8004300:	6501      	str	r1, [r0, #80]	@ 0x50
  LL_TIM_OC_SetCompareCH5(TIMx, TIM_OCInitStruct->CompareValue);
 8004302:	68d2      	ldr	r2, [r2, #12]
  MODIFY_REG(TIMx->CCR5, TIM_CCR5_CCR5, CompareValue);
 8004304:	6c81      	ldr	r1, [r0, #72]	@ 0x48
 8004306:	6482      	str	r2, [r0, #72]	@ 0x48
  LL_TIM_WriteReg(TIMx, CCER, tmpccer);
 8004308:	6203      	str	r3, [r0, #32]
      break;
 800430a:	e7bf      	b.n	800428c <LL_TIM_OC_Init+0x128>
  CLEAR_BIT(TIMx->CCER, TIM_CCER_CC3E);
 800430c:	6a03      	ldr	r3, [r0, #32]
  MODIFY_REG(tmpccer, TIM_CCER_CC3P, TIM_OCInitStruct->OCPolarity << 8U);
 800430e:	6915      	ldr	r5, [r2, #16]
  CLEAR_BIT(TIMx->CCER, TIM_CCER_CC3E);
 8004310:	f423 7380 	bic.w	r3, r3, #256	@ 0x100
 8004314:	6203      	str	r3, [r0, #32]
  tmpccer =  LL_TIM_ReadReg(TIMx, CCER);
 8004316:	6a03      	ldr	r3, [r0, #32]
  tmpcr2 = LL_TIM_ReadReg(TIMx, CR2);
 8004318:	6841      	ldr	r1, [r0, #4]
  tmpccmr2 = LL_TIM_ReadReg(TIMx, CCMR2);
 800431a:	69c4      	ldr	r4, [r0, #28]
  MODIFY_REG(tmpccer, TIM_CCER_CC3P, TIM_OCInitStruct->OCPolarity << 8U);
 800431c:	f423 7300 	bic.w	r3, r3, #512	@ 0x200
 8004320:	ea43 2305 	orr.w	r3, r3, r5, lsl #8
  MODIFY_REG(tmpccmr2, TIM_CCMR2_OC3M, TIM_OCInitStruct->OCMode);
 8004324:	f424 3480 	bic.w	r4, r4, #65536	@ 0x10000
 8004328:	6815      	ldr	r5, [r2, #0]
 800432a:	f024 0473 	bic.w	r4, r4, #115	@ 0x73
 800432e:	432c      	orrs	r4, r5
  MODIFY_REG(tmpccer, TIM_CCER_CC3E, TIM_OCInitStruct->OCState << 8U);
 8004330:	6855      	ldr	r5, [r2, #4]
 8004332:	f423 7380 	bic.w	r3, r3, #256	@ 0x100
 8004336:	ea43 2305 	orr.w	r3, r3, r5, lsl #8
  if (IS_TIM_BREAK_INSTANCE(TIMx))
 800433a:	4d3d      	ldr	r5, [pc, #244]	@ (8004430 <LL_TIM_OC_Init+0x2cc>)
 800433c:	42a8      	cmp	r0, r5
 800433e:	d013      	beq.n	8004368 <LL_TIM_OC_Init+0x204>
 8004340:	f505 6500 	add.w	r5, r5, #2048	@ 0x800
 8004344:	42a8      	cmp	r0, r5
 8004346:	d00f      	beq.n	8004368 <LL_TIM_OC_Init+0x204>
 8004348:	f505 6540 	add.w	r5, r5, #3072	@ 0xc00
 800434c:	42a8      	cmp	r0, r5
 800434e:	d00b      	beq.n	8004368 <LL_TIM_OC_Init+0x204>
 8004350:	f505 6580 	add.w	r5, r5, #1024	@ 0x400
 8004354:	42a8      	cmp	r0, r5
 8004356:	d007      	beq.n	8004368 <LL_TIM_OC_Init+0x204>
 8004358:	f505 6580 	add.w	r5, r5, #1024	@ 0x400
 800435c:	42a8      	cmp	r0, r5
 800435e:	d003      	beq.n	8004368 <LL_TIM_OC_Init+0x204>
 8004360:	f505 6500 	add.w	r5, r5, #2048	@ 0x800
 8004364:	42a8      	cmp	r0, r5
 8004366:	d113      	bne.n	8004390 <LL_TIM_OC_Init+0x22c>
    MODIFY_REG(tmpccer, TIM_CCER_CC3NP, TIM_OCInitStruct->OCNPolarity << 10U);
 8004368:	6955      	ldr	r5, [r2, #20]
 800436a:	f423 6300 	bic.w	r3, r3, #2048	@ 0x800
 800436e:	ea43 2385 	orr.w	r3, r3, r5, lsl #10
    MODIFY_REG(tmpcr2, TIM_CR2_OIS3, TIM_OCInitStruct->OCIdleState << 4U);
 8004372:	6995      	ldr	r5, [r2, #24]
 8004374:	f421 5180 	bic.w	r1, r1, #4096	@ 0x1000
 8004378:	ea41 1105 	orr.w	r1, r1, r5, lsl #4
    MODIFY_REG(tmpccer, TIM_CCER_CC3NE, TIM_OCInitStruct->OCNState << 10U);
 800437c:	6895      	ldr	r5, [r2, #8]
 800437e:	f423 6380 	bic.w	r3, r3, #1024	@ 0x400
 8004382:	ea43 2385 	orr.w	r3, r3, r5, lsl #10
    MODIFY_REG(tmpcr2, TIM_CR2_OIS3N, TIM_OCInitStruct->OCNIdleState << 5U);
 8004386:	69d5      	ldr	r5, [r2, #28]
 8004388:	f421 5100 	bic.w	r1, r1, #8192	@ 0x2000
 800438c:	ea41 1145 	orr.w	r1, r1, r5, lsl #5
  LL_TIM_OC_SetCompareCH3(TIMx, TIM_OCInitStruct->CompareValue);
 8004390:	68d2      	ldr	r2, [r2, #12]
  LL_TIM_WriteReg(TIMx, CR2, tmpcr2);
 8004392:	6041      	str	r1, [r0, #4]
  LL_TIM_WriteReg(TIMx, CCMR2, tmpccmr2);
 8004394:	61c4      	str	r4, [r0, #28]
  WRITE_REG(TIMx->CCR3, CompareValue);
 8004396:	63c2      	str	r2, [r0, #60]	@ 0x3c
  LL_TIM_WriteReg(TIMx, CCER, tmpccer);
 8004398:	6203      	str	r3, [r0, #32]
      break;
 800439a:	e777      	b.n	800428c <LL_TIM_OC_Init+0x128>
  CLEAR_BIT(TIMx->CCER, TIM_CCER_CC2E);
 800439c:	6a03      	ldr	r3, [r0, #32]
  MODIFY_REG(tmpccer, TIM_CCER_CC2P, TIM_OCInitStruct->OCPolarity << 4U);
 800439e:	6915      	ldr	r5, [r2, #16]
  CLEAR_BIT(TIMx->CCER, TIM_CCER_CC2E);
 80043a0:	f023 0310 	bic.w	r3, r3, #16
 80043a4:	6203      	str	r3, [r0, #32]
  tmpccer =  LL_TIM_ReadReg(TIMx, CCER);
 80043a6:	6a03      	ldr	r3, [r0, #32]
  tmpcr2 = LL_TIM_ReadReg(TIMx, CR2);
 80043a8:	6841      	ldr	r1, [r0, #4]
  tmpccmr1 = LL_TIM_ReadReg(TIMx, CCMR1);
 80043aa:	6984      	ldr	r4, [r0, #24]
  MODIFY_REG(tmpccer, TIM_CCER_CC2P, TIM_OCInitStruct->OCPolarity << 4U);
 80043ac:	f023 0320 	bic.w	r3, r3, #32
 80043b0:	ea43 1305 	orr.w	r3, r3, r5, lsl #4
  MODIFY_REG(tmpccmr1, TIM_CCMR1_OC2M, TIM_OCInitStruct->OCMode << 8U);
 80043b4:	f024 7480 	bic.w	r4, r4, #16777216	@ 0x1000000
 80043b8:	6815      	ldr	r5, [r2, #0]
 80043ba:	f424 44e6 	bic.w	r4, r4, #29440	@ 0x7300
 80043be:	ea44 2405 	orr.w	r4, r4, r5, lsl #8
  MODIFY_REG(tmpccer, TIM_CCER_CC2E, TIM_OCInitStruct->OCState << 4U);
 80043c2:	6855      	ldr	r5, [r2, #4]
 80043c4:	f023 0310 	bic.w	r3, r3, #16
 80043c8:	ea43 1305 	orr.w	r3, r3, r5, lsl #4
  if (IS_TIM_BREAK_INSTANCE(TIMx))
 80043cc:	4d18      	ldr	r5, [pc, #96]	@ (8004430 <LL_TIM_OC_Init+0x2cc>)
 80043ce:	42a8      	cmp	r0, r5
 80043d0:	d013      	beq.n	80043fa <LL_TIM_OC_Init+0x296>
 80043d2:	f505 6500 	add.w	r5, r5, #2048	@ 0x800
 80043d6:	42a8      	cmp	r0, r5
 80043d8:	d00f      	beq.n	80043fa <LL_TIM_OC_Init+0x296>
 80043da:	f505 6540 	add.w	r5, r5, #3072	@ 0xc00
 80043de:	42a8      	cmp	r0, r5
 80043e0:	d00b      	beq.n	80043fa <LL_TIM_OC_Init+0x296>
 80043e2:	f505 6580 	add.w	r5, r5, #1024	@ 0x400
 80043e6:	42a8      	cmp	r0, r5
 80043e8:	d007      	beq.n	80043fa <LL_TIM_OC_Init+0x296>
 80043ea:	f505 6580 	add.w	r5, r5, #1024	@ 0x400
 80043ee:	42a8      	cmp	r0, r5
 80043f0:	d003      	beq.n	80043fa <LL_TIM_OC_Init+0x296>
 80043f2:	f505 6500 	add.w	r5, r5, #2048	@ 0x800
 80043f6:	42a8      	cmp	r0, r5
 80043f8:	d113      	bne.n	8004422 <LL_TIM_OC_Init+0x2be>
    MODIFY_REG(tmpccer, TIM_CCER_CC2NP, TIM_OCInitStruct->OCNPolarity << 6U);
 80043fa:	6955      	ldr	r5, [r2, #20]
 80043fc:	f023 0380 	bic.w	r3, r3, #128	@ 0x80
 8004400:	ea43 1385 	orr.w	r3, r3, r5, lsl #6
    MODIFY_REG(tmpcr2, TIM_CR2_OIS2, TIM_OCInitStruct->OCIdleState << 2U);
 8004404:	6995      	ldr	r5, [r2, #24]
 8004406:	f421 6180 	bic.w	r1, r1, #1024	@ 0x400
 800440a:	ea41 0185 	orr.w	r1, r1, r5, lsl #2
    MODIFY_REG(tmpccer, TIM_CCER_CC2NE, TIM_OCInitStruct->OCNState << 6U);
 800440e:	6895      	ldr	r5, [r2, #8]
 8004410:	f023 0340 	bic.w	r3, r3, #64	@ 0x40
 8004414:	ea43 1385 	orr.w	r3, r3, r5, lsl #6
    MODIFY_REG(tmpcr2, TIM_CR2_OIS2N, TIM_OCInitStruct->OCNIdleState << 3U);
 8004418:	69d5      	ldr	r5, [r2, #28]
 800441a:	f421 6100 	bic.w	r1, r1, #2048	@ 0x800
 800441e:	ea41 01c5 	orr.w	r1, r1, r5, lsl #3
  LL_TIM_OC_SetCompareCH2(TIMx, TIM_OCInitStruct->CompareValue);
 8004422:	68d2      	ldr	r2, [r2, #12]
  LL_TIM_WriteReg(TIMx, CR2, tmpcr2);
 8004424:	6041      	str	r1, [r0, #4]
  LL_TIM_WriteReg(TIMx, CCMR1, tmpccmr1);
 8004426:	6184      	str	r4, [r0, #24]
  WRITE_REG(TIMx->CCR2, CompareValue);
 8004428:	6382      	str	r2, [r0, #56]	@ 0x38
  LL_TIM_WriteReg(TIMx, CCER, tmpccer);
 800442a:	6203      	str	r3, [r0, #32]
      break;
 800442c:	e72e      	b.n	800428c <LL_TIM_OC_Init+0x128>
 800442e:	bf00      	nop
 8004430:	40012c00 	.word	0x40012c00
  CLEAR_BIT(TIMx->CCER, TIM_CCER_CC4E);
 8004434:	6a03      	ldr	r3, [r0, #32]
  MODIFY_REG(tmpccer, TIM_CCER_CC4E, TIM_OCInitStruct->OCState << 12U);
 8004436:	6855      	ldr	r5, [r2, #4]
  CLEAR_BIT(TIMx->CCER, TIM_CCER_CC4E);
 8004438:	f423 5380 	bic.w	r3, r3, #4096	@ 0x1000
 800443c:	6203      	str	r3, [r0, #32]
  tmpccer = LL_TIM_ReadReg(TIMx, CCER);
 800443e:	6a03      	ldr	r3, [r0, #32]
  tmpcr2 =  LL_TIM_ReadReg(TIMx, CR2);
 8004440:	6841      	ldr	r1, [r0, #4]
  tmpccmr2 = LL_TIM_ReadReg(TIMx, CCMR2);
 8004442:	69c4      	ldr	r4, [r0, #28]
  MODIFY_REG(tmpccmr2, TIM_CCMR2_OC4M, TIM_OCInitStruct->OCMode << 8U);
 8004444:	f024 7c80 	bic.w	ip, r4, #16777216	@ 0x1000000
  MODIFY_REG(tmpccer, TIM_CCER_CC4P, TIM_OCInitStruct->OCPolarity << 12U);
 8004448:	6914      	ldr	r4, [r2, #16]
 800444a:	f423 5300 	bic.w	r3, r3, #8192	@ 0x2000
 800444e:	ea43 3304 	orr.w	r3, r3, r4, lsl #12
  MODIFY_REG(tmpccer, TIM_CCER_CC4E, TIM_OCInitStruct->OCState << 12U);
 8004452:	f423 5380 	bic.w	r3, r3, #4096	@ 0x1000
 8004456:	ea43 3305 	orr.w	r3, r3, r5, lsl #12
  if (IS_TIM_BREAK_INSTANCE(TIMx))
 800445a:	4d1b      	ldr	r5, [pc, #108]	@ (80044c8 <LL_TIM_OC_Init+0x364>)
  MODIFY_REG(tmpccmr2, TIM_CCMR2_OC4M, TIM_OCInitStruct->OCMode << 8U);
 800445c:	6814      	ldr	r4, [r2, #0]
 800445e:	f42c 4ce6 	bic.w	ip, ip, #29440	@ 0x7300
  if (IS_TIM_BREAK_INSTANCE(TIMx))
 8004462:	42a8      	cmp	r0, r5
  MODIFY_REG(tmpccmr2, TIM_CCMR2_OC4M, TIM_OCInitStruct->OCMode << 8U);
 8004464:	ea4c 2404 	orr.w	r4, ip, r4, lsl #8
  if (IS_TIM_BREAK_INSTANCE(TIMx))
 8004468:	d013      	beq.n	8004492 <LL_TIM_OC_Init+0x32e>
 800446a:	f505 6500 	add.w	r5, r5, #2048	@ 0x800
 800446e:	42a8      	cmp	r0, r5
 8004470:	d00f      	beq.n	8004492 <LL_TIM_OC_Init+0x32e>
 8004472:	f505 6540 	add.w	r5, r5, #3072	@ 0xc00
 8004476:	42a8      	cmp	r0, r5
 8004478:	d00b      	beq.n	8004492 <LL_TIM_OC_Init+0x32e>
 800447a:	f505 6580 	add.w	r5, r5, #1024	@ 0x400
 800447e:	42a8      	cmp	r0, r5
 8004480:	d007      	beq.n	8004492 <LL_TIM_OC_Init+0x32e>
 8004482:	f505 6580 	add.w	r5, r5, #1024	@ 0x400
 8004486:	42a8      	cmp	r0, r5
 8004488:	d003      	beq.n	8004492 <LL_TIM_OC_Init+0x32e>
 800448a:	f505 6500 	add.w	r5, r5, #2048	@ 0x800
 800448e:	42a8      	cmp	r0, r5
 8004490:	d113      	bne.n	80044ba <LL_TIM_OC_Init+0x356>
    MODIFY_REG(tmpccer, TIM_CCER_CC4NP, TIM_OCInitStruct->OCNPolarity << 14U);
 8004492:	6955      	ldr	r5, [r2, #20]
 8004494:	f423 4300 	bic.w	r3, r3, #32768	@ 0x8000
 8004498:	ea43 3385 	orr.w	r3, r3, r5, lsl #14
    MODIFY_REG(tmpcr2, TIM_CR2_OIS4, TIM_OCInitStruct->OCIdleState << 6U);
 800449c:	6995      	ldr	r5, [r2, #24]
 800449e:	f421 4180 	bic.w	r1, r1, #16384	@ 0x4000
 80044a2:	ea41 1185 	orr.w	r1, r1, r5, lsl #6
    MODIFY_REG(tmpccer, TIM_CCER_CC4NE, TIM_OCInitStruct->OCNState << 14U);
 80044a6:	6895      	ldr	r5, [r2, #8]
 80044a8:	f423 4380 	bic.w	r3, r3, #16384	@ 0x4000
 80044ac:	ea43 3385 	orr.w	r3, r3, r5, lsl #14
    MODIFY_REG(tmpcr2, TIM_CR2_OIS4N, TIM_OCInitStruct->OCNIdleState << 7U);
 80044b0:	69d5      	ldr	r5, [r2, #28]
 80044b2:	f421 4100 	bic.w	r1, r1, #32768	@ 0x8000
 80044b6:	ea41 11c5 	orr.w	r1, r1, r5, lsl #7
  LL_TIM_OC_SetCompareCH4(TIMx, TIM_OCInitStruct->CompareValue);
 80044ba:	68d2      	ldr	r2, [r2, #12]
  LL_TIM_WriteReg(TIMx, CR2, tmpcr2);
 80044bc:	6041      	str	r1, [r0, #4]
  LL_TIM_WriteReg(TIMx, CCMR2, tmpccmr2);
 80044be:	61c4      	str	r4, [r0, #28]
  WRITE_REG(TIMx->CCR4, CompareValue);
 80044c0:	6402      	str	r2, [r0, #64]	@ 0x40
  LL_TIM_WriteReg(TIMx, CCER, tmpccer);
 80044c2:	6203      	str	r3, [r0, #32]
      break;
 80044c4:	e6e2      	b.n	800428c <LL_TIM_OC_Init+0x128>
 80044c6:	bf00      	nop
 80044c8:	40012c00 	.word	0x40012c00

080044cc <LL_USART_Init>:
  * @retval An ErrorStatus enumeration value:
  *          - SUCCESS: USART registers are initialized according to USART_InitStruct content
  *          - ERROR: Problem occurred during USART Registers initialization
  */
ErrorStatus LL_USART_Init(USART_TypeDef *USARTx, const LL_USART_InitTypeDef *USART_InitStruct)
{
 80044cc:	b538      	push	{r3, r4, r5, lr}
  return ((READ_BIT(USARTx->CR1, USART_CR1_UE) == (USART_CR1_UE)) ? 1UL : 0UL);
 80044ce:	6803      	ldr	r3, [r0, #0]
 80044d0:	07db      	lsls	r3, r3, #31
 80044d2:	d431      	bmi.n	8004538 <LL_USART_Init+0x6c>
     * - DataWidth:          USART_CR1_M bits according to USART_InitStruct->DataWidth value
     * - Parity:             USART_CR1_PCE, USART_CR1_PS bits according to USART_InitStruct->Parity value
     * - TransferDirection:  USART_CR1_TE, USART_CR1_RE bits according to USART_InitStruct->TransferDirection value
     * - Oversampling:       USART_CR1_OVER8 bit according to USART_InitStruct->OverSampling value.
     */
    MODIFY_REG(USARTx->CR1,
 80044d4:	4604      	mov	r4, r0
 80044d6:	e9d1 0204 	ldrd	r0, r2, [r1, #16]
 80044da:	688b      	ldr	r3, [r1, #8]
 80044dc:	460d      	mov	r5, r1
 80044de:	4303      	orrs	r3, r0
 80044e0:	4313      	orrs	r3, r2
 80044e2:	69ea      	ldr	r2, [r5, #28]
 80044e4:	6821      	ldr	r1, [r4, #0]
 80044e6:	4313      	orrs	r3, r2
 80044e8:	4a32      	ldr	r2, [pc, #200]	@ (80045b4 <LL_USART_Init+0xe8>)
 80044ea:	400a      	ands	r2, r1
 80044ec:	4313      	orrs	r3, r2
 80044ee:	6023      	str	r3, [r4, #0]
  MODIFY_REG(USARTx->CR2, USART_CR2_STOP, StopBits);
 80044f0:	6863      	ldr	r3, [r4, #4]
 80044f2:	68ea      	ldr	r2, [r5, #12]
  MODIFY_REG(USARTx->CR3, USART_CR3_RTSE | USART_CR3_CTSE, HardwareFlowControl);
 80044f4:	69a9      	ldr	r1, [r5, #24]
  MODIFY_REG(USARTx->CR2, USART_CR2_STOP, StopBits);
 80044f6:	f423 5340 	bic.w	r3, r3, #12288	@ 0x3000
 80044fa:	4313      	orrs	r3, r2
 80044fc:	6063      	str	r3, [r4, #4]
  MODIFY_REG(USARTx->CR3, USART_CR3_RTSE | USART_CR3_CTSE, HardwareFlowControl);
 80044fe:	68a3      	ldr	r3, [r4, #8]
    LL_USART_SetHWFlowCtrl(USARTx, USART_InitStruct->HardwareFlowControl);

    /*---------------------------- USART BRR Configuration ---------------------
     * Retrieve Clock frequency used for USART Peripheral
     */
    if (USARTx == USART1)
 8004500:	4a2d      	ldr	r2, [pc, #180]	@ (80045b8 <LL_USART_Init+0xec>)
 8004502:	f423 7340 	bic.w	r3, r3, #768	@ 0x300
 8004506:	430b      	orrs	r3, r1
 8004508:	4294      	cmp	r4, r2
 800450a:	60a3      	str	r3, [r4, #8]
 800450c:	d016      	beq.n	800453c <LL_USART_Init+0x70>
    {
      periphclk = LL_RCC_GetUSARTClockFreq(LL_RCC_USART1_CLKSOURCE);
    }
    else if (USARTx == USART2)
 800450e:	4b2b      	ldr	r3, [pc, #172]	@ (80045bc <LL_USART_Init+0xf0>)
 8004510:	429c      	cmp	r4, r3
 8004512:	d01c      	beq.n	800454e <LL_USART_Init+0x82>
    {
      periphclk = LL_RCC_GetUSARTClockFreq(LL_RCC_USART2_CLKSOURCE);
    }
#if defined(USART3)
    else if (USARTx == USART3)
 8004514:	4b2a      	ldr	r3, [pc, #168]	@ (80045c0 <LL_USART_Init+0xf4>)
 8004516:	429c      	cmp	r4, r3
 8004518:	d01d      	beq.n	8004556 <LL_USART_Init+0x8a>
    {
      periphclk = LL_RCC_GetUSARTClockFreq(LL_RCC_USART3_CLKSOURCE);
    }
#endif /* USART3 */
#if defined(UART4)
    else if (USARTx == UART4)
 800451a:	4b2a      	ldr	r3, [pc, #168]	@ (80045c4 <LL_USART_Init+0xf8>)
 800451c:	429c      	cmp	r4, r3
 800451e:	d037      	beq.n	8004590 <LL_USART_Init+0xc4>
    {
      periphclk = LL_RCC_GetUARTClockFreq(LL_RCC_UART4_CLKSOURCE);
    }
#endif /* UART4 */
#if defined(UART5)
    else if (USARTx == UART5)
 8004520:	4b29      	ldr	r3, [pc, #164]	@ (80045c8 <LL_USART_Init+0xfc>)
 8004522:	429c      	cmp	r4, r3
 8004524:	d02f      	beq.n	8004586 <LL_USART_Init+0xba>

    /*---------------------------- USART PRESC Configuration -----------------------
     * Configure USARTx PRESC (Prescaler) with parameters:
     * - PrescalerValue: USART_PRESC_PRESCALER bits according to USART_InitStruct->PrescalerValue value.
     */
    LL_USART_SetPrescaler(USARTx, USART_InitStruct->PrescalerValue);
 8004526:	682a      	ldr	r2, [r5, #0]
  ErrorStatus status = ERROR;
 8004528:	2001      	movs	r0, #1
  MODIFY_REG(USARTx->PRESC, USART_PRESC_PRESCALER, (uint16_t)PrescalerValue);
 800452a:	6ae3      	ldr	r3, [r4, #44]	@ 0x2c
 800452c:	b292      	uxth	r2, r2
 800452e:	f023 030f 	bic.w	r3, r3, #15
 8004532:	4313      	orrs	r3, r2
 8004534:	62e3      	str	r3, [r4, #44]	@ 0x2c
  }
  /* Endif (=> USART not in Disabled state => return ERROR) */

  return (status);
}
 8004536:	bd38      	pop	{r3, r4, r5, pc}
  ErrorStatus status = ERROR;
 8004538:	2001      	movs	r0, #1
}
 800453a:	bd38      	pop	{r3, r4, r5, pc}
      periphclk = LL_RCC_GetUSARTClockFreq(LL_RCC_USART1_CLKSOURCE);
 800453c:	2003      	movs	r0, #3
 800453e:	f7ff fc63 	bl	8003e08 <LL_RCC_GetUSARTClockFreq>
                           USART_InitStruct->PrescalerValue,
 8004542:	682a      	ldr	r2, [r5, #0]
    if ((periphclk != LL_RCC_PERIPH_FREQUENCY_NO)
 8004544:	b108      	cbz	r0, 800454a <LL_USART_Init+0x7e>
        && (USART_InitStruct->BaudRate != 0U))
 8004546:	6869      	ldr	r1, [r5, #4]
 8004548:	b949      	cbnz	r1, 800455e <LL_USART_Init+0x92>
  ErrorStatus status = ERROR;
 800454a:	2001      	movs	r0, #1
 800454c:	e7ed      	b.n	800452a <LL_USART_Init+0x5e>
      periphclk = LL_RCC_GetUSARTClockFreq(LL_RCC_USART2_CLKSOURCE);
 800454e:	200c      	movs	r0, #12
 8004550:	f7ff fc5a 	bl	8003e08 <LL_RCC_GetUSARTClockFreq>
 8004554:	e7f5      	b.n	8004542 <LL_USART_Init+0x76>
      periphclk = LL_RCC_GetUSARTClockFreq(LL_RCC_USART3_CLKSOURCE);
 8004556:	2030      	movs	r0, #48	@ 0x30
 8004558:	f7ff fc56 	bl	8003e08 <LL_RCC_GetUSARTClockFreq>
 800455c:	e7f1      	b.n	8004542 <LL_USART_Init+0x76>
  if (PrescalerValue > LL_USART_PRESCALER_DIV256)
 800455e:	2a0b      	cmp	r2, #11
 8004560:	d80f      	bhi.n	8004582 <LL_USART_Init+0xb6>
  else if (OverSampling == LL_USART_OVERSAMPLING_8)
 8004562:	69ed      	ldr	r5, [r5, #28]
    usartdiv = (uint16_t)(__LL_USART_DIV_SAMPLING8(PeriphClk, (uint8_t)PrescalerValue, BaudRate));
 8004564:	4b19      	ldr	r3, [pc, #100]	@ (80045cc <LL_USART_Init+0x100>)
  else if (OverSampling == LL_USART_OVERSAMPLING_8)
 8004566:	f5b5 4f00 	cmp.w	r5, #32768	@ 0x8000
    usartdiv = (uint16_t)(__LL_USART_DIV_SAMPLING8(PeriphClk, (uint8_t)PrescalerValue, BaudRate));
 800456a:	f853 3022 	ldr.w	r3, [r3, r2, lsl #2]
 800456e:	fbb0 f0f3 	udiv	r0, r0, r3
 8004572:	ea4f 0351 	mov.w	r3, r1, lsr #1
  else if (OverSampling == LL_USART_OVERSAMPLING_8)
 8004576:	d00f      	beq.n	8004598 <LL_USART_Init+0xcc>
    USARTx->BRR = (uint16_t)(__LL_USART_DIV_SAMPLING16(PeriphClk, (uint8_t)PrescalerValue, BaudRate));
 8004578:	4403      	add	r3, r0
 800457a:	fbb3 f3f1 	udiv	r3, r3, r1
 800457e:	b29b      	uxth	r3, r3
 8004580:	60e3      	str	r3, [r4, #12]
      status = SUCCESS;
 8004582:	2000      	movs	r0, #0
 8004584:	e7d1      	b.n	800452a <LL_USART_Init+0x5e>
      periphclk = LL_RCC_GetUARTClockFreq(LL_RCC_UART5_CLKSOURCE);
 8004586:	f44f 7040 	mov.w	r0, #768	@ 0x300
 800458a:	f7ff fcb3 	bl	8003ef4 <LL_RCC_GetUARTClockFreq>
 800458e:	e7d8      	b.n	8004542 <LL_USART_Init+0x76>
      periphclk = LL_RCC_GetUARTClockFreq(LL_RCC_UART4_CLKSOURCE);
 8004590:	20c0      	movs	r0, #192	@ 0xc0
 8004592:	f7ff fcaf 	bl	8003ef4 <LL_RCC_GetUARTClockFreq>
 8004596:	e7d4      	b.n	8004542 <LL_USART_Init+0x76>
    usartdiv = (uint16_t)(__LL_USART_DIV_SAMPLING8(PeriphClk, (uint8_t)PrescalerValue, BaudRate));
 8004598:	eb03 0340 	add.w	r3, r3, r0, lsl #1
    brrtemp = usartdiv & 0xFFF0U;
 800459c:	f64f 70f0 	movw	r0, #65520	@ 0xfff0
    usartdiv = (uint16_t)(__LL_USART_DIV_SAMPLING8(PeriphClk, (uint8_t)PrescalerValue, BaudRate));
 80045a0:	fbb3 f3f1 	udiv	r3, r3, r1
    brrtemp = usartdiv & 0xFFF0U;
 80045a4:	ea03 0100 	and.w	r1, r3, r0
    brrtemp |= (uint16_t)((usartdiv & (uint16_t)0x000FU) >> 1U);
 80045a8:	f3c3 0342 	ubfx	r3, r3, #1, #3
 80045ac:	430b      	orrs	r3, r1
    USARTx->BRR = brrtemp;
 80045ae:	60e3      	str	r3, [r4, #12]
 80045b0:	e7e7      	b.n	8004582 <LL_USART_Init+0xb6>
 80045b2:	bf00      	nop
 80045b4:	efff69f3 	.word	0xefff69f3
 80045b8:	40013800 	.word	0x40013800
 80045bc:	40004400 	.word	0x40004400
 80045c0:	40004800 	.word	0x40004800
 80045c4:	40004c00 	.word	0x40004c00
 80045c8:	40005000 	.word	0x40005000
 80045cc:	08007f9c 	.word	0x08007f9c

080045d0 <LL_Init1msTick>:
  * @retval None
  */
__STATIC_INLINE void LL_InitTick(uint32_t HCLKFrequency, uint32_t Ticks)
{
  /* Configure the SysTick to have interrupt in 1ms time base */
  SysTick->LOAD  = (uint32_t)((HCLKFrequency / Ticks) - 1UL);  /* set reload register */
 80045d0:	4b06      	ldr	r3, [pc, #24]	@ (80045ec <LL_Init1msTick+0x1c>)
 80045d2:	fba3 2300 	umull	r2, r3, r3, r0
 80045d6:	099b      	lsrs	r3, r3, #6
 80045d8:	f04f 22e0 	mov.w	r2, #3758153728	@ 0xe000e000
 80045dc:	3b01      	subs	r3, #1
  SysTick->VAL   = 0UL;                                       /* Load the SysTick Counter Value */
 80045de:	2000      	movs	r0, #0
  SysTick->CTRL  = SysTick_CTRL_CLKSOURCE_Msk |
 80045e0:	2105      	movs	r1, #5
  SysTick->LOAD  = (uint32_t)((HCLKFrequency / Ticks) - 1UL);  /* set reload register */
 80045e2:	6153      	str	r3, [r2, #20]
  SysTick->VAL   = 0UL;                                       /* Load the SysTick Counter Value */
 80045e4:	6190      	str	r0, [r2, #24]
  SysTick->CTRL  = SysTick_CTRL_CLKSOURCE_Msk |
 80045e6:	6111      	str	r1, [r2, #16]
  */
void LL_Init1msTick(uint32_t HCLKFrequency)
{
  /* Use frequency provided in argument */
  LL_InitTick(HCLKFrequency, 1000U);
}
 80045e8:	4770      	bx	lr
 80045ea:	bf00      	nop
 80045ec:	10624dd3 	.word	0x10624dd3

080045f0 <LL_mDelay>:
  * @param  Delay specifies the delay time length, in milliseconds.
  * @retval None
  */
void LL_mDelay(uint32_t Delay)
{
  __IO uint32_t  tmp = SysTick->CTRL;  /* Clear the COUNTFLAG first */
 80045f0:	f04f 23e0 	mov.w	r3, #3758153728	@ 0xe000e000
{
 80045f4:	b082      	sub	sp, #8
  __IO uint32_t  tmp = SysTick->CTRL;  /* Clear the COUNTFLAG first */
 80045f6:	691b      	ldr	r3, [r3, #16]
 80045f8:	9301      	str	r3, [sp, #4]
  uint32_t tmpDelay; /* MISRAC2012-Rule-17.8 */
  /* Add this code to indicate that local variable is not used */
  ((void)tmp);
  tmpDelay = Delay;
  /* Add a period to guaranty minimum wait */
  if(tmpDelay < LL_MAX_DELAY)
 80045fa:	1c42      	adds	r2, r0, #1
  {
    tmpDelay++;
 80045fc:	bf18      	it	ne
 80045fe:	3001      	addne	r0, #1
  ((void)tmp);
 8004600:	9b01      	ldr	r3, [sp, #4]
  }

  while (tmpDelay != 0U)
  {
    if((SysTick->CTRL & SysTick_CTRL_COUNTFLAG_Msk) != 0U)
 8004602:	f04f 22e0 	mov.w	r2, #3758153728	@ 0xe000e000
  while (tmpDelay != 0U)
 8004606:	b128      	cbz	r0, 8004614 <LL_mDelay+0x24>
    if((SysTick->CTRL & SysTick_CTRL_COUNTFLAG_Msk) != 0U)
 8004608:	6913      	ldr	r3, [r2, #16]
 800460a:	03db      	lsls	r3, r3, #15
 800460c:	d5fc      	bpl.n	8004608 <LL_mDelay+0x18>
    {
      tmpDelay--;
 800460e:	3801      	subs	r0, #1
  while (tmpDelay != 0U)
 8004610:	2800      	cmp	r0, #0
 8004612:	d1f9      	bne.n	8004608 <LL_mDelay+0x18>
    }
  }
}
 8004614:	b002      	add	sp, #8
 8004616:	4770      	bx	lr

08004618 <LL_SetSystemCoreClock>:
  * @retval None
  */
void LL_SetSystemCoreClock(uint32_t HCLKFrequency)
{
  /* HCLK clock frequency */
  SystemCoreClock = HCLKFrequency;
 8004618:	4b01      	ldr	r3, [pc, #4]	@ (8004620 <LL_SetSystemCoreClock+0x8>)
 800461a:	6018      	str	r0, [r3, #0]
}
 800461c:	4770      	bx	lr
 800461e:	bf00      	nop
 8004620:	20000028 	.word	0x20000028

08004624 <Add_Float32_Update>:
/** Update                                                                                                           **/
/**********************************************************************************************************************/
void Add_Float32_Update(ADD_FLOAT32 *pTAdd_Float32)
{
/* USERCODE-BEGIN:UpdateFnc                                                                                           */
	OUT = IN1 + IN2;
 8004624:	e9d0 2301 	ldrd	r2, r3, [r0, #4]
 8004628:	edd2 7a00 	vldr	s15, [r2]
 800462c:	ed93 7a00 	vldr	s14, [r3]
 8004630:	ee77 7a87 	vadd.f32	s15, s15, s14
 8004634:	edc0 7a03 	vstr	s15, [r0, #12]

/* USERCODE-END:UpdateFnc                                                                                             */

}
 8004638:	4770      	bx	lr
 800463a:	bf00      	nop

0800463c <Add_Float32_Init>:
/** Initialization                                                                                                   **/
/**********************************************************************************************************************/
void Add_Float32_Init(ADD_FLOAT32 *pTAdd_Float32)
{
    pTAdd_Float32->ID = ADD_FLOAT32_ID;
    pTAdd_Float32->Out = 0;
 800463c:	2300      	movs	r3, #0
    pTAdd_Float32->ID = ADD_FLOAT32_ID;
 800463e:	f241 3263 	movw	r2, #4963	@ 0x1363
 8004642:	8002      	strh	r2, [r0, #0]
    pTAdd_Float32->Out = 0;
 8004644:	60c3      	str	r3, [r0, #12]
/* USERCODE-BEGIN:InitFnc                                                                                             */
/* USERCODE-END:InitFnc                                                                                               */
}
 8004646:	4770      	bx	lr

08004648 <Add_Float32_GetAddress>:
/**********************************************************************************************************************/
#if !defined(ADD_FLOAT32_ISLINKED)
void* Add_Float32_GetAddress(const ADD_FLOAT32* block, uint16 elementId)
{
    void* addr;
    switch (elementId)
 8004648:	2902      	cmp	r1, #2
 800464a:	d007      	beq.n	800465c <Add_Float32_GetAddress+0x14>
 800464c:	2903      	cmp	r1, #3
 800464e:	d003      	beq.n	8004658 <Add_Float32_GetAddress+0x10>
 8004650:	2901      	cmp	r1, #1
 8004652:	d105      	bne.n	8004660 <Add_Float32_GetAddress+0x18>
    {
        case 1:
            addr = (void*)block->In1;
 8004654:	6840      	ldr	r0, [r0, #4]
            break;
 8004656:	4770      	bx	lr
        case 2:
            addr = (void*)block->In2;
            break;
        case 3:
            addr = (void*)&block->Out;
 8004658:	300c      	adds	r0, #12
            break;
 800465a:	4770      	bx	lr
            addr = (void*)block->In2;
 800465c:	6880      	ldr	r0, [r0, #8]
            break;
 800465e:	4770      	bx	lr
    switch (elementId)
 8004660:	2000      	movs	r0, #0
        default:
            addr = (void*)0;
            break;
    }
    return (addr);
}
 8004662:	4770      	bx	lr

08004664 <And_Bool_Update>:
/** Update                                                                                                           **/
/**********************************************************************************************************************/
void And_Bool_Update(AND_BOOL *pTAnd_Bool)
{
/* USERCODE-BEGIN:UpdateFnc                                                                                           */
	OUT = IN1 && IN2;
 8004664:	6843      	ldr	r3, [r0, #4]
 8004666:	781b      	ldrb	r3, [r3, #0]
 8004668:	b10b      	cbz	r3, 800466e <And_Bool_Update+0xa>
 800466a:	6883      	ldr	r3, [r0, #8]
 800466c:	781b      	ldrb	r3, [r3, #0]
 800466e:	7303      	strb	r3, [r0, #12]

/* USERCODE-END:UpdateFnc                                                                                             */

}
 8004670:	4770      	bx	lr
 8004672:	bf00      	nop

08004674 <And_Bool_Init>:
/**********************************************************************************************************************/
/** Initialization                                                                                                   **/
/**********************************************************************************************************************/
void And_Bool_Init(AND_BOOL *pTAnd_Bool)
{
    pTAnd_Bool->ID = AND_BOOL_ID;
 8004674:	22ff      	movs	r2, #255	@ 0xff
    pTAnd_Bool->Out = 0;
 8004676:	2300      	movs	r3, #0
    pTAnd_Bool->ID = AND_BOOL_ID;
 8004678:	8002      	strh	r2, [r0, #0]
    pTAnd_Bool->Out = 0;
 800467a:	7303      	strb	r3, [r0, #12]
/* USERCODE-BEGIN:InitFnc                                                                                             */
/* USERCODE-END:InitFnc                                                                                               */
}
 800467c:	4770      	bx	lr
 800467e:	bf00      	nop

08004680 <And_Bool_GetAddress>:
/**********************************************************************************************************************/
#if !defined(AND_BOOL_ISLINKED)
void* And_Bool_GetAddress(const AND_BOOL* block, uint16 elementId)
{
    void* addr;
    switch (elementId)
 8004680:	2902      	cmp	r1, #2
 8004682:	d007      	beq.n	8004694 <And_Bool_GetAddress+0x14>
 8004684:	2903      	cmp	r1, #3
 8004686:	d003      	beq.n	8004690 <And_Bool_GetAddress+0x10>
 8004688:	2901      	cmp	r1, #1
 800468a:	d105      	bne.n	8004698 <And_Bool_GetAddress+0x18>
    {
        case 1:
            addr = (void*)block->In1;
 800468c:	6840      	ldr	r0, [r0, #4]
            break;
 800468e:	4770      	bx	lr
        case 2:
            addr = (void*)block->In2;
            break;
        case 3:
            addr = (void*)&block->Out;
 8004690:	300c      	adds	r0, #12
            break;
 8004692:	4770      	bx	lr
            addr = (void*)block->In2;
 8004694:	6880      	ldr	r0, [r0, #8]
            break;
 8004696:	4770      	bx	lr
    switch (elementId)
 8004698:	2000      	movs	r0, #0
        default:
            addr = (void*)0;
            break;
    }
    return (addr);
}
 800469a:	4770      	bx	lr

0800469c <AutoSwitch_Float32_Update>:
/** Update                                                                                                           **/
/**********************************************************************************************************************/
void AutoSwitch_Float32_Update(AUTOSWITCH_FLOAT32 *pTAutoSwitch_Float32)
{
/* USERCODE-BEGIN:UpdateFnc                                                                                           */
    if (SWITCH >= THRESH_UP)
 800469c:	6883      	ldr	r3, [r0, #8]
 800469e:	ed90 7a05 	vldr	s14, [r0, #20]
 80046a2:	edd3 7a00 	vldr	s15, [r3]
 80046a6:	eef4 7ac7 	vcmpe.f32	s15, s14
 80046aa:	eef1 fa10 	vmrs	APSR_nzcv, fpscr
 80046ae:	db04      	blt.n	80046ba <AutoSwitch_Float32_Update+0x1e>
    {
        /* positive crossing of upper threshold level -> change hysteresis state */
        STATUS = &IN1;
 80046b0:	6843      	ldr	r3, [r0, #4]
 80046b2:	61c3      	str	r3, [r0, #28]
    }
    /* else: no change in hysteresis state */


    /* set output according to hysteresis status */
    OUT = *STATUS;
 80046b4:	681b      	ldr	r3, [r3, #0]
 80046b6:	6103      	str	r3, [r0, #16]

/* USERCODE-END:UpdateFnc                                                                                             */

}
 80046b8:	4770      	bx	lr
    else if (SWITCH < THRESH_DOWN)
 80046ba:	ed90 7a06 	vldr	s14, [r0, #24]
 80046be:	eef4 7ac7 	vcmpe.f32	s15, s14
 80046c2:	eef1 fa10 	vmrs	APSR_nzcv, fpscr
        STATUS = &IN3;
 80046c6:	bf4a      	itet	mi
 80046c8:	68c3      	ldrmi	r3, [r0, #12]
    OUT = *STATUS;
 80046ca:	69c3      	ldrpl	r3, [r0, #28]
        STATUS = &IN3;
 80046cc:	61c3      	strmi	r3, [r0, #28]
    OUT = *STATUS;
 80046ce:	681b      	ldr	r3, [r3, #0]
 80046d0:	6103      	str	r3, [r0, #16]
}
 80046d2:	4770      	bx	lr

080046d4 <AutoSwitch_Float32_Init>:
void AutoSwitch_Float32_Init(AUTOSWITCH_FLOAT32 *pTAutoSwitch_Float32)
{
    pTAutoSwitch_Float32->ID = AUTOSWITCH_FLOAT32_ID;
    pTAutoSwitch_Float32->Out = 0;
/* USERCODE-BEGIN:InitFnc                                                                                             */
    STATUS = &IN3;
 80046d4:	68c3      	ldr	r3, [r0, #12]
 80046d6:	61c3      	str	r3, [r0, #28]
    pTAutoSwitch_Float32->Out = 0;
 80046d8:	2200      	movs	r2, #0
    pTAutoSwitch_Float32->ID = AUTOSWITCH_FLOAT32_ID;
 80046da:	2183      	movs	r1, #131	@ 0x83
 80046dc:	8001      	strh	r1, [r0, #0]
    pTAutoSwitch_Float32->Out = 0;
 80046de:	6102      	str	r2, [r0, #16]

/* USERCODE-END:InitFnc                                                                                               */
}
 80046e0:	4770      	bx	lr
 80046e2:	bf00      	nop

080046e4 <AutoSwitch_Float32_Load>:
/** Load block data                                                                                                  **/
/**********************************************************************************************************************/
uint8 AutoSwitch_Float32_Load(const AUTOSWITCH_FLOAT32 *pTAutoSwitch_Float32, uint8 data[], uint16 *dataLength, uint16 maxSize)
{
    uint8 error = (uint8)0;
    if ((uint16)8 > maxSize)
 80046e4:	2b07      	cmp	r3, #7
 80046e6:	d919      	bls.n	800471c <AutoSwitch_Float32_Load+0x38>
    {
        error = (uint8)1;
    }
    else
    {
        data[0] = (uint8)((*(uint32*)&(pTAutoSwitch_Float32->Thresh_up)) & 0x000000FF);
 80046e8:	6943      	ldr	r3, [r0, #20]
 80046ea:	700b      	strb	r3, [r1, #0]
        data[1] = (uint8)((*(uint32*)&(pTAutoSwitch_Float32->Thresh_up) >> 8) & 0x000000FF);
 80046ec:	6943      	ldr	r3, [r0, #20]
        data[3] = (uint8)((*(uint32*)&(pTAutoSwitch_Float32->Thresh_up) >> 24) & 0x000000FF);
        data[4] = (uint8)((*(uint32*)&(pTAutoSwitch_Float32->Thresh_down)) & 0x000000FF);
        data[5] = (uint8)((*(uint32*)&(pTAutoSwitch_Float32->Thresh_down) >> 8) & 0x000000FF);
        data[6] = (uint8)((*(uint32*)&(pTAutoSwitch_Float32->Thresh_down) >> 16) & 0x000000FF);
        data[7] = (uint8)((*(uint32*)&(pTAutoSwitch_Float32->Thresh_down) >> 24) & 0x000000FF);
        *dataLength = (uint16)8;
 80046ee:	f04f 0c08 	mov.w	ip, #8
        data[1] = (uint8)((*(uint32*)&(pTAutoSwitch_Float32->Thresh_up) >> 8) & 0x000000FF);
 80046f2:	fa23 f30c 	lsr.w	r3, r3, ip
 80046f6:	704b      	strb	r3, [r1, #1]
        data[2] = (uint8)((*(uint32*)&(pTAutoSwitch_Float32->Thresh_up) >> 16) & 0x000000FF);
 80046f8:	8ac3      	ldrh	r3, [r0, #22]
 80046fa:	708b      	strb	r3, [r1, #2]
        data[3] = (uint8)((*(uint32*)&(pTAutoSwitch_Float32->Thresh_up) >> 24) & 0x000000FF);
 80046fc:	7dc3      	ldrb	r3, [r0, #23]
 80046fe:	70cb      	strb	r3, [r1, #3]
        data[4] = (uint8)((*(uint32*)&(pTAutoSwitch_Float32->Thresh_down)) & 0x000000FF);
 8004700:	6983      	ldr	r3, [r0, #24]
 8004702:	710b      	strb	r3, [r1, #4]
        data[5] = (uint8)((*(uint32*)&(pTAutoSwitch_Float32->Thresh_down) >> 8) & 0x000000FF);
 8004704:	6983      	ldr	r3, [r0, #24]
 8004706:	fa23 f30c 	lsr.w	r3, r3, ip
 800470a:	714b      	strb	r3, [r1, #5]
        data[6] = (uint8)((*(uint32*)&(pTAutoSwitch_Float32->Thresh_down) >> 16) & 0x000000FF);
 800470c:	8b43      	ldrh	r3, [r0, #26]
 800470e:	718b      	strb	r3, [r1, #6]
        data[7] = (uint8)((*(uint32*)&(pTAutoSwitch_Float32->Thresh_down) >> 24) & 0x000000FF);
 8004710:	7ec3      	ldrb	r3, [r0, #27]
 8004712:	71cb      	strb	r3, [r1, #7]
    uint8 error = (uint8)0;
 8004714:	2000      	movs	r0, #0
        *dataLength = (uint16)8;
 8004716:	f8a2 c000 	strh.w	ip, [r2]
 800471a:	4770      	bx	lr
        error = (uint8)1;
 800471c:	2001      	movs	r0, #1
/* USERCODE-BEGIN:LoadFnc                                                                                             */
/* USERCODE-END:LoadFnc                                                                                               */
    }
    return (error);
}
 800471e:	4770      	bx	lr

08004720 <AutoSwitch_Float32_Save>:
uint8 AutoSwitch_Float32_Save(AUTOSWITCH_FLOAT32 *pTAutoSwitch_Float32, const uint8 data[], uint16 dataLength)
{
    uint8 error;
    uint32 tmp32;

    if (dataLength != (uint16)8)
 8004720:	2a08      	cmp	r2, #8
{
 8004722:	4603      	mov	r3, r0
    if (dataLength != (uint16)8)
 8004724:	d001      	beq.n	800472a <AutoSwitch_Float32_Save+0xa>
    {
        error = (uint8)1;
 8004726:	2001      	movs	r0, #1
        error = (uint8)0;
/* USERCODE-BEGIN:SaveFnc                                                                                             */
/* USERCODE-END:SaveFnc                                                                                               */
    }
    return (error);
}
 8004728:	4770      	bx	lr
        pTAutoSwitch_Float32->Thresh_up = (float32)(*(float32*)&tmp32);
 800472a:	680a      	ldr	r2, [r1, #0]
 800472c:	615a      	str	r2, [r3, #20]
        pTAutoSwitch_Float32->Thresh_down = (float32)(*(float32*)&tmp32);
 800472e:	684a      	ldr	r2, [r1, #4]
 8004730:	619a      	str	r2, [r3, #24]
        error = (uint8)0;
 8004732:	2000      	movs	r0, #0
 8004734:	4770      	bx	lr
 8004736:	bf00      	nop

08004738 <AutoSwitch_Float32_GetAddress>:
/**********************************************************************************************************************/
#if !defined(AUTOSWITCH_FLOAT32_ISLINKED)
void* AutoSwitch_Float32_GetAddress(const AUTOSWITCH_FLOAT32* block, uint16 elementId)
{
    void* addr;
    switch (elementId)
 8004738:	3901      	subs	r1, #1
 800473a:	2903      	cmp	r1, #3
 800473c:	d80b      	bhi.n	8004756 <AutoSwitch_Float32_GetAddress+0x1e>
 800473e:	e8df f001 	tbb	[pc, r1]
 8004742:	0608      	.short	0x0608
 8004744:	0204      	.short	0x0204
            break;
        case 3:
            addr = (void*)block->In3;
            break;
        case 4:
            addr = (void*)&block->Out;
 8004746:	3010      	adds	r0, #16
            break;
 8004748:	4770      	bx	lr
            addr = (void*)block->In3;
 800474a:	68c0      	ldr	r0, [r0, #12]
            break;
 800474c:	4770      	bx	lr
            addr = (void*)block->Switch;
 800474e:	6880      	ldr	r0, [r0, #8]
            break;
 8004750:	4770      	bx	lr
            addr = (void*)block->In1;
 8004752:	6840      	ldr	r0, [r0, #4]
            break;
 8004754:	4770      	bx	lr
    switch (elementId)
 8004756:	2000      	movs	r0, #0
        default:
            addr = (void*)0;
            break;
    }
    return (addr);
}
 8004758:	4770      	bx	lr
 800475a:	bf00      	nop

0800475c <Constant_Bool_Init>:
void Constant_Bool_Init(CONSTANT_BOOL *pTConstant_Bool)
{
    pTConstant_Bool->ID = CONSTANT_BOOL_ID;
    pTConstant_Bool->Out = 0;
/* USERCODE-BEGIN:InitFnc                                                                                             */
     OUT = VALUE;
 800475c:	78c3      	ldrb	r3, [r0, #3]
 800475e:	7083      	strb	r3, [r0, #2]
    pTConstant_Bool->ID = CONSTANT_BOOL_ID;
 8004760:	223f      	movs	r2, #63	@ 0x3f
 8004762:	8002      	strh	r2, [r0, #0]
/* USERCODE-END:InitFnc                                                                                               */
}
 8004764:	4770      	bx	lr
 8004766:	bf00      	nop

08004768 <Constant_Bool_Load>:
/** Load block data                                                                                                  **/
/**********************************************************************************************************************/
uint8 Constant_Bool_Load(const CONSTANT_BOOL *pTConstant_Bool, uint8 data[], uint16 *dataLength, uint16 maxSize)
{
    uint8 error = (uint8)0;
    if ((uint16)1 > maxSize)
 8004768:	b12b      	cbz	r3, 8004776 <Constant_Bool_Load+0xe>
    {
        error = (uint8)1;
    }
    else
    {
        data[0] = (uint8)pTConstant_Bool->K;
 800476a:	78c0      	ldrb	r0, [r0, #3]
 800476c:	7008      	strb	r0, [r1, #0]
        *dataLength = (uint16)1;
 800476e:	2301      	movs	r3, #1
    uint8 error = (uint8)0;
 8004770:	2000      	movs	r0, #0
        *dataLength = (uint16)1;
 8004772:	8013      	strh	r3, [r2, #0]
 8004774:	4770      	bx	lr
        error = (uint8)1;
 8004776:	2001      	movs	r0, #1
/* USERCODE-BEGIN:LoadFnc                                                                                             */
/* USERCODE-END:LoadFnc                                                                                               */
    }
    return (error);
}
 8004778:	4770      	bx	lr
 800477a:	bf00      	nop

0800477c <Constant_Bool_Save>:
/**********************************************************************************************************************/
uint8 Constant_Bool_Save(CONSTANT_BOOL *pTConstant_Bool, const uint8 data[], uint16 dataLength)
{
    uint8 error;

    if (dataLength != (uint16)1)
 800477c:	2a01      	cmp	r2, #1
 800477e:	d001      	beq.n	8004784 <Constant_Bool_Save+0x8>
    {
        error = (uint8)1;
 8004780:	2001      	movs	r0, #1
/* USERCODE-BEGIN:SaveFnc                                                                                             */
          OUT = VALUE;
/* USERCODE-END:SaveFnc                                                                                               */
    }
    return (error);
}
 8004782:	4770      	bx	lr
        pTConstant_Bool->K = ((uint8)data[0]);
 8004784:	780b      	ldrb	r3, [r1, #0]
 8004786:	3b00      	subs	r3, #0
 8004788:	bf18      	it	ne
 800478a:	2301      	movne	r3, #1
          OUT = VALUE;
 800478c:	f04f 0200 	mov.w	r2, #0
 8004790:	f363 0207 	bfi	r2, r3, #0, #8
 8004794:	f363 220f 	bfi	r2, r3, #8, #8
 8004798:	8042      	strh	r2, [r0, #2]
        error = (uint8)0;
 800479a:	2000      	movs	r0, #0
 800479c:	4770      	bx	lr
 800479e:	bf00      	nop

080047a0 <Constant_Bool_GetAddress>:
/**********************************************************************************************************************/
#if !defined(CONSTANT_BOOL_ISLINKED)
void* Constant_Bool_GetAddress(const CONSTANT_BOOL* block, uint16 elementId)
{
    void* addr;
    switch (elementId)
 80047a0:	2901      	cmp	r1, #1
    {
        case 1:
            addr = (void*)&block->Out;
 80047a2:	bf0c      	ite	eq
 80047a4:	3002      	addeq	r0, #2
            break;
        default:
            addr = (void*)0;
 80047a6:	2000      	movne	r0, #0
            break;
    }
    return (addr);
}
 80047a8:	4770      	bx	lr
 80047aa:	bf00      	nop

080047ac <Constant_Float32_Init>:
void Constant_Float32_Init(CONSTANT_FLOAT32 *pTConstant_Float32)
{
    pTConstant_Float32->ID = CONSTANT_FLOAT32_ID;
    pTConstant_Float32->Out = 0;
/* USERCODE-BEGIN:InitFnc                                                                                             */
     OUT = VALUE;
 80047ac:	6883      	ldr	r3, [r0, #8]
 80047ae:	6043      	str	r3, [r0, #4]
    pTConstant_Float32->ID = CONSTANT_FLOAT32_ID;
 80047b0:	2233      	movs	r2, #51	@ 0x33
 80047b2:	8002      	strh	r2, [r0, #0]
/* USERCODE-END:InitFnc                                                                                               */
}
 80047b4:	4770      	bx	lr
 80047b6:	bf00      	nop

080047b8 <Constant_Float32_Load>:
/** Load block data                                                                                                  **/
/**********************************************************************************************************************/
uint8 Constant_Float32_Load(const CONSTANT_FLOAT32 *pTConstant_Float32, uint8 data[], uint16 *dataLength, uint16 maxSize)
{
    uint8 error = (uint8)0;
    if ((uint16)4 > maxSize)
 80047b8:	2b03      	cmp	r3, #3
 80047ba:	d90e      	bls.n	80047da <Constant_Float32_Load+0x22>
    {
        error = (uint8)1;
    }
    else
    {
        data[0] = (uint8)((*(uint32*)&(pTConstant_Float32->K)) & 0x000000FF);
 80047bc:	6883      	ldr	r3, [r0, #8]
 80047be:	700b      	strb	r3, [r1, #0]
        data[1] = (uint8)((*(uint32*)&(pTConstant_Float32->K) >> 8) & 0x000000FF);
 80047c0:	6883      	ldr	r3, [r0, #8]
 80047c2:	0a1b      	lsrs	r3, r3, #8
 80047c4:	704b      	strb	r3, [r1, #1]
        data[2] = (uint8)((*(uint32*)&(pTConstant_Float32->K) >> 16) & 0x000000FF);
 80047c6:	8943      	ldrh	r3, [r0, #10]
 80047c8:	708b      	strb	r3, [r1, #2]
        data[3] = (uint8)((*(uint32*)&(pTConstant_Float32->K) >> 24) & 0x000000FF);
 80047ca:	7ac3      	ldrb	r3, [r0, #11]
 80047cc:	70cb      	strb	r3, [r1, #3]
        *dataLength = (uint16)4;
 80047ce:	f04f 0c04 	mov.w	ip, #4
    uint8 error = (uint8)0;
 80047d2:	2000      	movs	r0, #0
        *dataLength = (uint16)4;
 80047d4:	f8a2 c000 	strh.w	ip, [r2]
 80047d8:	4770      	bx	lr
        error = (uint8)1;
 80047da:	2001      	movs	r0, #1
/* USERCODE-BEGIN:LoadFnc                                                                                             */
/* USERCODE-END:LoadFnc                                                                                               */
    }
    return (error);
}
 80047dc:	4770      	bx	lr
 80047de:	bf00      	nop

080047e0 <Constant_Float32_Save>:
uint8 Constant_Float32_Save(CONSTANT_FLOAT32 *pTConstant_Float32, const uint8 data[], uint16 dataLength)
{
    uint8 error;
    uint32 tmp32;

    if (dataLength != (uint16)4)
 80047e0:	2a04      	cmp	r2, #4
{
 80047e2:	4603      	mov	r3, r0
    if (dataLength != (uint16)4)
 80047e4:	d001      	beq.n	80047ea <Constant_Float32_Save+0xa>
    {
        error = (uint8)1;
 80047e6:	2001      	movs	r0, #1
/* USERCODE-BEGIN:SaveFnc                                                                                             */
          OUT = VALUE;
/* USERCODE-END:SaveFnc                                                                                               */
    }
    return (error);
}
 80047e8:	4770      	bx	lr
        pTConstant_Float32->K = (float32)(*(float32*)&tmp32);
 80047ea:	680a      	ldr	r2, [r1, #0]
 80047ec:	609a      	str	r2, [r3, #8]
        error = (uint8)0;
 80047ee:	2000      	movs	r0, #0
          OUT = VALUE;
 80047f0:	605a      	str	r2, [r3, #4]
 80047f2:	4770      	bx	lr

080047f4 <Constant_Float32_GetAddress>:
/**********************************************************************************************************************/
#if !defined(CONSTANT_FLOAT32_ISLINKED)
void* Constant_Float32_GetAddress(const CONSTANT_FLOAT32* block, uint16 elementId)
{
    void* addr;
    switch (elementId)
 80047f4:	2901      	cmp	r1, #1
    {
        case 1:
            addr = (void*)&block->Out;
 80047f6:	bf0c      	ite	eq
 80047f8:	3004      	addeq	r0, #4
            break;
        default:
            addr = (void*)0;
 80047fa:	2000      	movne	r0, #0
            break;
    }
    return (addr);
}
 80047fc:	4770      	bx	lr
 80047fe:	bf00      	nop

08004800 <Gain_Float32_Update>:
/** Update                                                                                                           **/
/**********************************************************************************************************************/
void Gain_Float32_Update(GAIN_FLOAT32 *pTGain_Float32)
{
/* USERCODE-BEGIN:UpdateFnc                                                                                           */
	OUT = IN * GAIN;
 8004800:	6843      	ldr	r3, [r0, #4]
 8004802:	ed90 7a03 	vldr	s14, [r0, #12]
 8004806:	edd3 7a00 	vldr	s15, [r3]
 800480a:	ee67 7a87 	vmul.f32	s15, s15, s14
 800480e:	edc0 7a02 	vstr	s15, [r0, #8]

/* USERCODE-END:UpdateFnc                                                                                             */

}
 8004812:	4770      	bx	lr

08004814 <Gain_Float32_Init>:
/** Initialization                                                                                                   **/
/**********************************************************************************************************************/
void Gain_Float32_Init(GAIN_FLOAT32 *pTGain_Float32)
{
    pTGain_Float32->ID = GAIN_FLOAT32_ID;
    pTGain_Float32->Out = 0;
 8004814:	2300      	movs	r3, #0
    pTGain_Float32->ID = GAIN_FLOAT32_ID;
 8004816:	2213      	movs	r2, #19
 8004818:	8002      	strh	r2, [r0, #0]
    pTGain_Float32->Out = 0;
 800481a:	6083      	str	r3, [r0, #8]
/* USERCODE-BEGIN:InitFnc                                                                                             */
/* USERCODE-END:InitFnc                                                                                               */
}
 800481c:	4770      	bx	lr
 800481e:	bf00      	nop

08004820 <Gain_Float32_Load>:
/** Load block data                                                                                                  **/
/**********************************************************************************************************************/
uint8 Gain_Float32_Load(const GAIN_FLOAT32 *pTGain_Float32, uint8 data[], uint16 *dataLength, uint16 maxSize)
{
    uint8 error = (uint8)0;
    if ((uint16)4 > maxSize)
 8004820:	2b03      	cmp	r3, #3
 8004822:	d90e      	bls.n	8004842 <Gain_Float32_Load+0x22>
    {
        error = (uint8)1;
    }
    else
    {
        data[0] = (uint8)((*(uint32*)&(pTGain_Float32->V)) & 0x000000FF);
 8004824:	68c3      	ldr	r3, [r0, #12]
 8004826:	700b      	strb	r3, [r1, #0]
        data[1] = (uint8)((*(uint32*)&(pTGain_Float32->V) >> 8) & 0x000000FF);
 8004828:	68c3      	ldr	r3, [r0, #12]
 800482a:	0a1b      	lsrs	r3, r3, #8
 800482c:	704b      	strb	r3, [r1, #1]
        data[2] = (uint8)((*(uint32*)&(pTGain_Float32->V) >> 16) & 0x000000FF);
 800482e:	89c3      	ldrh	r3, [r0, #14]
 8004830:	708b      	strb	r3, [r1, #2]
        data[3] = (uint8)((*(uint32*)&(pTGain_Float32->V) >> 24) & 0x000000FF);
 8004832:	7bc3      	ldrb	r3, [r0, #15]
 8004834:	70cb      	strb	r3, [r1, #3]
        *dataLength = (uint16)4;
 8004836:	f04f 0c04 	mov.w	ip, #4
    uint8 error = (uint8)0;
 800483a:	2000      	movs	r0, #0
        *dataLength = (uint16)4;
 800483c:	f8a2 c000 	strh.w	ip, [r2]
 8004840:	4770      	bx	lr
        error = (uint8)1;
 8004842:	2001      	movs	r0, #1
/* USERCODE-BEGIN:LoadFnc                                                                                             */
/* USERCODE-END:LoadFnc                                                                                               */
    }
    return (error);
}
 8004844:	4770      	bx	lr
 8004846:	bf00      	nop

08004848 <Gain_Float32_Save>:
uint8 Gain_Float32_Save(GAIN_FLOAT32 *pTGain_Float32, const uint8 data[], uint16 dataLength)
{
    uint8 error;
    uint32 tmp32;

    if (dataLength != (uint16)4)
 8004848:	2a04      	cmp	r2, #4
{
 800484a:	4603      	mov	r3, r0
    else
    {
        tmp32 = (uint32)data[0] + \
            ((uint32)data[1] << 8) + ((uint32)data[2] << 16) + \
            ((uint32)data[3] << 24);
        pTGain_Float32->V = (float32)(*(float32*)&tmp32);
 800484c:	bf03      	ittte	eq
 800484e:	680a      	ldreq	r2, [r1, #0]
 8004850:	60da      	streq	r2, [r3, #12]
        error = (uint8)0;
 8004852:	2000      	moveq	r0, #0
        error = (uint8)1;
 8004854:	2001      	movne	r0, #1
/* USERCODE-BEGIN:SaveFnc                                                                                             */
/* USERCODE-END:SaveFnc                                                                                               */
    }
    return (error);
}
 8004856:	4770      	bx	lr

08004858 <Gain_Float32_GetAddress>:
/**********************************************************************************************************************/
#if !defined(GAIN_FLOAT32_ISLINKED)
void* Gain_Float32_GetAddress(const GAIN_FLOAT32* block, uint16 elementId)
{
    void* addr;
    switch (elementId)
 8004858:	2901      	cmp	r1, #1
 800485a:	d005      	beq.n	8004868 <Gain_Float32_GetAddress+0x10>
 800485c:	2902      	cmp	r1, #2
 800485e:	d001      	beq.n	8004864 <Gain_Float32_GetAddress+0xc>
 8004860:	2000      	movs	r0, #0
 8004862:	4770      	bx	lr
    {
        case 1:
            addr = (void*)block->In;
            break;
        case 2:
            addr = (void*)&block->Out;
 8004864:	3008      	adds	r0, #8
        default:
            addr = (void*)0;
            break;
    }
    return (addr);
}
 8004866:	4770      	bx	lr
            addr = (void*)block->In;
 8004868:	6840      	ldr	r0, [r0, #4]
            break;
 800486a:	4770      	bx	lr

0800486c <LowpassBiQ_Float32_Update>:
{
/* USERCODE-BEGIN:UpdateFnc                                                                                           */
    float32 temp;

	temp  =  B2 * IN_VERYOLD;	/* y(k) = b2.u(k-2) */
	temp += (B1 * IN_OLD);	    /* y(k) = b2.u(k-2) + b1.u(k-1) */
 800486c:	edd0 6a08 	vldr	s13, [r0, #32]
 8004870:	edd0 7a04 	vldr	s15, [r0, #16]
 8004874:	ed90 7a09 	vldr	s14, [r0, #36]	@ 0x24
 8004878:	ed90 6a05 	vldr	s12, [r0, #20]
	temp += (B0 * IN);	        /* y(k) = b2.u(k-2) + b1.u(k-1) + b0.u(k) */
 800487c:	6843      	ldr	r3, [r0, #4]

	temp -= (A2 * OUT_VERYOLD);	/* y(k) = b2.u(k-2) + b1.u(k-1) + b0.u(k) - a2.y(k-2) */
 800487e:	edd0 5a0b 	vldr	s11, [r0, #44]	@ 0x2c
 8004882:	ed90 5a07 	vldr	s10, [r0, #28]
	temp += (B1 * IN_OLD);	    /* y(k) = b2.u(k-2) + b1.u(k-1) */
 8004886:	ee66 7aa7 	vmul.f32	s15, s13, s15
 800488a:	eee6 7a07 	vfma.f32	s15, s12, s14
	temp += (B0 * IN);	        /* y(k) = b2.u(k-2) + b1.u(k-1) + b0.u(k) */
 800488e:	ed93 7a00 	vldr	s14, [r3]
 8004892:	ed90 6a03 	vldr	s12, [r0, #12]
	temp -= (A1 * OUT_OLD);		/* y(k) = b2.u(k-2) + b1.u(k-1) + b0.u(k) - a2.y(k-2) - a1.y(k-1) */

	/* assign output and set values for next update call */
    OUT         = temp;
	IN_VERYOLD  = IN_OLD;
 8004896:	edc0 6a09 	vstr	s13, [r0, #36]	@ 0x24
	temp += (B0 * IN);	        /* y(k) = b2.u(k-2) + b1.u(k-1) + b0.u(k) */
 800489a:	eee6 7a07 	vfma.f32	s15, s12, s14
	temp -= (A1 * OUT_OLD);		/* y(k) = b2.u(k-2) + b1.u(k-1) + b0.u(k) - a2.y(k-2) - a1.y(k-1) */
 800489e:	ed90 7a0a 	vldr	s14, [r0, #40]	@ 0x28
 80048a2:	ed90 6a06 	vldr	s12, [r0, #24]
	temp -= (A2 * OUT_VERYOLD);	/* y(k) = b2.u(k-2) + b1.u(k-1) + b0.u(k) - a2.y(k-2) */
 80048a6:	eee5 7a65 	vfms.f32	s15, s10, s11
	temp -= (A1 * OUT_OLD);		/* y(k) = b2.u(k-2) + b1.u(k-1) + b0.u(k) - a2.y(k-2) - a1.y(k-1) */
 80048aa:	eee6 7a47 	vfms.f32	s15, s12, s14
    OUT         = temp;
 80048ae:	edc0 7a02 	vstr	s15, [r0, #8]
	IN_OLD      = IN;
 80048b2:	681b      	ldr	r3, [r3, #0]
 80048b4:	6203      	str	r3, [r0, #32]
	OUT_VERYOLD = OUT_OLD;
 80048b6:	ed80 7a0b 	vstr	s14, [r0, #44]	@ 0x2c
	OUT_OLD     = OUT;
 80048ba:	edc0 7a0a 	vstr	s15, [r0, #40]	@ 0x28
    
/* USERCODE-END:UpdateFnc                                                                                             */

}
 80048be:	4770      	bx	lr

080048c0 <LowpassBiQ_Float32_Init>:
/** Initialization                                                                                                   **/
/**********************************************************************************************************************/
void Biquad_Float32_Init(BIQUAD_FLOAT32 *pTBiquad_Float32)
{
    pTBiquad_Float32->ID = BIQUAD_FLOAT32_ID;
    pTBiquad_Float32->Out = 0;
 80048c0:	2300      	movs	r3, #0
    pTBiquad_Float32->ID = BIQUAD_FLOAT32_ID;
 80048c2:	f641 72c3 	movw	r2, #8131	@ 0x1fc3
 80048c6:	8002      	strh	r2, [r0, #0]
    pTBiquad_Float32->Out = 0;
 80048c8:	6083      	str	r3, [r0, #8]
/* USERCODE-BEGIN:InitFnc                                                                                             */
    /* reset old values */
    IN_OLD      = 0;
 80048ca:	6203      	str	r3, [r0, #32]
    IN_VERYOLD  = 0;
 80048cc:	6243      	str	r3, [r0, #36]	@ 0x24
    OUT_OLD     = 0;
 80048ce:	6283      	str	r3, [r0, #40]	@ 0x28
    OUT_VERYOLD = 0;
 80048d0:	62c3      	str	r3, [r0, #44]	@ 0x2c
/* USERCODE-END:InitFnc                                                                                               */
}
 80048d2:	4770      	bx	lr

080048d4 <LowpassBiQ_Float32_Load>:
/** Load block data                                                                                                  **/
/**********************************************************************************************************************/
uint8 Biquad_Float32_Load(const BIQUAD_FLOAT32 *pTBiquad_Float32, uint8 data[], uint16 *dataLength, uint16 maxSize)
{
    uint8 error = (uint8)0;
    if ((uint16)20 > maxSize)
 80048d4:	2b13      	cmp	r3, #19
 80048d6:	d932      	bls.n	800493e <LowpassBiQ_Float32_Load+0x6a>
    {
        error = (uint8)1;
    }
    else
    {
        data[0] = (uint8)((*(uint32*)&(pTBiquad_Float32->b0)) & 0x000000FF);
 80048d8:	68c3      	ldr	r3, [r0, #12]
 80048da:	700b      	strb	r3, [r1, #0]
        data[1] = (uint8)((*(uint32*)&(pTBiquad_Float32->b0) >> 8) & 0x000000FF);
 80048dc:	68c3      	ldr	r3, [r0, #12]
 80048de:	0a1b      	lsrs	r3, r3, #8
 80048e0:	704b      	strb	r3, [r1, #1]
        data[2] = (uint8)((*(uint32*)&(pTBiquad_Float32->b0) >> 16) & 0x000000FF);
 80048e2:	89c3      	ldrh	r3, [r0, #14]
 80048e4:	708b      	strb	r3, [r1, #2]
        data[3] = (uint8)((*(uint32*)&(pTBiquad_Float32->b0) >> 24) & 0x000000FF);
 80048e6:	7bc3      	ldrb	r3, [r0, #15]
 80048e8:	70cb      	strb	r3, [r1, #3]
        data[4] = (uint8)((*(uint32*)&(pTBiquad_Float32->b1)) & 0x000000FF);
 80048ea:	6903      	ldr	r3, [r0, #16]
 80048ec:	710b      	strb	r3, [r1, #4]
        data[5] = (uint8)((*(uint32*)&(pTBiquad_Float32->b1) >> 8) & 0x000000FF);
 80048ee:	6903      	ldr	r3, [r0, #16]
 80048f0:	0a1b      	lsrs	r3, r3, #8
 80048f2:	714b      	strb	r3, [r1, #5]
        data[6] = (uint8)((*(uint32*)&(pTBiquad_Float32->b1) >> 16) & 0x000000FF);
 80048f4:	8a43      	ldrh	r3, [r0, #18]
 80048f6:	718b      	strb	r3, [r1, #6]
        data[7] = (uint8)((*(uint32*)&(pTBiquad_Float32->b1) >> 24) & 0x000000FF);
 80048f8:	7cc3      	ldrb	r3, [r0, #19]
 80048fa:	71cb      	strb	r3, [r1, #7]
        data[8] = (uint8)((*(uint32*)&(pTBiquad_Float32->b2)) & 0x000000FF);
 80048fc:	6943      	ldr	r3, [r0, #20]
 80048fe:	720b      	strb	r3, [r1, #8]
        data[9] = (uint8)((*(uint32*)&(pTBiquad_Float32->b2) >> 8) & 0x000000FF);
 8004900:	6943      	ldr	r3, [r0, #20]
 8004902:	0a1b      	lsrs	r3, r3, #8
 8004904:	724b      	strb	r3, [r1, #9]
        data[10] = (uint8)((*(uint32*)&(pTBiquad_Float32->b2) >> 16) & 0x000000FF);
 8004906:	8ac3      	ldrh	r3, [r0, #22]
 8004908:	728b      	strb	r3, [r1, #10]
        data[11] = (uint8)((*(uint32*)&(pTBiquad_Float32->b2) >> 24) & 0x000000FF);
 800490a:	7dc3      	ldrb	r3, [r0, #23]
 800490c:	72cb      	strb	r3, [r1, #11]
        data[12] = (uint8)((*(uint32*)&(pTBiquad_Float32->a1)) & 0x000000FF);
 800490e:	6983      	ldr	r3, [r0, #24]
 8004910:	730b      	strb	r3, [r1, #12]
        data[13] = (uint8)((*(uint32*)&(pTBiquad_Float32->a1) >> 8) & 0x000000FF);
 8004912:	6983      	ldr	r3, [r0, #24]
 8004914:	0a1b      	lsrs	r3, r3, #8
 8004916:	734b      	strb	r3, [r1, #13]
        data[14] = (uint8)((*(uint32*)&(pTBiquad_Float32->a1) >> 16) & 0x000000FF);
 8004918:	8b43      	ldrh	r3, [r0, #26]
 800491a:	738b      	strb	r3, [r1, #14]
        data[15] = (uint8)((*(uint32*)&(pTBiquad_Float32->a1) >> 24) & 0x000000FF);
 800491c:	7ec3      	ldrb	r3, [r0, #27]
 800491e:	73cb      	strb	r3, [r1, #15]
        data[16] = (uint8)((*(uint32*)&(pTBiquad_Float32->a2)) & 0x000000FF);
 8004920:	69c3      	ldr	r3, [r0, #28]
 8004922:	740b      	strb	r3, [r1, #16]
        data[17] = (uint8)((*(uint32*)&(pTBiquad_Float32->a2) >> 8) & 0x000000FF);
 8004924:	69c3      	ldr	r3, [r0, #28]
 8004926:	0a1b      	lsrs	r3, r3, #8
 8004928:	744b      	strb	r3, [r1, #17]
        data[18] = (uint8)((*(uint32*)&(pTBiquad_Float32->a2) >> 16) & 0x000000FF);
 800492a:	8bc3      	ldrh	r3, [r0, #30]
 800492c:	748b      	strb	r3, [r1, #18]
        data[19] = (uint8)((*(uint32*)&(pTBiquad_Float32->a2) >> 24) & 0x000000FF);
 800492e:	7fc3      	ldrb	r3, [r0, #31]
 8004930:	74cb      	strb	r3, [r1, #19]
        *dataLength = (uint16)20;
 8004932:	f04f 0c14 	mov.w	ip, #20
    uint8 error = (uint8)0;
 8004936:	2000      	movs	r0, #0
        *dataLength = (uint16)20;
 8004938:	f8a2 c000 	strh.w	ip, [r2]
 800493c:	4770      	bx	lr
        error = (uint8)1;
 800493e:	2001      	movs	r0, #1
/* USERCODE-BEGIN:LoadFnc                                                                                             */
/* USERCODE-END:LoadFnc                                                                                               */
    }
    return (error);
}
 8004940:	4770      	bx	lr
 8004942:	bf00      	nop

08004944 <LowpassBiQ_Float32_Save>:
uint8 Biquad_Float32_Save(BIQUAD_FLOAT32 *pTBiquad_Float32, const uint8 data[], uint16 dataLength)
{
    uint8 error;
    uint32 tmp32;

    if (dataLength != (uint16)20)
 8004944:	2a14      	cmp	r2, #20
{
 8004946:	4603      	mov	r3, r0
    if (dataLength != (uint16)20)
 8004948:	d001      	beq.n	800494e <LowpassBiQ_Float32_Save+0xa>
    {
        error = (uint8)1;
 800494a:	2001      	movs	r0, #1
        error = (uint8)0;
/* USERCODE-BEGIN:SaveFnc                                                                                             */
/* USERCODE-END:SaveFnc                                                                                               */
    }
    return (error);
}
 800494c:	4770      	bx	lr
        pTBiquad_Float32->b0 = (float32)(*(float32*)&tmp32);
 800494e:	680a      	ldr	r2, [r1, #0]
 8004950:	60da      	str	r2, [r3, #12]
        pTBiquad_Float32->b1 = (float32)(*(float32*)&tmp32);
 8004952:	684a      	ldr	r2, [r1, #4]
 8004954:	611a      	str	r2, [r3, #16]
        pTBiquad_Float32->b2 = (float32)(*(float32*)&tmp32);
 8004956:	688a      	ldr	r2, [r1, #8]
 8004958:	615a      	str	r2, [r3, #20]
        pTBiquad_Float32->a1 = (float32)(*(float32*)&tmp32);
 800495a:	68ca      	ldr	r2, [r1, #12]
 800495c:	619a      	str	r2, [r3, #24]
        pTBiquad_Float32->a2 = (float32)(*(float32*)&tmp32);
 800495e:	690a      	ldr	r2, [r1, #16]
 8004960:	61da      	str	r2, [r3, #28]
        error = (uint8)0;
 8004962:	2000      	movs	r0, #0
 8004964:	4770      	bx	lr
 8004966:	bf00      	nop

08004968 <LowpassBiQ_Float32_GetAddress>:
/**********************************************************************************************************************/
#if !defined(LOWPASSBIQ_FLOAT32_ISLINKED)
void* LowpassBiQ_Float32_GetAddress(const LOWPASSBIQ_FLOAT32* block, uint16 elementId)
{
    void* addr;
    switch (elementId)
 8004968:	2901      	cmp	r1, #1
 800496a:	d005      	beq.n	8004978 <LowpassBiQ_Float32_GetAddress+0x10>
 800496c:	2902      	cmp	r1, #2
 800496e:	d001      	beq.n	8004974 <LowpassBiQ_Float32_GetAddress+0xc>
 8004970:	2000      	movs	r0, #0
 8004972:	4770      	bx	lr
    {
        case 1:
            addr = (void*)block->In;
            break;
        case 2:
            addr = (void*)&block->Out;
 8004974:	3008      	adds	r0, #8
        default:
            addr = (void*)0;
            break;
    }
    return (addr);
}
 8004976:	4770      	bx	lr
            addr = (void*)block->In;
 8004978:	6840      	ldr	r0, [r0, #4]
            break;
 800497a:	4770      	bx	lr

0800497c <ManualSwitch_Bool_Update>:
    /* if Toggle==0: Out = In1
     * if Toggle==1: Out = In2
     * else:         Out is arbitrary!
     * => Conversion function MUST either set Toggle to 1 or 0!
     */
    OUT = **(&pTManualSwitch_Bool->In1 + (TOGGLE & 0x01));
 800497c:	7b43      	ldrb	r3, [r0, #13]
 800497e:	f003 0301 	and.w	r3, r3, #1
 8004982:	eb00 0383 	add.w	r3, r0, r3, lsl #2
 8004986:	685b      	ldr	r3, [r3, #4]
 8004988:	781b      	ldrb	r3, [r3, #0]
 800498a:	7303      	strb	r3, [r0, #12]

/* USERCODE-END:UpdateFnc                                                                                             */

}
 800498c:	4770      	bx	lr
 800498e:	bf00      	nop

08004990 <ManualSwitch_Bool_Init>:
/**********************************************************************************************************************/
/** Initialization                                                                                                   **/
/**********************************************************************************************************************/
void ManualSwitch_Bool_Init(MANUALSWITCH_BOOL *pTManualSwitch_Bool)
{
    pTManualSwitch_Bool->ID = MANUALSWITCH_BOOL_ID;
 8004990:	229f      	movs	r2, #159	@ 0x9f
    pTManualSwitch_Bool->Out = 0;
 8004992:	2300      	movs	r3, #0
    pTManualSwitch_Bool->ID = MANUALSWITCH_BOOL_ID;
 8004994:	8002      	strh	r2, [r0, #0]
    pTManualSwitch_Bool->Out = 0;
 8004996:	7303      	strb	r3, [r0, #12]
/* USERCODE-BEGIN:InitFnc                                                                                             */
/* USERCODE-END:InitFnc                                                                                               */
}
 8004998:	4770      	bx	lr
 800499a:	bf00      	nop

0800499c <ManualSwitch_Bool_Load>:
/** Load block data                                                                                                  **/
/**********************************************************************************************************************/
uint8 ManualSwitch_Bool_Load(const MANUALSWITCH_BOOL *pTManualSwitch_Bool, uint8 data[], uint16 *dataLength, uint16 maxSize)
{
    uint8 error = (uint8)0;
    if ((uint16)1 > maxSize)
 800499c:	b12b      	cbz	r3, 80049aa <ManualSwitch_Bool_Load+0xe>
    {
        error = (uint8)1;
    }
    else
    {
        data[0] = (uint8)pTManualSwitch_Bool->Toggle;
 800499e:	7b40      	ldrb	r0, [r0, #13]
 80049a0:	7008      	strb	r0, [r1, #0]
        *dataLength = (uint16)1;
 80049a2:	2301      	movs	r3, #1
    uint8 error = (uint8)0;
 80049a4:	2000      	movs	r0, #0
        *dataLength = (uint16)1;
 80049a6:	8013      	strh	r3, [r2, #0]
 80049a8:	4770      	bx	lr
        error = (uint8)1;
 80049aa:	2001      	movs	r0, #1
/* USERCODE-BEGIN:LoadFnc                                                                                             */
/* USERCODE-END:LoadFnc                                                                                               */
    }
    return (error);
}
 80049ac:	4770      	bx	lr
 80049ae:	bf00      	nop

080049b0 <ManualSwitch_Bool_Save>:
/**********************************************************************************************************************/
uint8 ManualSwitch_Bool_Save(MANUALSWITCH_BOOL *pTManualSwitch_Bool, const uint8 data[], uint16 dataLength)
{
    uint8 error;

    if (dataLength != (uint16)1)
 80049b0:	2a01      	cmp	r2, #1
    {
        error = (uint8)1;
    }
    else
    {
        pTManualSwitch_Bool->Toggle = ((uint8)data[0]);
 80049b2:	bf03      	ittte	eq
 80049b4:	780b      	ldrbeq	r3, [r1, #0]
 80049b6:	7343      	strbeq	r3, [r0, #13]
        error = (uint8)0;
 80049b8:	2000      	moveq	r0, #0
        error = (uint8)1;
 80049ba:	2001      	movne	r0, #1
/* USERCODE-BEGIN:SaveFnc                                                                                             */
/* USERCODE-END:SaveFnc                                                                                               */
    }
    return (error);
}
 80049bc:	4770      	bx	lr
 80049be:	bf00      	nop

080049c0 <ManualSwitch_Bool_GetAddress>:
/**********************************************************************************************************************/
#if !defined(MANUALSWITCH_BOOL_ISLINKED)
void* ManualSwitch_Bool_GetAddress(const MANUALSWITCH_BOOL* block, uint16 elementId)
{
    void* addr;
    switch (elementId)
 80049c0:	2902      	cmp	r1, #2
 80049c2:	d007      	beq.n	80049d4 <ManualSwitch_Bool_GetAddress+0x14>
 80049c4:	2903      	cmp	r1, #3
 80049c6:	d003      	beq.n	80049d0 <ManualSwitch_Bool_GetAddress+0x10>
 80049c8:	2901      	cmp	r1, #1
 80049ca:	d105      	bne.n	80049d8 <ManualSwitch_Bool_GetAddress+0x18>
    {
        case 1:
            addr = (void*)block->In1;
 80049cc:	6840      	ldr	r0, [r0, #4]
            break;
 80049ce:	4770      	bx	lr
        case 2:
            addr = (void*)block->In2;
            break;
        case 3:
            addr = (void*)&block->Out;
 80049d0:	300c      	adds	r0, #12
            break;
 80049d2:	4770      	bx	lr
            addr = (void*)block->In2;
 80049d4:	6880      	ldr	r0, [r0, #8]
            break;
 80049d6:	4770      	bx	lr
    switch (elementId)
 80049d8:	2000      	movs	r0, #0
        default:
            addr = (void*)0;
            break;
    }
    return (addr);
}
 80049da:	4770      	bx	lr

080049dc <ManualSwitch_Float32_Update>:
    /* if Toggle==0: Out = In1
     * if Toggle==1: Out = In2
     * else:         Out is arbitrary!
     * => Conversion function MUST either set Toggle to 1 or 0!
     */
    OUT = **(&pTManualSwitch_Float32->In1 + (TOGGLE & 0x01));
 80049dc:	7c03      	ldrb	r3, [r0, #16]
 80049de:	f003 0301 	and.w	r3, r3, #1
 80049e2:	eb00 0383 	add.w	r3, r0, r3, lsl #2
 80049e6:	685b      	ldr	r3, [r3, #4]
 80049e8:	681b      	ldr	r3, [r3, #0]
 80049ea:	60c3      	str	r3, [r0, #12]

/* USERCODE-END:UpdateFnc                                                                                             */

}
 80049ec:	4770      	bx	lr
 80049ee:	bf00      	nop

080049f0 <ManualSwitch_Float32_Init>:
/** Initialization                                                                                                   **/
/**********************************************************************************************************************/
void ManualSwitch_Float32_Init(MANUALSWITCH_FLOAT32 *pTManualSwitch_Float32)
{
    pTManualSwitch_Float32->ID = MANUALSWITCH_FLOAT32_ID;
    pTManualSwitch_Float32->Out = 0;
 80049f0:	2300      	movs	r3, #0
    pTManualSwitch_Float32->ID = MANUALSWITCH_FLOAT32_ID;
 80049f2:	2293      	movs	r2, #147	@ 0x93
 80049f4:	8002      	strh	r2, [r0, #0]
    pTManualSwitch_Float32->Out = 0;
 80049f6:	60c3      	str	r3, [r0, #12]
/* USERCODE-BEGIN:InitFnc                                                                                             */
/* USERCODE-END:InitFnc                                                                                               */
}
 80049f8:	4770      	bx	lr
 80049fa:	bf00      	nop

080049fc <ManualSwitch_Float32_Load>:
/** Load block data                                                                                                  **/
/**********************************************************************************************************************/
uint8 ManualSwitch_Float32_Load(const MANUALSWITCH_FLOAT32 *pTManualSwitch_Float32, uint8 data[], uint16 *dataLength, uint16 maxSize)
{
    uint8 error = (uint8)0;
    if ((uint16)1 > maxSize)
 80049fc:	b12b      	cbz	r3, 8004a0a <ManualSwitch_Float32_Load+0xe>
    {
        error = (uint8)1;
    }
    else
    {
        data[0] = (uint8)pTManualSwitch_Float32->Toggle;
 80049fe:	7c00      	ldrb	r0, [r0, #16]
 8004a00:	7008      	strb	r0, [r1, #0]
        *dataLength = (uint16)1;
 8004a02:	2301      	movs	r3, #1
    uint8 error = (uint8)0;
 8004a04:	2000      	movs	r0, #0
        *dataLength = (uint16)1;
 8004a06:	8013      	strh	r3, [r2, #0]
 8004a08:	4770      	bx	lr
        error = (uint8)1;
 8004a0a:	2001      	movs	r0, #1
/* USERCODE-BEGIN:LoadFnc                                                                                             */
/* USERCODE-END:LoadFnc                                                                                               */
    }
    return (error);
}
 8004a0c:	4770      	bx	lr
 8004a0e:	bf00      	nop

08004a10 <ManualSwitch_Float32_Save>:
/**********************************************************************************************************************/
uint8 ManualSwitch_Float32_Save(MANUALSWITCH_FLOAT32 *pTManualSwitch_Float32, const uint8 data[], uint16 dataLength)
{
    uint8 error;

    if (dataLength != (uint16)1)
 8004a10:	2a01      	cmp	r2, #1
    {
        error = (uint8)1;
    }
    else
    {
        pTManualSwitch_Float32->Toggle = ((uint8)data[0]);
 8004a12:	bf03      	ittte	eq
 8004a14:	780b      	ldrbeq	r3, [r1, #0]
 8004a16:	7403      	strbeq	r3, [r0, #16]
        error = (uint8)0;
 8004a18:	2000      	moveq	r0, #0
        error = (uint8)1;
 8004a1a:	2001      	movne	r0, #1
/* USERCODE-BEGIN:SaveFnc                                                                                             */
/* USERCODE-END:SaveFnc                                                                                               */
    }
    return (error);
}
 8004a1c:	4770      	bx	lr
 8004a1e:	bf00      	nop

08004a20 <ManualSwitch_Float32_GetAddress>:
/**********************************************************************************************************************/
#if !defined(MANUALSWITCH_FLOAT32_ISLINKED)
void* ManualSwitch_Float32_GetAddress(const MANUALSWITCH_FLOAT32* block, uint16 elementId)
{
    void* addr;
    switch (elementId)
 8004a20:	2902      	cmp	r1, #2
 8004a22:	d007      	beq.n	8004a34 <ManualSwitch_Float32_GetAddress+0x14>
 8004a24:	2903      	cmp	r1, #3
 8004a26:	d003      	beq.n	8004a30 <ManualSwitch_Float32_GetAddress+0x10>
 8004a28:	2901      	cmp	r1, #1
 8004a2a:	d105      	bne.n	8004a38 <ManualSwitch_Float32_GetAddress+0x18>
    {
        case 1:
            addr = (void*)block->In1;
 8004a2c:	6840      	ldr	r0, [r0, #4]
            break;
 8004a2e:	4770      	bx	lr
        case 2:
            addr = (void*)block->In2;
            break;
        case 3:
            addr = (void*)&block->Out;
 8004a30:	300c      	adds	r0, #12
            break;
 8004a32:	4770      	bx	lr
            addr = (void*)block->In2;
 8004a34:	6880      	ldr	r0, [r0, #8]
            break;
 8004a36:	4770      	bx	lr
    switch (elementId)
 8004a38:	2000      	movs	r0, #0
        default:
            addr = (void*)0;
            break;
    }
    return (addr);
}
 8004a3a:	4770      	bx	lr

08004a3c <Negation_Float32_Update>:
/** Update                                                                                                           **/
/**********************************************************************************************************************/
void Negation_Float32_Update(NEGATION_FLOAT32 *pTNegation_Float32)
{
/* USERCODE-BEGIN:UpdateFnc                                                                                           */
	OUT = -IN;
 8004a3c:	6843      	ldr	r3, [r0, #4]
 8004a3e:	edd3 7a00 	vldr	s15, [r3]
 8004a42:	eef1 7a67 	vneg.f32	s15, s15
 8004a46:	edc0 7a02 	vstr	s15, [r0, #8]

/* USERCODE-END:UpdateFnc                                                                                             */

}
 8004a4a:	4770      	bx	lr

08004a4c <Negation_Float32_Init>:
/** Initialization                                                                                                   **/
/**********************************************************************************************************************/
void Negation_Float32_Init(NEGATION_FLOAT32 *pTNegation_Float32)
{
    pTNegation_Float32->ID = NEGATION_FLOAT32_ID;
    pTNegation_Float32->Out = 0;
 8004a4c:	2300      	movs	r3, #0
    pTNegation_Float32->ID = NEGATION_FLOAT32_ID;
 8004a4e:	f241 32b3 	movw	r2, #5043	@ 0x13b3
 8004a52:	8002      	strh	r2, [r0, #0]
    pTNegation_Float32->Out = 0;
 8004a54:	6083      	str	r3, [r0, #8]
/* USERCODE-BEGIN:InitFnc                                                                                             */
/* USERCODE-END:InitFnc                                                                                               */
}
 8004a56:	4770      	bx	lr

08004a58 <Negation_Float32_GetAddress>:
/**********************************************************************************************************************/
#if !defined(NEGATION_FLOAT32_ISLINKED)
void* Negation_Float32_GetAddress(const NEGATION_FLOAT32* block, uint16 elementId)
{
    void* addr;
    switch (elementId)
 8004a58:	2901      	cmp	r1, #1
 8004a5a:	d005      	beq.n	8004a68 <Negation_Float32_GetAddress+0x10>
 8004a5c:	2902      	cmp	r1, #2
 8004a5e:	d001      	beq.n	8004a64 <Negation_Float32_GetAddress+0xc>
 8004a60:	2000      	movs	r0, #0
 8004a62:	4770      	bx	lr
    {
        case 1:
            addr = (void*)block->In;
            break;
        case 2:
            addr = (void*)&block->Out;
 8004a64:	3008      	adds	r0, #8
        default:
            addr = (void*)0;
            break;
    }
    return (addr);
}
 8004a66:	4770      	bx	lr
            addr = (void*)block->In;
 8004a68:	6840      	ldr	r0, [r0, #4]
            break;
 8004a6a:	4770      	bx	lr

08004a6c <Not_Bool_Update>:
/** Update                                                                                                           **/
/**********************************************************************************************************************/
void Not_Bool_Update(NOT_BOOL *pTNot_Bool)
{
/* USERCODE-BEGIN:UpdateFnc                                                                                           */
	OUT = !IN;
 8004a6c:	6843      	ldr	r3, [r0, #4]
 8004a6e:	781b      	ldrb	r3, [r3, #0]
 8004a70:	f083 0301 	eor.w	r3, r3, #1
 8004a74:	7203      	strb	r3, [r0, #8]

/* USERCODE-END:UpdateFnc                                                                                             */

}
 8004a76:	4770      	bx	lr

08004a78 <Not_Bool_Init>:
/**********************************************************************************************************************/
/** Initialization                                                                                                   **/
/**********************************************************************************************************************/
void Not_Bool_Init(NOT_BOOL *pTNot_Bool)
{
    pTNot_Bool->ID = NOT_BOOL_ID;
 8004a78:	22ef      	movs	r2, #239	@ 0xef
    pTNot_Bool->Out = 0;
 8004a7a:	2300      	movs	r3, #0
    pTNot_Bool->ID = NOT_BOOL_ID;
 8004a7c:	8002      	strh	r2, [r0, #0]
    pTNot_Bool->Out = 0;
 8004a7e:	7203      	strb	r3, [r0, #8]
/* USERCODE-BEGIN:InitFnc                                                                                             */
/* USERCODE-END:InitFnc                                                                                               */
}
 8004a80:	4770      	bx	lr
 8004a82:	bf00      	nop

08004a84 <Not_Bool_GetAddress>:
/**********************************************************************************************************************/
#if !defined(NOT_BOOL_ISLINKED)
void* Not_Bool_GetAddress(const NOT_BOOL* block, uint16 elementId)
{
    void* addr;
    switch (elementId)
 8004a84:	2901      	cmp	r1, #1
 8004a86:	d005      	beq.n	8004a94 <Not_Bool_GetAddress+0x10>
 8004a88:	2902      	cmp	r1, #2
 8004a8a:	d001      	beq.n	8004a90 <Not_Bool_GetAddress+0xc>
 8004a8c:	2000      	movs	r0, #0
 8004a8e:	4770      	bx	lr
    {
        case 1:
            addr = (void*)block->In;
            break;
        case 2:
            addr = (void*)&block->Out;
 8004a90:	3008      	adds	r0, #8
        default:
            addr = (void*)0;
            break;
    }
    return (addr);
}
 8004a92:	4770      	bx	lr
            addr = (void*)block->In;
 8004a94:	6840      	ldr	r0, [r0, #4]
            break;
 8004a96:	4770      	bx	lr

08004a98 <Or_Bool_Update>:
/** Update                                                                                                           **/
/**********************************************************************************************************************/
void Or_Bool_Update(OR_BOOL *pTOr_Bool)
{
/* USERCODE-BEGIN:UpdateFnc                                                                                           */
	OUT = IN1 || IN2;
 8004a98:	6843      	ldr	r3, [r0, #4]
 8004a9a:	781b      	ldrb	r3, [r3, #0]
 8004a9c:	b90b      	cbnz	r3, 8004aa2 <Or_Bool_Update+0xa>
 8004a9e:	6883      	ldr	r3, [r0, #8]
 8004aa0:	781b      	ldrb	r3, [r3, #0]
 8004aa2:	7303      	strb	r3, [r0, #12]

/* USERCODE-END:UpdateFnc                                                                                             */

}
 8004aa4:	4770      	bx	lr
 8004aa6:	bf00      	nop

08004aa8 <Or_Bool_Init>:
/**********************************************************************************************************************/
/** Initialization                                                                                                   **/
/**********************************************************************************************************************/
void Or_Bool_Init(OR_BOOL *pTOr_Bool)
{
    pTOr_Bool->ID = OR_BOOL_ID;
 8004aa8:	f240 120f 	movw	r2, #271	@ 0x10f
    pTOr_Bool->Out = 0;
 8004aac:	2300      	movs	r3, #0
    pTOr_Bool->ID = OR_BOOL_ID;
 8004aae:	8002      	strh	r2, [r0, #0]
    pTOr_Bool->Out = 0;
 8004ab0:	7303      	strb	r3, [r0, #12]
/* USERCODE-BEGIN:InitFnc                                                                                             */
/* USERCODE-END:InitFnc                                                                                               */
}
 8004ab2:	4770      	bx	lr

08004ab4 <Or_Bool_GetAddress>:
/**********************************************************************************************************************/
#if !defined(OR_BOOL_ISLINKED)
void* Or_Bool_GetAddress(const OR_BOOL* block, uint16 elementId)
{
    void* addr;
    switch (elementId)
 8004ab4:	2902      	cmp	r1, #2
 8004ab6:	d007      	beq.n	8004ac8 <Or_Bool_GetAddress+0x14>
 8004ab8:	2903      	cmp	r1, #3
 8004aba:	d003      	beq.n	8004ac4 <Or_Bool_GetAddress+0x10>
 8004abc:	2901      	cmp	r1, #1
 8004abe:	d105      	bne.n	8004acc <Or_Bool_GetAddress+0x18>
    {
        case 1:
            addr = (void*)block->In1;
 8004ac0:	6840      	ldr	r0, [r0, #4]
            break;
 8004ac2:	4770      	bx	lr
        case 2:
            addr = (void*)block->In2;
            break;
        case 3:
            addr = (void*)&block->Out;
 8004ac4:	300c      	adds	r0, #12
            break;
 8004ac6:	4770      	bx	lr
            addr = (void*)block->In2;
 8004ac8:	6880      	ldr	r0, [r0, #8]
            break;
 8004aca:	4770      	bx	lr
    switch (elementId)
 8004acc:	2000      	movs	r0, #0
        default:
            addr = (void*)0;
            break;
    }
    return (addr);
}
 8004ace:	4770      	bx	lr

08004ad0 <PILimit_Float32_Update>:
void PILimit_Float32_Update(PILIMIT_FLOAT32 *pTPILimit_Float32)
{
/* USERCODE-BEGIN:UpdateFnc                                                                                           */
	float32 y, yp;

	if (ENABLE)	/* Block enabled */
 8004ad0:	6943      	ldr	r3, [r0, #20]
 8004ad2:	781b      	ldrb	r3, [r3, #0]
 8004ad4:	b34b      	cbz	r3, 8004b2a <PILimit_Float32_Update+0x5a>
	{
		if (!ENABLE_OLD)	/* Rising edge of enable signal occurred */
 8004ad6:	f890 2028 	ldrb.w	r2, [r0, #40]	@ 0x28
 8004ada:	b36a      	cbz	r2, 8004b38 <PILimit_Float32_Update+0x68>

		/* Proportional term */
		yp = B1 * IN;

		/* Sum of proportional and integral term */
		y = yp + I_OLD;
 8004adc:	edd0 7a09 	vldr	s15, [r0, #36]	@ 0x24
		yp = B1 * IN;
 8004ae0:	6842      	ldr	r2, [r0, #4]

		/* Calculation of integral part */
		I_OLD += (B0 * IN);
 8004ae2:	edd0 5a07 	vldr	s11, [r0, #28]
		yp = B1 * IN;
 8004ae6:	ed92 7a00 	vldr	s14, [r2]
		y = yp + I_OLD;
 8004aea:	ed90 6a08 	vldr	s12, [r0, #32]

        /* Output limitation and anti wind-up */
        if (y > LIMIT_UP)
 8004aee:	68c2      	ldr	r2, [r0, #12]
		I_OLD += (B0 * IN);
 8004af0:	eef0 6a67 	vmov.f32	s13, s15
 8004af4:	eee7 6a25 	vfma.f32	s13, s14, s11
		y = yp + I_OLD;
 8004af8:	eee6 7a07 	vfma.f32	s15, s12, s14
		I_OLD += (B0 * IN);
 8004afc:	edc0 6a09 	vstr	s13, [r0, #36]	@ 0x24
        if (y > LIMIT_UP)
 8004b00:	ed92 7a00 	vldr	s14, [r2]
 8004b04:	eeb4 7ae7 	vcmpe.f32	s14, s15
 8004b08:	eef1 fa10 	vmrs	APSR_nzcv, fpscr
 8004b0c:	d51a      	bpl.n	8004b44 <PILimit_Float32_Update+0x74>
        {
            /* Output beyond upper limit -> clamp */
            y = LIMIT_UP;

            /* Limitation of integral part (anti wind-up) */
            if (I_OLD > LIMIT_UP)
 8004b0e:	eef4 6ac7 	vcmpe.f32	s13, s14
 8004b12:	eef1 fa10 	vmrs	APSR_nzcv, fpscr
 8004b16:	dd01      	ble.n	8004b1c <PILimit_Float32_Update+0x4c>
            y = LIMIT_DOWN;

            /* Limitation of integral part (anti wind-up) */
            if (I_OLD < LIMIT_DOWN)
            {
                I_OLD = LIMIT_DOWN;
 8004b18:	ed80 7a09 	vstr	s14, [r0, #36]	@ 0x24
            y = LIMIT_DOWN;
 8004b1c:	eef0 7a47 	vmov.f32	s15, s14
            }
        }
        /* else: no output limitation */

		/* Assign output */
		OUT = y;
 8004b20:	edc0 7a06 	vstr	s15, [r0, #24]
	}
	else				/* Block disabled */
	{
		OUT = 0;	/* Reset output */
	}
	ENABLE_OLD = ENABLE;
 8004b24:	f880 3028 	strb.w	r3, [r0, #40]	@ 0x28

/* USERCODE-END:UpdateFnc                                                                                             */

}
 8004b28:	4770      	bx	lr
 8004b2a:	eddf 7a0d 	vldr	s15, [pc, #52]	@ 8004b60 <PILimit_Float32_Update+0x90>
		OUT = y;
 8004b2e:	edc0 7a06 	vstr	s15, [r0, #24]
	ENABLE_OLD = ENABLE;
 8004b32:	f880 3028 	strb.w	r3, [r0, #40]	@ 0x28
}
 8004b36:	4770      	bx	lr
		 	I_OLD = INIT;
 8004b38:	6882      	ldr	r2, [r0, #8]
 8004b3a:	edd2 7a00 	vldr	s15, [r2]
 8004b3e:	edc0 7a09 	vstr	s15, [r0, #36]	@ 0x24
 8004b42:	e7cd      	b.n	8004ae0 <PILimit_Float32_Update+0x10>
        else if (y < LIMIT_DOWN)
 8004b44:	6902      	ldr	r2, [r0, #16]
 8004b46:	ed92 7a00 	vldr	s14, [r2]
 8004b4a:	eeb4 7ae7 	vcmpe.f32	s14, s15
 8004b4e:	eef1 fa10 	vmrs	APSR_nzcv, fpscr
 8004b52:	ddec      	ble.n	8004b2e <PILimit_Float32_Update+0x5e>
            if (I_OLD < LIMIT_DOWN)
 8004b54:	eef4 6ac7 	vcmpe.f32	s13, s14
 8004b58:	eef1 fa10 	vmrs	APSR_nzcv, fpscr
 8004b5c:	d5de      	bpl.n	8004b1c <PILimit_Float32_Update+0x4c>
 8004b5e:	e7db      	b.n	8004b18 <PILimit_Float32_Update+0x48>
 8004b60:	00000000 	.word	0x00000000

08004b64 <PILimit_Float32_Init>:
{
    pTPILimit_Float32->ID = PILIMIT_FLOAT32_ID;
    pTPILimit_Float32->Out = 0;
/* USERCODE-BEGIN:InitFnc                                                                                             */
    /* Preset old values */
   	I_OLD = INIT;
 8004b64:	6883      	ldr	r3, [r0, #8]
    pTPILimit_Float32->Out = 0;
 8004b66:	2200      	movs	r2, #0
 8004b68:	6182      	str	r2, [r0, #24]
   	I_OLD = INIT;
 8004b6a:	681a      	ldr	r2, [r3, #0]
 8004b6c:	6242      	str	r2, [r0, #36]	@ 0x24
    pTPILimit_Float32->ID = PILIMIT_FLOAT32_ID;
 8004b6e:	f640 41a3 	movw	r1, #3235	@ 0xca3
  	ENABLE_OLD = false;
 8004b72:	2300      	movs	r3, #0
    pTPILimit_Float32->ID = PILIMIT_FLOAT32_ID;
 8004b74:	8001      	strh	r1, [r0, #0]
  	ENABLE_OLD = false;
 8004b76:	f880 3028 	strb.w	r3, [r0, #40]	@ 0x28

/* USERCODE-END:InitFnc                                                                                               */
}
 8004b7a:	4770      	bx	lr

08004b7c <PILimit_Float32_Load>:
/** Load block data                                                                                                  **/
/**********************************************************************************************************************/
uint8 PILimit_Float32_Load(const PILIMIT_FLOAT32 *pTPILimit_Float32, uint8 data[], uint16 *dataLength, uint16 maxSize)
{
    uint8 error = (uint8)0;
    if ((uint16)8 > maxSize)
 8004b7c:	2b07      	cmp	r3, #7
 8004b7e:	d91a      	bls.n	8004bb6 <PILimit_Float32_Load+0x3a>
    {
        error = (uint8)1;
    }
    else
    {
        data[0] = (uint8)((*(uint32*)&(pTPILimit_Float32->b0)) & 0x000000FF);
 8004b80:	69c3      	ldr	r3, [r0, #28]
 8004b82:	700b      	strb	r3, [r1, #0]
        data[1] = (uint8)((*(uint32*)&(pTPILimit_Float32->b0) >> 8) & 0x000000FF);
 8004b84:	69c3      	ldr	r3, [r0, #28]
        data[3] = (uint8)((*(uint32*)&(pTPILimit_Float32->b0) >> 24) & 0x000000FF);
        data[4] = (uint8)((*(uint32*)&(pTPILimit_Float32->b1)) & 0x000000FF);
        data[5] = (uint8)((*(uint32*)&(pTPILimit_Float32->b1) >> 8) & 0x000000FF);
        data[6] = (uint8)((*(uint32*)&(pTPILimit_Float32->b1) >> 16) & 0x000000FF);
        data[7] = (uint8)((*(uint32*)&(pTPILimit_Float32->b1) >> 24) & 0x000000FF);
        *dataLength = (uint16)8;
 8004b86:	f04f 0c08 	mov.w	ip, #8
        data[1] = (uint8)((*(uint32*)&(pTPILimit_Float32->b0) >> 8) & 0x000000FF);
 8004b8a:	fa23 f30c 	lsr.w	r3, r3, ip
 8004b8e:	704b      	strb	r3, [r1, #1]
        data[2] = (uint8)((*(uint32*)&(pTPILimit_Float32->b0) >> 16) & 0x000000FF);
 8004b90:	8bc3      	ldrh	r3, [r0, #30]
 8004b92:	708b      	strb	r3, [r1, #2]
        data[3] = (uint8)((*(uint32*)&(pTPILimit_Float32->b0) >> 24) & 0x000000FF);
 8004b94:	7fc3      	ldrb	r3, [r0, #31]
 8004b96:	70cb      	strb	r3, [r1, #3]
        data[4] = (uint8)((*(uint32*)&(pTPILimit_Float32->b1)) & 0x000000FF);
 8004b98:	6a03      	ldr	r3, [r0, #32]
 8004b9a:	710b      	strb	r3, [r1, #4]
        data[5] = (uint8)((*(uint32*)&(pTPILimit_Float32->b1) >> 8) & 0x000000FF);
 8004b9c:	6a03      	ldr	r3, [r0, #32]
 8004b9e:	fa23 f30c 	lsr.w	r3, r3, ip
 8004ba2:	714b      	strb	r3, [r1, #5]
        data[6] = (uint8)((*(uint32*)&(pTPILimit_Float32->b1) >> 16) & 0x000000FF);
 8004ba4:	8c43      	ldrh	r3, [r0, #34]	@ 0x22
 8004ba6:	718b      	strb	r3, [r1, #6]
        data[7] = (uint8)((*(uint32*)&(pTPILimit_Float32->b1) >> 24) & 0x000000FF);
 8004ba8:	f890 3023 	ldrb.w	r3, [r0, #35]	@ 0x23
 8004bac:	71cb      	strb	r3, [r1, #7]
    uint8 error = (uint8)0;
 8004bae:	2000      	movs	r0, #0
        *dataLength = (uint16)8;
 8004bb0:	f8a2 c000 	strh.w	ip, [r2]
 8004bb4:	4770      	bx	lr
        error = (uint8)1;
 8004bb6:	2001      	movs	r0, #1
/* USERCODE-BEGIN:LoadFnc                                                                                             */
/* USERCODE-END:LoadFnc                                                                                               */
    }
    return (error);
}
 8004bb8:	4770      	bx	lr
 8004bba:	bf00      	nop

08004bbc <PILimit_Float32_Save>:
uint8 PILimit_Float32_Save(PILIMIT_FLOAT32 *pTPILimit_Float32, const uint8 data[], uint16 dataLength)
{
    uint8 error;
    uint32 tmp32;

    if (dataLength != (uint16)8)
 8004bbc:	2a08      	cmp	r2, #8
{
 8004bbe:	4603      	mov	r3, r0
    if (dataLength != (uint16)8)
 8004bc0:	d001      	beq.n	8004bc6 <PILimit_Float32_Save+0xa>
    {
        error = (uint8)1;
 8004bc2:	2001      	movs	r0, #1
        error = (uint8)0;
/* USERCODE-BEGIN:SaveFnc                                                                                             */
/* USERCODE-END:SaveFnc                                                                                               */
    }
    return (error);
}
 8004bc4:	4770      	bx	lr
        pTPILimit_Float32->b0 = (float32)(*(float32*)&tmp32);
 8004bc6:	680a      	ldr	r2, [r1, #0]
 8004bc8:	61da      	str	r2, [r3, #28]
        pTPILimit_Float32->b1 = (float32)(*(float32*)&tmp32);
 8004bca:	684a      	ldr	r2, [r1, #4]
 8004bcc:	621a      	str	r2, [r3, #32]
        error = (uint8)0;
 8004bce:	2000      	movs	r0, #0
 8004bd0:	4770      	bx	lr
 8004bd2:	bf00      	nop

08004bd4 <PILimit_Float32_GetAddress>:
/**********************************************************************************************************************/
#if !defined(PILIMIT_FLOAT32_ISLINKED)
void* PILimit_Float32_GetAddress(const PILIMIT_FLOAT32* block, uint16 elementId)
{
    void* addr;
    switch (elementId)
 8004bd4:	3901      	subs	r1, #1
 8004bd6:	2905      	cmp	r1, #5
 8004bd8:	d810      	bhi.n	8004bfc <PILimit_Float32_GetAddress+0x28>
 8004bda:	e8df f001 	tbb	[pc, r1]
 8004bde:	0705      	.short	0x0705
 8004be0:	030d0b09 	.word	0x030d0b09
            break;
        case 5:
            addr = (void*)block->Enable;
            break;
        case 6:
            addr = (void*)&block->Out;
 8004be4:	3018      	adds	r0, #24
            break;
 8004be6:	4770      	bx	lr
            addr = (void*)block->In;
 8004be8:	6840      	ldr	r0, [r0, #4]
            break;
 8004bea:	4770      	bx	lr
            addr = (void*)block->Init;
 8004bec:	6880      	ldr	r0, [r0, #8]
            break;
 8004bee:	4770      	bx	lr
            addr = (void*)block->max;
 8004bf0:	68c0      	ldr	r0, [r0, #12]
            break;
 8004bf2:	4770      	bx	lr
            addr = (void*)block->min;
 8004bf4:	6900      	ldr	r0, [r0, #16]
            break;
 8004bf6:	4770      	bx	lr
            addr = (void*)block->Enable;
 8004bf8:	6940      	ldr	r0, [r0, #20]
            break;
 8004bfa:	4770      	bx	lr
    switch (elementId)
 8004bfc:	2000      	movs	r0, #0
        default:
            addr = (void*)0;
            break;
    }
    return (addr);
}
 8004bfe:	4770      	bx	lr

08004c00 <RateLimiter_Float32_Update>:
void RateLimiter_Float32_Update(RATELIMITER_FLOAT32 *pTRateLimiter_Float32)
{
/* USERCODE-BEGIN:UpdateFnc                                                                                           */
 	float32	Diff;

 	if (!ENABLE)	/* Rate limiting disabled */
 8004c00:	68c3      	ldr	r3, [r0, #12]
 8004c02:	781b      	ldrb	r3, [r3, #0]
 8004c04:	b923      	cbnz	r3, 8004c10 <RateLimiter_Float32_Update+0x10>
 	{
 		OUT = IN;
 8004c06:	6842      	ldr	r2, [r0, #4]
 8004c08:	6812      	ldr	r2, [r2, #0]
 8004c0a:	6102      	str	r2, [r0, #16]
					OUT = IN;				/* assign output */
				}
			}
 		}
 	}
 	ENABLE_OLD = ENABLE;
 8004c0c:	7703      	strb	r3, [r0, #28]

/* USERCODE-END:UpdateFnc                                                                                             */

}
 8004c0e:	4770      	bx	lr
 		if (!ENABLE_OLD)
 8004c10:	7f02      	ldrb	r2, [r0, #28]
 8004c12:	b922      	cbnz	r2, 8004c1e <RateLimiter_Float32_Update+0x1e>
 			OUT = INIT;						/* assign output to init value */
 8004c14:	6882      	ldr	r2, [r0, #8]
 8004c16:	6812      	ldr	r2, [r2, #0]
 8004c18:	6102      	str	r2, [r0, #16]
 	ENABLE_OLD = ENABLE;
 8004c1a:	7703      	strb	r3, [r0, #28]
}
 8004c1c:	4770      	bx	lr
			Diff = IN - OUT;
 8004c1e:	6842      	ldr	r2, [r0, #4]
 8004c20:	edd0 7a04 	vldr	s15, [r0, #16]
 8004c24:	edd2 6a00 	vldr	s13, [r2]
 8004c28:	ee36 7ae7 	vsub.f32	s14, s13, s15
			if (Diff > 0)		/* positive step */
 8004c2c:	eeb5 7ac0 	vcmpe.f32	s14, #0.0
 8004c30:	eef1 fa10 	vmrs	APSR_nzcv, fpscr
 8004c34:	dd0b      	ble.n	8004c4e <RateLimiter_Float32_Update+0x4e>
				if (Diff > RATE_UP)		/* step is higher than RateUp */
 8004c36:	ed90 6a05 	vldr	s12, [r0, #20]
 8004c3a:	eeb4 6ac7 	vcmpe.f32	s12, s14
 8004c3e:	eef1 fa10 	vmrs	APSR_nzcv, fpscr
 8004c42:	d513      	bpl.n	8004c6c <RateLimiter_Float32_Update+0x6c>
					OUT = OUT + RATE_UP;	/* increase output */
 8004c44:	ee77 7a86 	vadd.f32	s15, s15, s12
 8004c48:	edc0 7a04 	vstr	s15, [r0, #16]
 8004c4c:	e7de      	b.n	8004c0c <RateLimiter_Float32_Update+0xc>
			else if (Diff < 0)	/* negative step */
 8004c4e:	d5dd      	bpl.n	8004c0c <RateLimiter_Float32_Update+0xc>
				if (-Diff > RATE_DOWN)	/* step is lower than RateDown */
 8004c50:	ed90 6a06 	vldr	s12, [r0, #24]
 8004c54:	eeb1 7a47 	vneg.f32	s14, s14
 8004c58:	eeb4 7ac6 	vcmpe.f32	s14, s12
 8004c5c:	eef1 fa10 	vmrs	APSR_nzcv, fpscr
 8004c60:	dd04      	ble.n	8004c6c <RateLimiter_Float32_Update+0x6c>
					OUT = OUT - RATE_DOWN;	/* decrease output */
 8004c62:	ee77 7ac6 	vsub.f32	s15, s15, s12
 8004c66:	edc0 7a04 	vstr	s15, [r0, #16]
 8004c6a:	e7cf      	b.n	8004c0c <RateLimiter_Float32_Update+0xc>
					OUT = IN;				/* assign output */
 8004c6c:	edc0 6a04 	vstr	s13, [r0, #16]
 8004c70:	e7cc      	b.n	8004c0c <RateLimiter_Float32_Update+0xc>
 8004c72:	bf00      	nop

08004c74 <RateLimiter_Float32_Init>:
/** Initialization                                                                                                   **/
/**********************************************************************************************************************/
void RateLimiter_Float32_Init(RATELIMITER_FLOAT32 *pTRateLimiter_Float32)
{
    pTRateLimiter_Float32->ID = RATELIMITER_FLOAT32_ID;
    pTRateLimiter_Float32->Out = 0;
 8004c74:	2200      	movs	r2, #0
    pTRateLimiter_Float32->ID = RATELIMITER_FLOAT32_ID;
 8004c76:	2163      	movs	r1, #99	@ 0x63
/* USERCODE-BEGIN:InitFnc                                                                                             */
     ENABLE_OLD = false;
 8004c78:	2300      	movs	r3, #0
    pTRateLimiter_Float32->ID = RATELIMITER_FLOAT32_ID;
 8004c7a:	8001      	strh	r1, [r0, #0]
    pTRateLimiter_Float32->Out = 0;
 8004c7c:	6102      	str	r2, [r0, #16]
     ENABLE_OLD = false;
 8004c7e:	7703      	strb	r3, [r0, #28]

/* USERCODE-END:InitFnc                                                                                               */
}
 8004c80:	4770      	bx	lr
 8004c82:	bf00      	nop

08004c84 <RateLimiter_Float32_Load>:
/** Load block data                                                                                                  **/
/**********************************************************************************************************************/
uint8 RateLimiter_Float32_Load(const RATELIMITER_FLOAT32 *pTRateLimiter_Float32, uint8 data[], uint16 *dataLength, uint16 maxSize)
{
    uint8 error = (uint8)0;
    if ((uint16)8 > maxSize)
 8004c84:	2b07      	cmp	r3, #7
 8004c86:	d919      	bls.n	8004cbc <RateLimiter_Float32_Load+0x38>
    {
        error = (uint8)1;
    }
    else
    {
        data[0] = (uint8)((*(uint32*)&(pTRateLimiter_Float32->RateUp)) & 0x000000FF);
 8004c88:	6943      	ldr	r3, [r0, #20]
 8004c8a:	700b      	strb	r3, [r1, #0]
        data[1] = (uint8)((*(uint32*)&(pTRateLimiter_Float32->RateUp) >> 8) & 0x000000FF);
 8004c8c:	6943      	ldr	r3, [r0, #20]
        data[3] = (uint8)((*(uint32*)&(pTRateLimiter_Float32->RateUp) >> 24) & 0x000000FF);
        data[4] = (uint8)((*(uint32*)&(pTRateLimiter_Float32->RateDown)) & 0x000000FF);
        data[5] = (uint8)((*(uint32*)&(pTRateLimiter_Float32->RateDown) >> 8) & 0x000000FF);
        data[6] = (uint8)((*(uint32*)&(pTRateLimiter_Float32->RateDown) >> 16) & 0x000000FF);
        data[7] = (uint8)((*(uint32*)&(pTRateLimiter_Float32->RateDown) >> 24) & 0x000000FF);
        *dataLength = (uint16)8;
 8004c8e:	f04f 0c08 	mov.w	ip, #8
        data[1] = (uint8)((*(uint32*)&(pTRateLimiter_Float32->RateUp) >> 8) & 0x000000FF);
 8004c92:	fa23 f30c 	lsr.w	r3, r3, ip
 8004c96:	704b      	strb	r3, [r1, #1]
        data[2] = (uint8)((*(uint32*)&(pTRateLimiter_Float32->RateUp) >> 16) & 0x000000FF);
 8004c98:	8ac3      	ldrh	r3, [r0, #22]
 8004c9a:	708b      	strb	r3, [r1, #2]
        data[3] = (uint8)((*(uint32*)&(pTRateLimiter_Float32->RateUp) >> 24) & 0x000000FF);
 8004c9c:	7dc3      	ldrb	r3, [r0, #23]
 8004c9e:	70cb      	strb	r3, [r1, #3]
        data[4] = (uint8)((*(uint32*)&(pTRateLimiter_Float32->RateDown)) & 0x000000FF);
 8004ca0:	6983      	ldr	r3, [r0, #24]
 8004ca2:	710b      	strb	r3, [r1, #4]
        data[5] = (uint8)((*(uint32*)&(pTRateLimiter_Float32->RateDown) >> 8) & 0x000000FF);
 8004ca4:	6983      	ldr	r3, [r0, #24]
 8004ca6:	fa23 f30c 	lsr.w	r3, r3, ip
 8004caa:	714b      	strb	r3, [r1, #5]
        data[6] = (uint8)((*(uint32*)&(pTRateLimiter_Float32->RateDown) >> 16) & 0x000000FF);
 8004cac:	8b43      	ldrh	r3, [r0, #26]
 8004cae:	718b      	strb	r3, [r1, #6]
        data[7] = (uint8)((*(uint32*)&(pTRateLimiter_Float32->RateDown) >> 24) & 0x000000FF);
 8004cb0:	7ec3      	ldrb	r3, [r0, #27]
 8004cb2:	71cb      	strb	r3, [r1, #7]
    uint8 error = (uint8)0;
 8004cb4:	2000      	movs	r0, #0
        *dataLength = (uint16)8;
 8004cb6:	f8a2 c000 	strh.w	ip, [r2]
 8004cba:	4770      	bx	lr
        error = (uint8)1;
 8004cbc:	2001      	movs	r0, #1
/* USERCODE-BEGIN:LoadFnc                                                                                             */
/* USERCODE-END:LoadFnc                                                                                               */
    }
    return (error);
}
 8004cbe:	4770      	bx	lr

08004cc0 <RateLimiter_Float32_Save>:
uint8 RateLimiter_Float32_Save(RATELIMITER_FLOAT32 *pTRateLimiter_Float32, const uint8 data[], uint16 dataLength)
{
    uint8 error;
    uint32 tmp32;

    if (dataLength != (uint16)8)
 8004cc0:	2a08      	cmp	r2, #8
{
 8004cc2:	4603      	mov	r3, r0
    if (dataLength != (uint16)8)
 8004cc4:	d001      	beq.n	8004cca <RateLimiter_Float32_Save+0xa>
    {
        error = (uint8)1;
 8004cc6:	2001      	movs	r0, #1
        error = (uint8)0;
/* USERCODE-BEGIN:SaveFnc                                                                                             */
/* USERCODE-END:SaveFnc                                                                                               */
    }
    return (error);
}
 8004cc8:	4770      	bx	lr
        pTRateLimiter_Float32->RateUp = (float32)(*(float32*)&tmp32);
 8004cca:	680a      	ldr	r2, [r1, #0]
 8004ccc:	615a      	str	r2, [r3, #20]
        pTRateLimiter_Float32->RateDown = (float32)(*(float32*)&tmp32);
 8004cce:	684a      	ldr	r2, [r1, #4]
 8004cd0:	619a      	str	r2, [r3, #24]
        error = (uint8)0;
 8004cd2:	2000      	movs	r0, #0
 8004cd4:	4770      	bx	lr
 8004cd6:	bf00      	nop

08004cd8 <RateLimiter_Float32_GetAddress>:
/**********************************************************************************************************************/
#if !defined(RATELIMITER_FLOAT32_ISLINKED)
void* RateLimiter_Float32_GetAddress(const RATELIMITER_FLOAT32* block, uint16 elementId)
{
    void* addr;
    switch (elementId)
 8004cd8:	3901      	subs	r1, #1
 8004cda:	2903      	cmp	r1, #3
 8004cdc:	d80b      	bhi.n	8004cf6 <RateLimiter_Float32_GetAddress+0x1e>
 8004cde:	e8df f001 	tbb	[pc, r1]
 8004ce2:	0608      	.short	0x0608
 8004ce4:	0204      	.short	0x0204
            break;
        case 3:
            addr = (void*)block->Enable;
            break;
        case 4:
            addr = (void*)&block->Out;
 8004ce6:	3010      	adds	r0, #16
            break;
 8004ce8:	4770      	bx	lr
            addr = (void*)block->Enable;
 8004cea:	68c0      	ldr	r0, [r0, #12]
            break;
 8004cec:	4770      	bx	lr
            addr = (void*)block->Init;
 8004cee:	6880      	ldr	r0, [r0, #8]
            break;
 8004cf0:	4770      	bx	lr
            addr = (void*)block->In;
 8004cf2:	6840      	ldr	r0, [r0, #4]
            break;
 8004cf4:	4770      	bx	lr
    switch (elementId)
 8004cf6:	2000      	movs	r0, #0
        default:
            addr = (void*)0;
            break;
    }
    return (addr);
}
 8004cf8:	4770      	bx	lr
 8004cfa:	bf00      	nop

08004cfc <Saturation_Float32_Update>:
/** Update                                                                                                           **/
/**********************************************************************************************************************/
void Saturation_Float32_Update(SATURATION_FLOAT32 *pTSaturation_Float32)
{
/* USERCODE-BEGIN:UpdateFnc                                                                                           */
	OUT = IN;
 8004cfc:	6843      	ldr	r3, [r0, #4]
	if (OUT > MAX)
 8004cfe:	ed90 7a03 	vldr	s14, [r0, #12]
	OUT = IN;
 8004d02:	edd3 7a00 	vldr	s15, [r3]
	if (OUT > MAX)
 8004d06:	eef4 7ac7 	vcmpe.f32	s15, s14
 8004d0a:	eef1 fa10 	vmrs	APSR_nzcv, fpscr
	OUT = IN;
 8004d0e:	edc0 7a02 	vstr	s15, [r0, #8]
	if (OUT > MAX)
 8004d12:	dc06      	bgt.n	8004d22 <Saturation_Float32_Update+0x26>
	{
		/* input signal is higher than maximum allowed value */
		OUT = MAX;
	}
	else if (OUT < MIN)
 8004d14:	ed90 7a04 	vldr	s14, [r0, #16]
 8004d18:	eef4 7ac7 	vcmpe.f32	s15, s14
 8004d1c:	eef1 fa10 	vmrs	APSR_nzcv, fpscr
 8004d20:	d501      	bpl.n	8004d26 <Saturation_Float32_Update+0x2a>
	{
		/* input signal is lower than minimum allowed value */
		OUT = MIN;
 8004d22:	ed80 7a02 	vstr	s14, [r0, #8]
	}

/* USERCODE-END:UpdateFnc                                                                                             */

}
 8004d26:	4770      	bx	lr

08004d28 <Saturation_Float32_Init>:
/** Initialization                                                                                                   **/
/**********************************************************************************************************************/
void Saturation_Float32_Init(SATURATION_FLOAT32 *pTSaturation_Float32)
{
    pTSaturation_Float32->ID = SATURATION_FLOAT32_ID;
    pTSaturation_Float32->Out = 0;
 8004d28:	2300      	movs	r3, #0
    pTSaturation_Float32->ID = SATURATION_FLOAT32_ID;
 8004d2a:	2253      	movs	r2, #83	@ 0x53
 8004d2c:	8002      	strh	r2, [r0, #0]
    pTSaturation_Float32->Out = 0;
 8004d2e:	6083      	str	r3, [r0, #8]
/* USERCODE-BEGIN:InitFnc                                                                                             */
/* USERCODE-END:InitFnc                                                                                               */
}
 8004d30:	4770      	bx	lr
 8004d32:	bf00      	nop

08004d34 <Saturation_Float32_Load>:
/** Load block data                                                                                                  **/
/**********************************************************************************************************************/
uint8 Saturation_Float32_Load(const SATURATION_FLOAT32 *pTSaturation_Float32, uint8 data[], uint16 *dataLength, uint16 maxSize)
{
    uint8 error = (uint8)0;
    if ((uint16)8 > maxSize)
 8004d34:	2b07      	cmp	r3, #7
 8004d36:	d919      	bls.n	8004d6c <Saturation_Float32_Load+0x38>
    {
        error = (uint8)1;
    }
    else
    {
        data[0] = (uint8)((*(uint32*)&(pTSaturation_Float32->max)) & 0x000000FF);
 8004d38:	68c3      	ldr	r3, [r0, #12]
 8004d3a:	700b      	strb	r3, [r1, #0]
        data[1] = (uint8)((*(uint32*)&(pTSaturation_Float32->max) >> 8) & 0x000000FF);
 8004d3c:	68c3      	ldr	r3, [r0, #12]
        data[3] = (uint8)((*(uint32*)&(pTSaturation_Float32->max) >> 24) & 0x000000FF);
        data[4] = (uint8)((*(uint32*)&(pTSaturation_Float32->min)) & 0x000000FF);
        data[5] = (uint8)((*(uint32*)&(pTSaturation_Float32->min) >> 8) & 0x000000FF);
        data[6] = (uint8)((*(uint32*)&(pTSaturation_Float32->min) >> 16) & 0x000000FF);
        data[7] = (uint8)((*(uint32*)&(pTSaturation_Float32->min) >> 24) & 0x000000FF);
        *dataLength = (uint16)8;
 8004d3e:	f04f 0c08 	mov.w	ip, #8
        data[1] = (uint8)((*(uint32*)&(pTSaturation_Float32->max) >> 8) & 0x000000FF);
 8004d42:	fa23 f30c 	lsr.w	r3, r3, ip
 8004d46:	704b      	strb	r3, [r1, #1]
        data[2] = (uint8)((*(uint32*)&(pTSaturation_Float32->max) >> 16) & 0x000000FF);
 8004d48:	89c3      	ldrh	r3, [r0, #14]
 8004d4a:	708b      	strb	r3, [r1, #2]
        data[3] = (uint8)((*(uint32*)&(pTSaturation_Float32->max) >> 24) & 0x000000FF);
 8004d4c:	7bc3      	ldrb	r3, [r0, #15]
 8004d4e:	70cb      	strb	r3, [r1, #3]
        data[4] = (uint8)((*(uint32*)&(pTSaturation_Float32->min)) & 0x000000FF);
 8004d50:	6903      	ldr	r3, [r0, #16]
 8004d52:	710b      	strb	r3, [r1, #4]
        data[5] = (uint8)((*(uint32*)&(pTSaturation_Float32->min) >> 8) & 0x000000FF);
 8004d54:	6903      	ldr	r3, [r0, #16]
 8004d56:	fa23 f30c 	lsr.w	r3, r3, ip
 8004d5a:	714b      	strb	r3, [r1, #5]
        data[6] = (uint8)((*(uint32*)&(pTSaturation_Float32->min) >> 16) & 0x000000FF);
 8004d5c:	8a43      	ldrh	r3, [r0, #18]
 8004d5e:	718b      	strb	r3, [r1, #6]
        data[7] = (uint8)((*(uint32*)&(pTSaturation_Float32->min) >> 24) & 0x000000FF);
 8004d60:	7cc3      	ldrb	r3, [r0, #19]
 8004d62:	71cb      	strb	r3, [r1, #7]
    uint8 error = (uint8)0;
 8004d64:	2000      	movs	r0, #0
        *dataLength = (uint16)8;
 8004d66:	f8a2 c000 	strh.w	ip, [r2]
 8004d6a:	4770      	bx	lr
        error = (uint8)1;
 8004d6c:	2001      	movs	r0, #1
/* USERCODE-BEGIN:LoadFnc                                                                                             */
/* USERCODE-END:LoadFnc                                                                                               */
    }
    return (error);
}
 8004d6e:	4770      	bx	lr

08004d70 <Saturation_Float32_Save>:
uint8 Saturation_Float32_Save(SATURATION_FLOAT32 *pTSaturation_Float32, const uint8 data[], uint16 dataLength)
{
    uint8 error;
    uint32 tmp32;

    if (dataLength != (uint16)8)
 8004d70:	2a08      	cmp	r2, #8
{
 8004d72:	4603      	mov	r3, r0
    if (dataLength != (uint16)8)
 8004d74:	d001      	beq.n	8004d7a <Saturation_Float32_Save+0xa>
    {
        error = (uint8)1;
 8004d76:	2001      	movs	r0, #1
        error = (uint8)0;
/* USERCODE-BEGIN:SaveFnc                                                                                             */
/* USERCODE-END:SaveFnc                                                                                               */
    }
    return (error);
}
 8004d78:	4770      	bx	lr
        pTSaturation_Float32->max = (float32)(*(float32*)&tmp32);
 8004d7a:	680a      	ldr	r2, [r1, #0]
 8004d7c:	60da      	str	r2, [r3, #12]
        pTSaturation_Float32->min = (float32)(*(float32*)&tmp32);
 8004d7e:	684a      	ldr	r2, [r1, #4]
 8004d80:	611a      	str	r2, [r3, #16]
        error = (uint8)0;
 8004d82:	2000      	movs	r0, #0
 8004d84:	4770      	bx	lr
 8004d86:	bf00      	nop

08004d88 <Saturation_Float32_GetAddress>:
/**********************************************************************************************************************/
#if !defined(SATURATION_FLOAT32_ISLINKED)
void* Saturation_Float32_GetAddress(const SATURATION_FLOAT32* block, uint16 elementId)
{
    void* addr;
    switch (elementId)
 8004d88:	2901      	cmp	r1, #1
 8004d8a:	d005      	beq.n	8004d98 <Saturation_Float32_GetAddress+0x10>
 8004d8c:	2902      	cmp	r1, #2
 8004d8e:	d001      	beq.n	8004d94 <Saturation_Float32_GetAddress+0xc>
 8004d90:	2000      	movs	r0, #0
 8004d92:	4770      	bx	lr
    {
        case 1:
            addr = (void*)block->In;
            break;
        case 2:
            addr = (void*)&block->Out;
 8004d94:	3008      	adds	r0, #8
        default:
            addr = (void*)0;
            break;
    }
    return (addr);
}
 8004d96:	4770      	bx	lr
            addr = (void*)block->In;
 8004d98:	6840      	ldr	r0, [r0, #4]
            break;
 8004d9a:	4770      	bx	lr

08004d9c <SinGen_Float32_Update>:
{
/* USERCODE-BEGIN:UpdateFnc                                                                                           */
	float32	sine, angle;
	float32	temp;

	temp = DELTA_PHI * FREQUENCY;			/* calculate angle increment */
 8004d9c:	6883      	ldr	r3, [r0, #8]
	PHI += temp;							/* increment angle */
 8004d9e:	edd0 6a04 	vldr	s13, [r0, #16]
 8004da2:	ed90 0a07 	vldr	s0, [r0, #28]
 8004da6:	ed93 7a00 	vldr	s14, [r3]

	/* angle limitation to -pi..+pi range */
	if (PHI >= PI_R32)
 8004daa:	eddf 7a16 	vldr	s15, [pc, #88]	@ 8004e04 <SinGen_Float32_Update+0x68>
	PHI += temp;							/* increment angle */
 8004dae:	eea6 0a87 	vfma.f32	s0, s13, s14
{
 8004db2:	b510      	push	{r4, lr}
	if (PHI >= PI_R32)
 8004db4:	eeb4 0ae7 	vcmpe.f32	s0, s15
 8004db8:	eef1 fa10 	vmrs	APSR_nzcv, fpscr
{
 8004dbc:	4604      	mov	r4, r0
	if (PHI >= PI_R32)
 8004dbe:	db15      	blt.n	8004dec <SinGen_Float32_Update+0x50>
	{
		PHI = PHI - (2 * PI_R32);
 8004dc0:	eddf 7a11 	vldr	s15, [pc, #68]	@ 8004e08 <SinGen_Float32_Update+0x6c>
 8004dc4:	ee30 0a67 	vsub.f32	s0, s0, s15
	{
		PHI = PHI + (2 * PI_R32);
	}

	/* sine calculation */
	angle = PHI + PHASE;					/* phi+phase (though angle might exceeds -pi..pi range, sine will be computed correctly) */
 8004dc8:	edd4 7a05 	vldr	s15, [r4, #20]
		PHI = PHI - (2 * PI_R32);
 8004dcc:	ed84 0a07 	vstr	s0, [r4, #28]
	sine  = (float32)sinf((float64)angle);	/* sin(phi+phase) */
 8004dd0:	ee30 0a27 	vadd.f32	s0, s0, s15
 8004dd4:	f002 fb08 	bl	80073e8 <sinf>

	/* amplification */
	temp = AMPLITUDE * sine;				/* A*sin(phi+phase) */
 8004dd8:	6863      	ldr	r3, [r4, #4]

	/* offset */
	temp += OFFSET;							/* A*sin(phi+phase) + Offset */
 8004dda:	edd4 7a06 	vldr	s15, [r4, #24]
 8004dde:	ed93 7a00 	vldr	s14, [r3]
 8004de2:	eee7 7a00 	vfma.f32	s15, s14, s0

	OUT = temp;
 8004de6:	edc4 7a03 	vstr	s15, [r4, #12]

/* USERCODE-END:UpdateFnc                                                                                             */

}
 8004dea:	bd10      	pop	{r4, pc}
	else if (PHI < -PI_R32)
 8004dec:	eddf 7a07 	vldr	s15, [pc, #28]	@ 8004e0c <SinGen_Float32_Update+0x70>
 8004df0:	eeb4 0ae7 	vcmpe.f32	s0, s15
 8004df4:	eef1 fa10 	vmrs	APSR_nzcv, fpscr
		PHI = PHI + (2 * PI_R32);
 8004df8:	bf44      	itt	mi
 8004dfa:	eddf 7a03 	vldrmi	s15, [pc, #12]	@ 8004e08 <SinGen_Float32_Update+0x6c>
 8004dfe:	ee30 0a27 	vaddmi.f32	s0, s0, s15
 8004e02:	e7e1      	b.n	8004dc8 <SinGen_Float32_Update+0x2c>
 8004e04:	40490fdb 	.word	0x40490fdb
 8004e08:	40c90fdb 	.word	0x40c90fdb
 8004e0c:	c0490fdb 	.word	0xc0490fdb

08004e10 <SinGen_Float32_Init>:
/** Initialization                                                                                                   **/
/**********************************************************************************************************************/
void SinGen_Float32_Init(SINGEN_FLOAT32 *pTSinGen_Float32)
{
    pTSinGen_Float32->ID = SINGEN_FLOAT32_ID;
    pTSinGen_Float32->u = 0;
 8004e10:	2300      	movs	r3, #0
    pTSinGen_Float32->ID = SINGEN_FLOAT32_ID;
 8004e12:	f240 12a3 	movw	r2, #419	@ 0x1a3
 8004e16:	8002      	strh	r2, [r0, #0]
    pTSinGen_Float32->u = 0;
 8004e18:	60c3      	str	r3, [r0, #12]
/* USERCODE-BEGIN:InitFnc                                                                                             */
  	PHI = 0;
 8004e1a:	61c3      	str	r3, [r0, #28]

/* USERCODE-END:InitFnc                                                                                               */
}
 8004e1c:	4770      	bx	lr
 8004e1e:	bf00      	nop

08004e20 <SinGen_Float32_Load>:
/** Load block data                                                                                                  **/
/**********************************************************************************************************************/
uint8 SinGen_Float32_Load(const SINGEN_FLOAT32 *pTSinGen_Float32, uint8 data[], uint16 *dataLength, uint16 maxSize)
{
    uint8 error = (uint8)0;
    if ((uint16)12 > maxSize)
 8004e20:	2b0b      	cmp	r3, #11
 8004e22:	d920      	bls.n	8004e66 <SinGen_Float32_Load+0x46>
    {
        error = (uint8)1;
    }
    else
    {
        data[0] = (uint8)((*(uint32*)&(pTSinGen_Float32->delta_phi)) & 0x000000FF);
 8004e24:	6903      	ldr	r3, [r0, #16]
 8004e26:	700b      	strb	r3, [r1, #0]
        data[1] = (uint8)((*(uint32*)&(pTSinGen_Float32->delta_phi) >> 8) & 0x000000FF);
 8004e28:	6903      	ldr	r3, [r0, #16]
 8004e2a:	0a1b      	lsrs	r3, r3, #8
 8004e2c:	704b      	strb	r3, [r1, #1]
        data[2] = (uint8)((*(uint32*)&(pTSinGen_Float32->delta_phi) >> 16) & 0x000000FF);
 8004e2e:	8a43      	ldrh	r3, [r0, #18]
 8004e30:	708b      	strb	r3, [r1, #2]
        data[3] = (uint8)((*(uint32*)&(pTSinGen_Float32->delta_phi) >> 24) & 0x000000FF);
 8004e32:	7cc3      	ldrb	r3, [r0, #19]
 8004e34:	70cb      	strb	r3, [r1, #3]
        data[4] = (uint8)((*(uint32*)&(pTSinGen_Float32->phase)) & 0x000000FF);
 8004e36:	6943      	ldr	r3, [r0, #20]
 8004e38:	710b      	strb	r3, [r1, #4]
        data[5] = (uint8)((*(uint32*)&(pTSinGen_Float32->phase) >> 8) & 0x000000FF);
 8004e3a:	6943      	ldr	r3, [r0, #20]
 8004e3c:	0a1b      	lsrs	r3, r3, #8
 8004e3e:	714b      	strb	r3, [r1, #5]
        data[6] = (uint8)((*(uint32*)&(pTSinGen_Float32->phase) >> 16) & 0x000000FF);
 8004e40:	8ac3      	ldrh	r3, [r0, #22]
 8004e42:	718b      	strb	r3, [r1, #6]
        data[7] = (uint8)((*(uint32*)&(pTSinGen_Float32->phase) >> 24) & 0x000000FF);
 8004e44:	7dc3      	ldrb	r3, [r0, #23]
 8004e46:	71cb      	strb	r3, [r1, #7]
        data[8] = (uint8)((*(uint32*)&(pTSinGen_Float32->offset)) & 0x000000FF);
 8004e48:	6983      	ldr	r3, [r0, #24]
 8004e4a:	720b      	strb	r3, [r1, #8]
        data[9] = (uint8)((*(uint32*)&(pTSinGen_Float32->offset) >> 8) & 0x000000FF);
 8004e4c:	6983      	ldr	r3, [r0, #24]
 8004e4e:	0a1b      	lsrs	r3, r3, #8
 8004e50:	724b      	strb	r3, [r1, #9]
        data[10] = (uint8)((*(uint32*)&(pTSinGen_Float32->offset) >> 16) & 0x000000FF);
 8004e52:	8b43      	ldrh	r3, [r0, #26]
 8004e54:	728b      	strb	r3, [r1, #10]
        data[11] = (uint8)((*(uint32*)&(pTSinGen_Float32->offset) >> 24) & 0x000000FF);
 8004e56:	7ec3      	ldrb	r3, [r0, #27]
 8004e58:	72cb      	strb	r3, [r1, #11]
        *dataLength = (uint16)12;
 8004e5a:	f04f 0c0c 	mov.w	ip, #12
    uint8 error = (uint8)0;
 8004e5e:	2000      	movs	r0, #0
        *dataLength = (uint16)12;
 8004e60:	f8a2 c000 	strh.w	ip, [r2]
 8004e64:	4770      	bx	lr
        error = (uint8)1;
 8004e66:	2001      	movs	r0, #1
/* USERCODE-BEGIN:LoadFnc                                                                                             */
/* USERCODE-END:LoadFnc                                                                                               */
    }
    return (error);
}
 8004e68:	4770      	bx	lr
 8004e6a:	bf00      	nop

08004e6c <SinGen_Float32_Save>:
uint8 SinGen_Float32_Save(SINGEN_FLOAT32 *pTSinGen_Float32, const uint8 data[], uint16 dataLength)
{
    uint8 error;
    uint32 tmp32;

    if (dataLength != (uint16)12)
 8004e6c:	2a0c      	cmp	r2, #12
{
 8004e6e:	4603      	mov	r3, r0
    if (dataLength != (uint16)12)
 8004e70:	d001      	beq.n	8004e76 <SinGen_Float32_Save+0xa>
    {
        error = (uint8)1;
 8004e72:	2001      	movs	r0, #1
        error = (uint8)0;
/* USERCODE-BEGIN:SaveFnc                                                                                             */
/* USERCODE-END:SaveFnc                                                                                               */
    }
    return (error);
}
 8004e74:	4770      	bx	lr
        pTSinGen_Float32->delta_phi = (float32)(*(float32*)&tmp32);
 8004e76:	680a      	ldr	r2, [r1, #0]
 8004e78:	611a      	str	r2, [r3, #16]
        pTSinGen_Float32->phase = (float32)(*(float32*)&tmp32);
 8004e7a:	684a      	ldr	r2, [r1, #4]
 8004e7c:	615a      	str	r2, [r3, #20]
        pTSinGen_Float32->offset = (float32)(*(float32*)&tmp32);
 8004e7e:	688a      	ldr	r2, [r1, #8]
 8004e80:	619a      	str	r2, [r3, #24]
        error = (uint8)0;
 8004e82:	2000      	movs	r0, #0
 8004e84:	4770      	bx	lr
 8004e86:	bf00      	nop

08004e88 <SinGen_Float32_GetAddress>:
/**********************************************************************************************************************/
#if !defined(SINGEN_FLOAT32_ISLINKED)
void* SinGen_Float32_GetAddress(const SINGEN_FLOAT32* block, uint16 elementId)
{
    void* addr;
    switch (elementId)
 8004e88:	2902      	cmp	r1, #2
 8004e8a:	d007      	beq.n	8004e9c <SinGen_Float32_GetAddress+0x14>
 8004e8c:	2903      	cmp	r1, #3
 8004e8e:	d003      	beq.n	8004e98 <SinGen_Float32_GetAddress+0x10>
 8004e90:	2901      	cmp	r1, #1
 8004e92:	d105      	bne.n	8004ea0 <SinGen_Float32_GetAddress+0x18>
    {
        case 1:
            addr = (void*)block->A;
 8004e94:	6840      	ldr	r0, [r0, #4]
            break;
 8004e96:	4770      	bx	lr
        case 2:
            addr = (void*)block->f;
            break;
        case 3:
            addr = (void*)&block->u;
 8004e98:	300c      	adds	r0, #12
            break;
 8004e9a:	4770      	bx	lr
            addr = (void*)block->f;
 8004e9c:	6880      	ldr	r0, [r0, #8]
            break;
 8004e9e:	4770      	bx	lr
    switch (elementId)
 8004ea0:	2000      	movs	r0, #0
        default:
            addr = (void*)0;
            break;
    }
    return (addr);
}
 8004ea2:	4770      	bx	lr

08004ea4 <Sub_Float32_Update>:
/** Update                                                                                                           **/
/**********************************************************************************************************************/
void Sub_Float32_Update(SUB_FLOAT32 *pTSub_Float32)
{
/* USERCODE-BEGIN:UpdateFnc                                                                                           */
	OUT = IN1 - IN2;
 8004ea4:	e9d0 2301 	ldrd	r2, r3, [r0, #4]
 8004ea8:	edd2 7a00 	vldr	s15, [r2]
 8004eac:	ed93 7a00 	vldr	s14, [r3]
 8004eb0:	ee77 7ac7 	vsub.f32	s15, s15, s14
 8004eb4:	edc0 7a03 	vstr	s15, [r0, #12]

/* USERCODE-END:UpdateFnc                                                                                             */

}
 8004eb8:	4770      	bx	lr
 8004eba:	bf00      	nop

08004ebc <Sub_Float32_Init>:
/** Initialization                                                                                                   **/
/**********************************************************************************************************************/
void Sub_Float32_Init(SUB_FLOAT32 *pTSub_Float32)
{
    pTSub_Float32->ID = SUB_FLOAT32_ID;
    pTSub_Float32->Out = 0;
 8004ebc:	2300      	movs	r3, #0
    pTSub_Float32->ID = SUB_FLOAT32_ID;
 8004ebe:	f241 3283 	movw	r2, #4995	@ 0x1383
 8004ec2:	8002      	strh	r2, [r0, #0]
    pTSub_Float32->Out = 0;
 8004ec4:	60c3      	str	r3, [r0, #12]
/* USERCODE-BEGIN:InitFnc                                                                                             */
/* USERCODE-END:InitFnc                                                                                               */
}
 8004ec6:	4770      	bx	lr

08004ec8 <Sub_Float32_GetAddress>:
/**********************************************************************************************************************/
#if !defined(SUB_FLOAT32_ISLINKED)
void* Sub_Float32_GetAddress(const SUB_FLOAT32* block, uint16 elementId)
{
    void* addr;
    switch (elementId)
 8004ec8:	2902      	cmp	r1, #2
 8004eca:	d007      	beq.n	8004edc <Sub_Float32_GetAddress+0x14>
 8004ecc:	2903      	cmp	r1, #3
 8004ece:	d003      	beq.n	8004ed8 <Sub_Float32_GetAddress+0x10>
 8004ed0:	2901      	cmp	r1, #1
 8004ed2:	d105      	bne.n	8004ee0 <Sub_Float32_GetAddress+0x18>
    {
        case 1:
            addr = (void*)block->Plus;
 8004ed4:	6840      	ldr	r0, [r0, #4]
            break;
 8004ed6:	4770      	bx	lr
        case 2:
            addr = (void*)block->Minus;
            break;
        case 3:
            addr = (void*)&block->Out;
 8004ed8:	300c      	adds	r0, #12
            break;
 8004eda:	4770      	bx	lr
            addr = (void*)block->Minus;
 8004edc:	6880      	ldr	r0, [r0, #8]
            break;
 8004ede:	4770      	bx	lr
    switch (elementId)
 8004ee0:	2000      	movs	r0, #0
        default:
            addr = (void*)0;
            break;
    }
    return (addr);
}
 8004ee2:	4770      	bx	lr

08004ee4 <uI_Float32_Update>:
/** Update                                                                                                           **/
/**********************************************************************************************************************/
void uI_Float32_Update(UI_FLOAT32 *pTuI_Float32)
{
/* USERCODE-BEGIN:UpdateFnc                                                                                           */
	if (ENABLE)	/* Block enabled */
 8004ee4:	68c3      	ldr	r3, [r0, #12]
 8004ee6:	781b      	ldrb	r3, [r3, #0]
 8004ee8:	b313      	cbz	r3, 8004f30 <uI_Float32_Update+0x4c>
	{
		if (!ENABLE_OLD)	/* rising edge of enable signal occurred */
 8004eea:	7f02      	ldrb	r2, [r0, #28]
 8004eec:	b322      	cbz	r2, 8004f38 <uI_Float32_Update+0x54>
		 	/* preset old value */
			I_OLD = INIT;
		}

		/* Angle limitation to -pi...+pi */
		while (I_OLD >= PI_R32)
 8004eee:	edd0 7a06 	vldr	s15, [r0, #24]
 8004ef2:	ed9f 7a1d 	vldr	s14, [pc, #116]	@ 8004f68 <uI_Float32_Update+0x84>
 8004ef6:	eef4 7ac7 	vcmpe.f32	s15, s14
 8004efa:	eef1 fa10 	vmrs	APSR_nzcv, fpscr
 8004efe:	db21      	blt.n	8004f44 <uI_Float32_Update+0x60>
		{
			I_OLD = I_OLD - (2 * PI_R32);
 8004f00:	eddf 6a1a 	vldr	s13, [pc, #104]	@ 8004f6c <uI_Float32_Update+0x88>
 8004f04:	ee77 7ae6 	vsub.f32	s15, s15, s13
		while (I_OLD >= PI_R32)
 8004f08:	eef4 7ac7 	vcmpe.f32	s15, s14
 8004f0c:	eef1 fa10 	vmrs	APSR_nzcv, fpscr
 8004f10:	daf8      	bge.n	8004f04 <uI_Float32_Update+0x20>
 8004f12:	edc0 7a06 	vstr	s15, [r0, #24]

		/* Assign output */
		OUT = I_OLD;

		/* Integral term */
		I_OLD += (B0 * IN);
 8004f16:	6842      	ldr	r2, [r0, #4]
		OUT = I_OLD;
 8004f18:	edc0 7a04 	vstr	s15, [r0, #16]
		I_OLD += (B0 * IN);
 8004f1c:	ed92 7a00 	vldr	s14, [r2]
 8004f20:	edd0 6a05 	vldr	s13, [r0, #20]
	}
	else				/* Block disabled */
	{
		OUT = 0;	/* reset output */
	}
	ENABLE_OLD = ENABLE;
 8004f24:	7703      	strb	r3, [r0, #28]
		I_OLD += (B0 * IN);
 8004f26:	eee6 7a87 	vfma.f32	s15, s13, s14
 8004f2a:	edc0 7a06 	vstr	s15, [r0, #24]

/* USERCODE-END:UpdateFnc                                                                                             */

}
 8004f2e:	4770      	bx	lr
		OUT = 0;	/* reset output */
 8004f30:	2200      	movs	r2, #0
 8004f32:	6102      	str	r2, [r0, #16]
	ENABLE_OLD = ENABLE;
 8004f34:	7703      	strb	r3, [r0, #28]
}
 8004f36:	4770      	bx	lr
			I_OLD = INIT;
 8004f38:	6882      	ldr	r2, [r0, #8]
 8004f3a:	edd2 7a00 	vldr	s15, [r2]
 8004f3e:	edc0 7a06 	vstr	s15, [r0, #24]
 8004f42:	e7d6      	b.n	8004ef2 <uI_Float32_Update+0xe>
		while (I_OLD < - PI_R32)
 8004f44:	ed9f 7a0a 	vldr	s14, [pc, #40]	@ 8004f70 <uI_Float32_Update+0x8c>
 8004f48:	eef4 7ac7 	vcmpe.f32	s15, s14
 8004f4c:	eef1 fa10 	vmrs	APSR_nzcv, fpscr
 8004f50:	d5e1      	bpl.n	8004f16 <uI_Float32_Update+0x32>
			I_OLD = I_OLD + (2 * PI_R32);
 8004f52:	eddf 6a06 	vldr	s13, [pc, #24]	@ 8004f6c <uI_Float32_Update+0x88>
 8004f56:	ee77 7aa6 	vadd.f32	s15, s15, s13
		while (I_OLD < - PI_R32)
 8004f5a:	eef4 7ac7 	vcmpe.f32	s15, s14
 8004f5e:	eef1 fa10 	vmrs	APSR_nzcv, fpscr
 8004f62:	d4f8      	bmi.n	8004f56 <uI_Float32_Update+0x72>
 8004f64:	e7d5      	b.n	8004f12 <uI_Float32_Update+0x2e>
 8004f66:	bf00      	nop
 8004f68:	40490fdb 	.word	0x40490fdb
 8004f6c:	40c90fdb 	.word	0x40c90fdb
 8004f70:	c0490fdb 	.word	0xc0490fdb

08004f74 <uI_Float32_Init>:
{
    pTuI_Float32->ID = UI_FLOAT32_ID;
    pTuI_Float32->Out = 0;
/* USERCODE-BEGIN:InitFnc                                                                                             */
   	/* preset old values */
 	I_OLD = INIT;
 8004f74:	6883      	ldr	r3, [r0, #8]
    pTuI_Float32->Out = 0;
 8004f76:	2200      	movs	r2, #0
 8004f78:	6102      	str	r2, [r0, #16]
 	I_OLD = INIT;
 8004f7a:	681a      	ldr	r2, [r3, #0]
 8004f7c:	6182      	str	r2, [r0, #24]
    pTuI_Float32->ID = UI_FLOAT32_ID;
 8004f7e:	f640 5133 	movw	r1, #3379	@ 0xd33
   	ENABLE_OLD = false;
 8004f82:	2300      	movs	r3, #0
    pTuI_Float32->ID = UI_FLOAT32_ID;
 8004f84:	8001      	strh	r1, [r0, #0]
   	ENABLE_OLD = false;
 8004f86:	7703      	strb	r3, [r0, #28]

/* USERCODE-END:InitFnc                                                                                               */
}
 8004f88:	4770      	bx	lr
 8004f8a:	bf00      	nop

08004f8c <uI_Float32_Load>:
/** Load block data                                                                                                  **/
/**********************************************************************************************************************/
uint8 uI_Float32_Load(const UI_FLOAT32 *pTuI_Float32, uint8 data[], uint16 *dataLength, uint16 maxSize)
{
    uint8 error = (uint8)0;
    if ((uint16)4 > maxSize)
 8004f8c:	2b03      	cmp	r3, #3
 8004f8e:	d90e      	bls.n	8004fae <uI_Float32_Load+0x22>
    {
        error = (uint8)1;
    }
    else
    {
        data[0] = (uint8)((*(uint32*)&(pTuI_Float32->b0)) & 0x000000FF);
 8004f90:	6943      	ldr	r3, [r0, #20]
 8004f92:	700b      	strb	r3, [r1, #0]
        data[1] = (uint8)((*(uint32*)&(pTuI_Float32->b0) >> 8) & 0x000000FF);
 8004f94:	6943      	ldr	r3, [r0, #20]
 8004f96:	0a1b      	lsrs	r3, r3, #8
 8004f98:	704b      	strb	r3, [r1, #1]
        data[2] = (uint8)((*(uint32*)&(pTuI_Float32->b0) >> 16) & 0x000000FF);
 8004f9a:	8ac3      	ldrh	r3, [r0, #22]
 8004f9c:	708b      	strb	r3, [r1, #2]
        data[3] = (uint8)((*(uint32*)&(pTuI_Float32->b0) >> 24) & 0x000000FF);
 8004f9e:	7dc3      	ldrb	r3, [r0, #23]
 8004fa0:	70cb      	strb	r3, [r1, #3]
        *dataLength = (uint16)4;
 8004fa2:	f04f 0c04 	mov.w	ip, #4
    uint8 error = (uint8)0;
 8004fa6:	2000      	movs	r0, #0
        *dataLength = (uint16)4;
 8004fa8:	f8a2 c000 	strh.w	ip, [r2]
 8004fac:	4770      	bx	lr
        error = (uint8)1;
 8004fae:	2001      	movs	r0, #1
/* USERCODE-BEGIN:LoadFnc                                                                                             */
/* USERCODE-END:LoadFnc                                                                                               */
    }
    return (error);
}
 8004fb0:	4770      	bx	lr
 8004fb2:	bf00      	nop

08004fb4 <uI_Float32_Save>:
uint8 uI_Float32_Save(UI_FLOAT32 *pTuI_Float32, const uint8 data[], uint16 dataLength)
{
    uint8 error;
    uint32 tmp32;

    if (dataLength != (uint16)4)
 8004fb4:	2a04      	cmp	r2, #4
{
 8004fb6:	4603      	mov	r3, r0
    else
    {
        tmp32 = (uint32)data[0] + \
            ((uint32)data[1] << 8) + ((uint32)data[2] << 16) + \
            ((uint32)data[3] << 24);
        pTuI_Float32->b0 = (float32)(*(float32*)&tmp32);
 8004fb8:	bf03      	ittte	eq
 8004fba:	680a      	ldreq	r2, [r1, #0]
 8004fbc:	615a      	streq	r2, [r3, #20]
        error = (uint8)0;
 8004fbe:	2000      	moveq	r0, #0
        error = (uint8)1;
 8004fc0:	2001      	movne	r0, #1
/* USERCODE-BEGIN:SaveFnc                                                                                             */
/* USERCODE-END:SaveFnc                                                                                               */
    }
    return (error);
}
 8004fc2:	4770      	bx	lr

08004fc4 <uI_Float32_GetAddress>:
/**********************************************************************************************************************/
#if !defined(UI_FLOAT32_ISLINKED)
void* uI_Float32_GetAddress(const UI_FLOAT32* block, uint16 elementId)
{
    void* addr;
    switch (elementId)
 8004fc4:	3901      	subs	r1, #1
 8004fc6:	2903      	cmp	r1, #3
 8004fc8:	d80b      	bhi.n	8004fe2 <uI_Float32_GetAddress+0x1e>
 8004fca:	e8df f001 	tbb	[pc, r1]
 8004fce:	0608      	.short	0x0608
 8004fd0:	0204      	.short	0x0204
            break;
        case 3:
            addr = (void*)block->Enable;
            break;
        case 4:
            addr = (void*)&block->Out;
 8004fd2:	3010      	adds	r0, #16
            break;
 8004fd4:	4770      	bx	lr
            addr = (void*)block->Enable;
 8004fd6:	68c0      	ldr	r0, [r0, #12]
            break;
 8004fd8:	4770      	bx	lr
            addr = (void*)block->Init;
 8004fda:	6880      	ldr	r0, [r0, #8]
            break;
 8004fdc:	4770      	bx	lr
            addr = (void*)block->In;
 8004fde:	6840      	ldr	r0, [r0, #4]
            break;
 8004fe0:	4770      	bx	lr
    switch (elementId)
 8004fe2:	2000      	movs	r0, #0
        default:
            addr = (void*)0;
            break;
    }
    return (addr);
}
 8004fe4:	4770      	bx	lr
 8004fe6:	bf00      	nop

08004fe8 <getRAMBlock>:
 *        Service is protected by payload protection.
 *
 * @param[IN] protocol Protocol
 */
void getRAMBlock(tProtocol* protocol)
{
 8004fe8:	b570      	push	{r4, r5, r6, lr}
    const uint8 addrOffset = (uint8)5;
#else
#error ADDRESS WIDTH NOT DEFINED
#endif

    size = protocol->ucFRAMEData[addrOffset];
 8004fea:	68c2      	ldr	r2, [r0, #12]
    size += (uint16)protocol->ucFRAMEData[addrOffset + 1] << 8;
    type = protocol->ucFRAMEData[addrOffset + 2];

    if ((size + 2) > protocol->ucMaxCommSize)
 8004fec:	8943      	ldrh	r3, [r0, #10]
    size += (uint16)protocol->ucFRAMEData[addrOffset + 1] << 8;
 8004fee:	f8b2 4005 	ldrh.w	r4, [r2, #5]
    type = protocol->ucFRAMEData[addrOffset + 2];
 8004ff2:	79d1      	ldrb	r1, [r2, #7]
    if ((size + 2) > protocol->ucMaxCommSize)
 8004ff4:	1c65      	adds	r5, r4, #1
 8004ff6:	429d      	cmp	r5, r3
 8004ff8:	da0f      	bge.n	800501a <getRAMBlock+0x32>
                ((uint32) protocol->ucFRAMEData[4] << 24));
#else
#error ADDRESS WIDTH NOT DEFINED
#endif

        switch (type)
 8004ffa:	3901      	subs	r1, #1
                ((uint32) protocol->ucFRAMEData[3] << 16) + \
 8004ffc:	f8d2 3001 	ldr.w	r3, [r2, #1]
        switch (type)
 8005000:	2907      	cmp	r1, #7
 8005002:	d805      	bhi.n	8005010 <getRAMBlock+0x28>
 8005004:	e8df f001 	tbb	[pc, r1]
 8005008:	8304654a 	.word	0x8304654a
 800500c:	0e040404 	.word	0x0e040404
    }
    else
    {
        sendError(protocol, errorID);
    }
}
 8005010:	e8bd 4070 	ldmia.w	sp!, {r4, r5, r6, lr}
        switch (type)
 8005014:	2114      	movs	r1, #20
        sendError(protocol, errorID);
 8005016:	f001 bd89 	b.w	8006b2c <sendError>
}
 800501a:	e8bd 4070 	ldmia.w	sp!, {r4, r5, r6, lr}
        errorID = ERRORSizeTooLarge;
 800501e:	2115      	movs	r1, #21
        sendError(protocol, errorID);
 8005020:	f001 bd84 	b.w	8006b2c <sendError>
            	for (i=0;i<size;i+=8)
 8005024:	2100      	movs	r1, #0
 8005026:	2c00      	cmp	r4, #0
 8005028:	d030      	beq.n	800508c <getRAMBlock+0xa4>
 800502a:	fa1f fc81 	uxth.w	ip, r1
                    protocol->ucFRAMEData[2 + i] = (uint8) *addr64;
 800502e:	4462      	add	r2, ip
 8005030:	58cd      	ldr	r5, [r1, r3]
 8005032:	7095      	strb	r5, [r2, #2]
                    protocol->ucFRAMEData[2 + i + 1] = (uint8) ((*addr64) >> 8);
 8005034:	68c2      	ldr	r2, [r0, #12]
 8005036:	58cd      	ldr	r5, [r1, r3]
 8005038:	4462      	add	r2, ip
 800503a:	0a2d      	lsrs	r5, r5, #8
 800503c:	70d5      	strb	r5, [r2, #3]
                    protocol->ucFRAMEData[2 + i + 2] = (uint8) ((*addr64) >> 16);
 800503e:	68c2      	ldr	r2, [r0, #12]
 8005040:	58cd      	ldr	r5, [r1, r3]
 8005042:	4462      	add	r2, ip
 8005044:	0c2d      	lsrs	r5, r5, #16
 8005046:	7115      	strb	r5, [r2, #4]
                    protocol->ucFRAMEData[2 + i + 3] = (uint8) ((*addr64) >> 24);
 8005048:	68c2      	ldr	r2, [r0, #12]
 800504a:	58cd      	ldr	r5, [r1, r3]
 800504c:	4462      	add	r2, ip
 800504e:	0e2d      	lsrs	r5, r5, #24
 8005050:	7155      	strb	r5, [r2, #5]
                    protocol->ucFRAMEData[2 + i + 4] = (uint8) ((*addr64) >> 32);
 8005052:	68c5      	ldr	r5, [r0, #12]
 8005054:	18ca      	adds	r2, r1, r3
 8005056:	4465      	add	r5, ip
 8005058:	6856      	ldr	r6, [r2, #4]
 800505a:	71ae      	strb	r6, [r5, #6]
                    protocol->ucFRAMEData[2 + i + 5] = (uint8) ((*addr64) >> 40);
 800505c:	68c5      	ldr	r5, [r0, #12]
 800505e:	eb05 0e0c 	add.w	lr, r5, ip
 8005062:	6855      	ldr	r5, [r2, #4]
 8005064:	0a2d      	lsrs	r5, r5, #8
 8005066:	f88e 5007 	strb.w	r5, [lr, #7]
                    protocol->ucFRAMEData[2 + i + 6] = (uint8) ((*addr64) >> 48);
 800506a:	68c5      	ldr	r5, [r0, #12]
 800506c:	eb05 0e0c 	add.w	lr, r5, ip
 8005070:	88d5      	ldrh	r5, [r2, #6]
 8005072:	f88e 5008 	strb.w	r5, [lr, #8]
                    protocol->ucFRAMEData[2 + i + 7] = (uint8) ((*addr64++) >> 56);
 8005076:	f892 e007 	ldrb.w	lr, [r2, #7]
 800507a:	68c2      	ldr	r2, [r0, #12]
            	for (i=0;i<size;i+=8)
 800507c:	3108      	adds	r1, #8
                    protocol->ucFRAMEData[2 + i + 7] = (uint8) ((*addr64++) >> 56);
 800507e:	4462      	add	r2, ip
            	for (i=0;i<size;i+=8)
 8005080:	b28d      	uxth	r5, r1
                    protocol->ucFRAMEData[2 + i + 7] = (uint8) ((*addr64++) >> 56);
 8005082:	f882 e009 	strb.w	lr, [r2, #9]
            	for (i=0;i<size;i+=8)
 8005086:	42a5      	cmp	r5, r4
        protocol->ucFRAMEData[1] = errorID;
 8005088:	68c2      	ldr	r2, [r0, #12]
            	for (i=0;i<size;i+=8)
 800508a:	d3ce      	bcc.n	800502a <getRAMBlock+0x42>
        protocol->ucFRAMESize = size + 2;
 800508c:	3402      	adds	r4, #2
        protocol->ucFRAMEData[1] = errorID;
 800508e:	2300      	movs	r3, #0
        protocol->ucFRAMESize = size + 2;
 8005090:	8104      	strh	r4, [r0, #8]
        protocol->ucFRAMEData[1] = errorID;
 8005092:	7053      	strb	r3, [r2, #1]
}
 8005094:	e8bd 4070 	ldmia.w	sp!, {r4, r5, r6, lr}
        protocol->pSnd_Enable(protocol);
 8005098:	6843      	ldr	r3, [r0, #4]
 800509a:	4718      	bx	r3
                for (i = 0; i < size; i++)
 800509c:	2c00      	cmp	r4, #0
 800509e:	d0f5      	beq.n	800508c <getRAMBlock+0xa4>
                    protocol->ucFRAMEData[2 + i] = (uint8) *addr8++;
 80050a0:	4619      	mov	r1, r3
                for (i = 0; i < size; i++)
 80050a2:	2c01      	cmp	r4, #1
                    protocol->ucFRAMEData[2 + i] = (uint8) *addr8++;
 80050a4:	f811 5b01 	ldrb.w	r5, [r1], #1
 80050a8:	7095      	strb	r5, [r2, #2]
                for (i = 0; i < size; i++)
 80050aa:	d010      	beq.n	80050ce <getRAMBlock+0xe6>
 80050ac:	3302      	adds	r3, #2
 80050ae:	f1a4 0c02 	sub.w	ip, r4, #2
 80050b2:	fa13 fc8c 	uxtah	ip, r3, ip
                    protocol->ucFRAMEData[2 + i] = (uint8) *addr8++;
 80050b6:	f1c1 0e02 	rsb	lr, r1, #2
 80050ba:	460b      	mov	r3, r1
 80050bc:	3101      	adds	r1, #1
 80050be:	781d      	ldrb	r5, [r3, #0]
 80050c0:	68c2      	ldr	r2, [r0, #12]
 80050c2:	eb01 030e 	add.w	r3, r1, lr
 80050c6:	b29b      	uxth	r3, r3
                for (i = 0; i < size; i++)
 80050c8:	4561      	cmp	r1, ip
                    protocol->ucFRAMEData[2 + i] = (uint8) *addr8++;
 80050ca:	54d5      	strb	r5, [r2, r3]
                for (i = 0; i < size; i++)
 80050cc:	d1f5      	bne.n	80050ba <getRAMBlock+0xd2>
        protocol->ucFRAMEData[1] = errorID;
 80050ce:	68c2      	ldr	r2, [r0, #12]
 80050d0:	e7dc      	b.n	800508c <getRAMBlock+0xa4>
                for (i = 0; i < size; i += 2)
 80050d2:	2c00      	cmp	r4, #0
 80050d4:	d0da      	beq.n	800508c <getRAMBlock+0xa4>
                    protocol->ucFRAMEData[2 + i] = (uint8) *addr16;
 80050d6:	8819      	ldrh	r1, [r3, #0]
 80050d8:	7091      	strb	r1, [r2, #2]
                    protocol->ucFRAMEData[2 + i + 1] = (uint8) ((*addr16++) >> 8);
 80050da:	f833 2b02 	ldrh.w	r2, [r3], #2
 80050de:	68c1      	ldr	r1, [r0, #12]
 80050e0:	0a12      	lsrs	r2, r2, #8
                for (i = 0; i < size; i += 2)
 80050e2:	2c02      	cmp	r4, #2
                    protocol->ucFRAMEData[2 + i + 1] = (uint8) ((*addr16++) >> 8);
 80050e4:	70ca      	strb	r2, [r1, #3]
                for (i = 0; i < size; i += 2)
 80050e6:	bf88      	it	hi
 80050e8:	2202      	movhi	r2, #2
 80050ea:	d9f0      	bls.n	80050ce <getRAMBlock+0xe6>
                    protocol->ucFRAMEData[2 + i] = (uint8) *addr16;
 80050ec:	68c1      	ldr	r1, [r0, #12]
 80050ee:	881d      	ldrh	r5, [r3, #0]
 80050f0:	4411      	add	r1, r2
                    protocol->ucFRAMEData[2 + i + 1] = (uint8) ((*addr16++) >> 8);
 80050f2:	3302      	adds	r3, #2
                    protocol->ucFRAMEData[2 + i] = (uint8) *addr16;
 80050f4:	708d      	strb	r5, [r1, #2]
                    protocol->ucFRAMEData[2 + i + 1] = (uint8) ((*addr16++) >> 8);
 80050f6:	68c1      	ldr	r1, [r0, #12]
 80050f8:	f833 5c02 	ldrh.w	r5, [r3, #-2]
 80050fc:	4411      	add	r1, r2
                for (i = 0; i < size; i += 2)
 80050fe:	3202      	adds	r2, #2
 8005100:	b292      	uxth	r2, r2
                    protocol->ucFRAMEData[2 + i + 1] = (uint8) ((*addr16++) >> 8);
 8005102:	0a2d      	lsrs	r5, r5, #8
                for (i = 0; i < size; i += 2)
 8005104:	4294      	cmp	r4, r2
                    protocol->ucFRAMEData[2 + i + 1] = (uint8) ((*addr16++) >> 8);
 8005106:	70cd      	strb	r5, [r1, #3]
                for (i = 0; i < size; i += 2)
 8005108:	d8f0      	bhi.n	80050ec <getRAMBlock+0x104>
        protocol->ucFRAMEData[1] = errorID;
 800510a:	68c2      	ldr	r2, [r0, #12]
 800510c:	e7be      	b.n	800508c <getRAMBlock+0xa4>
                for (i = 0; i < size; i += 4)
 800510e:	2100      	movs	r1, #0
 8005110:	2c00      	cmp	r4, #0
 8005112:	d0bb      	beq.n	800508c <getRAMBlock+0xa4>
                    protocol->ucFRAMEData[2 + i] = (uint8) *addr32;
 8005114:	fa1f fc81 	uxth.w	ip, r1
 8005118:	4462      	add	r2, ip
 800511a:	585d      	ldr	r5, [r3, r1]
 800511c:	7095      	strb	r5, [r2, #2]
                    protocol->ucFRAMEData[2 + i + 1] = (uint8) ((*addr32) >> 8);
 800511e:	68c2      	ldr	r2, [r0, #12]
 8005120:	585d      	ldr	r5, [r3, r1]
 8005122:	4462      	add	r2, ip
 8005124:	0a2d      	lsrs	r5, r5, #8
 8005126:	70d5      	strb	r5, [r2, #3]
                    protocol->ucFRAMEData[2 + i + 2] = (uint8) ((*addr32) >> 16);
 8005128:	68c2      	ldr	r2, [r0, #12]
 800512a:	585d      	ldr	r5, [r3, r1]
 800512c:	4462      	add	r2, ip
 800512e:	0c2d      	lsrs	r5, r5, #16
 8005130:	7115      	strb	r5, [r2, #4]
                    protocol->ucFRAMEData[2 + i + 3] = (uint8) ((*addr32++) >> 24);
 8005132:	68c2      	ldr	r2, [r0, #12]
 8005134:	585d      	ldr	r5, [r3, r1]
 8005136:	4462      	add	r2, ip
                for (i = 0; i < size; i += 4)
 8005138:	3104      	adds	r1, #4
                    protocol->ucFRAMEData[2 + i + 3] = (uint8) ((*addr32++) >> 24);
 800513a:	0e2d      	lsrs	r5, r5, #24
 800513c:	7155      	strb	r5, [r2, #5]
                for (i = 0; i < size; i += 4)
 800513e:	b28a      	uxth	r2, r1
 8005140:	42a2      	cmp	r2, r4
        protocol->ucFRAMEData[1] = errorID;
 8005142:	68c2      	ldr	r2, [r0, #12]
                for (i = 0; i < size; i += 4)
 8005144:	d3e6      	bcc.n	8005114 <getRAMBlock+0x12c>
 8005146:	e7a1      	b.n	800508c <getRAMBlock+0xa4>

08005148 <putBlockData>:
 *
 * @note This service is not protected by payload length protection.
 *       It's not required because response frame length <= request frame.
 */
void putBlockData(tProtocol* protocol)
{
 8005148:	b570      	push	{r4, r5, r6, lr}
#error ADDRESS WIDTH NOT DEFINED
#endif
    id = *addr;

    i = 0;
    while ((id != TableStruct->TFncTable[i].iBlockID) && (TableStruct->TFncTable[i].iBlockID != 0))
 800514a:	4b22      	ldr	r3, [pc, #136]	@ (80051d4 <putBlockData+0x8c>)
    addr = (uint16*) ((uint32) protocol->ucFRAMEData[1] + \
 800514c:	68c6      	ldr	r6, [r0, #12]
    while ((id != TableStruct->TFncTable[i].iBlockID) && (TableStruct->TFncTable[i].iBlockID != 0))
 800514e:	6819      	ldr	r1, [r3, #0]
{
 8005150:	4605      	mov	r5, r0
    while ((id != TableStruct->TFncTable[i].iBlockID) && (TableStruct->TFncTable[i].iBlockID != 0))
 8005152:	684b      	ldr	r3, [r1, #4]
    		((uint32) protocol->ucFRAMEData[3] << 16) + \
 8005154:	f8d6 0001 	ldr.w	r0, [r6, #1]
    while ((id != TableStruct->TFncTable[i].iBlockID) && (TableStruct->TFncTable[i].iBlockID != 0))
 8005158:	881b      	ldrh	r3, [r3, #0]
    id = *addr;
 800515a:	f8b0 e000 	ldrh.w	lr, [r0]
    while ((id != TableStruct->TFncTable[i].iBlockID) && (TableStruct->TFncTable[i].iBlockID != 0))
 800515e:	4573      	cmp	r3, lr
 8005160:	bf08      	it	eq
 8005162:	f04f 0c00 	moveq.w	ip, #0
 8005166:	d012      	beq.n	800518e <putBlockData+0x46>
    i = 0;
 8005168:	2300      	movs	r3, #0
    while ((id != TableStruct->TFncTable[i].iBlockID) && (TableStruct->TFncTable[i].iBlockID != 0))
 800516a:	469c      	mov	ip, r3
 800516c:	e006      	b.n	800517c <putBlockData+0x34>
 800516e:	684c      	ldr	r4, [r1, #4]
 8005170:	ea4f 0cc2 	mov.w	ip, r2, lsl #3
 8005174:	f834 2032 	ldrh.w	r2, [r4, r2, lsl #3]
 8005178:	4572      	cmp	r2, lr
 800517a:	d008      	beq.n	800518e <putBlockData+0x46>
 800517c:	684c      	ldr	r4, [r1, #4]
    {
        i++;
 800517e:	3301      	adds	r3, #1
    while ((id != TableStruct->TFncTable[i].iBlockID) && (TableStruct->TFncTable[i].iBlockID != 0))
 8005180:	f834 400c 	ldrh.w	r4, [r4, ip]
        i++;
 8005184:	b29b      	uxth	r3, r3
    while ((id != TableStruct->TFncTable[i].iBlockID) && (TableStruct->TFncTable[i].iBlockID != 0))
 8005186:	eb03 0243 	add.w	r2, r3, r3, lsl #1
 800518a:	2c00      	cmp	r4, #0
 800518c:	d1ef      	bne.n	800516e <putBlockData+0x26>
    }
    if (TableStruct->TFncTable[i].iBlockID == 0)
 800518e:	684b      	ldr	r3, [r1, #4]
 8005190:	f833 300c 	ldrh.w	r3, [r3, ip]
 8005194:	b1bb      	cbz	r3, 80051c6 <putBlockData+0x7e>
    {
        /* if correct block id was not found -> return wrong block id error */
        sendError(protocol, ERRORBlkID);
    } else {
        if (TableStruct->TFncTable[i].pFSave(addr,
 8005196:	684b      	ldr	r3, [r1, #4]
 8005198:	892a      	ldrh	r2, [r5, #8]
 800519a:	4463      	add	r3, ip
 800519c:	3a05      	subs	r2, #5
 800519e:	691b      	ldr	r3, [r3, #16]
 80051a0:	1d71      	adds	r1, r6, #5
 80051a2:	b292      	uxth	r2, r2
 80051a4:	4798      	blx	r3
 80051a6:	b940      	cbnz	r0, 80051ba <putBlockData+0x72>
            sendError(protocol, ERRORFormat);
        }
        else
        {
            protocol->ucFRAMESize = 2;
            protocol->ucFRAMEData[1] = ERRORSuccess;
 80051a8:	68eb      	ldr	r3, [r5, #12]
            protocol->ucFRAMESize = 2;
 80051aa:	2202      	movs	r2, #2
 80051ac:	812a      	strh	r2, [r5, #8]
            protocol->ucFRAMEData[1] = ERRORSuccess;
 80051ae:	7058      	strb	r0, [r3, #1]
            protocol->pSnd_Enable(protocol);
 80051b0:	686b      	ldr	r3, [r5, #4]
 80051b2:	4628      	mov	r0, r5
        }
    }
}
 80051b4:	e8bd 4070 	ldmia.w	sp!, {r4, r5, r6, lr}
            protocol->pSnd_Enable(protocol);
 80051b8:	4718      	bx	r3
            sendError(protocol, ERRORFormat);
 80051ba:	4628      	mov	r0, r5
 80051bc:	2114      	movs	r1, #20
}
 80051be:	e8bd 4070 	ldmia.w	sp!, {r4, r5, r6, lr}
            sendError(protocol, ERRORFormat);
 80051c2:	f001 bcb3 	b.w	8006b2c <sendError>
        sendError(protocol, ERRORBlkID);
 80051c6:	4628      	mov	r0, r5
 80051c8:	2141      	movs	r1, #65	@ 0x41
}
 80051ca:	e8bd 4070 	ldmia.w	sp!, {r4, r5, r6, lr}
        sendError(protocol, ERRORBlkID);
 80051ce:	f001 bcad 	b.w	8006b2c <sendError>
 80051d2:	bf00      	nop
 80051d4:	20000024 	.word	0x20000024

080051d8 <getBlockData>:
 *
 * @note This service is not protected by payload length protection.
 *       Implementation is currently not possible => see line with pFLoad instruction.
 */
void getBlockData(tProtocol* protocol)
{
 80051d8:	b570      	push	{r4, r5, r6, lr}
#error ADDRESS WIDTH NOT DEFINED
#endif
    id = *addr;

    i = 0;
    while ((id != TableStruct->TFncTable[i].iBlockID) && (TableStruct->TFncTable[i].iBlockID != 0))
 80051da:	4b23      	ldr	r3, [pc, #140]	@ (8005268 <getBlockData+0x90>)
        addr = (uint16*) ((uint32) protocol->ucFRAMEData[1] + \
 80051dc:	68c6      	ldr	r6, [r0, #12]
    while ((id != TableStruct->TFncTable[i].iBlockID) && (TableStruct->TFncTable[i].iBlockID != 0))
 80051de:	6819      	ldr	r1, [r3, #0]
{
 80051e0:	4605      	mov	r5, r0
    while ((id != TableStruct->TFncTable[i].iBlockID) && (TableStruct->TFncTable[i].iBlockID != 0))
 80051e2:	684b      	ldr	r3, [r1, #4]
                ((uint32) protocol->ucFRAMEData[3] << 16) + \
 80051e4:	f8d6 0001 	ldr.w	r0, [r6, #1]
    while ((id != TableStruct->TFncTable[i].iBlockID) && (TableStruct->TFncTable[i].iBlockID != 0))
 80051e8:	881b      	ldrh	r3, [r3, #0]
    id = *addr;
 80051ea:	f8b0 e000 	ldrh.w	lr, [r0]
    while ((id != TableStruct->TFncTable[i].iBlockID) && (TableStruct->TFncTable[i].iBlockID != 0))
 80051ee:	4573      	cmp	r3, lr
 80051f0:	bf08      	it	eq
 80051f2:	f04f 0c00 	moveq.w	ip, #0
 80051f6:	d012      	beq.n	800521e <getBlockData+0x46>
    i = 0;
 80051f8:	2300      	movs	r3, #0
    while ((id != TableStruct->TFncTable[i].iBlockID) && (TableStruct->TFncTable[i].iBlockID != 0))
 80051fa:	469c      	mov	ip, r3
 80051fc:	e006      	b.n	800520c <getBlockData+0x34>
 80051fe:	684c      	ldr	r4, [r1, #4]
 8005200:	ea4f 0cc2 	mov.w	ip, r2, lsl #3
 8005204:	f834 2032 	ldrh.w	r2, [r4, r2, lsl #3]
 8005208:	4572      	cmp	r2, lr
 800520a:	d008      	beq.n	800521e <getBlockData+0x46>
 800520c:	684c      	ldr	r4, [r1, #4]
    {
        i++;
 800520e:	3301      	adds	r3, #1
    while ((id != TableStruct->TFncTable[i].iBlockID) && (TableStruct->TFncTable[i].iBlockID != 0))
 8005210:	f834 400c 	ldrh.w	r4, [r4, ip]
        i++;
 8005214:	b29b      	uxth	r3, r3
    while ((id != TableStruct->TFncTable[i].iBlockID) && (TableStruct->TFncTable[i].iBlockID != 0))
 8005216:	eb03 0243 	add.w	r2, r3, r3, lsl #1
 800521a:	2c00      	cmp	r4, #0
 800521c:	d1ef      	bne.n	80051fe <getBlockData+0x26>
    }
    if (TableStruct->TFncTable[i].iBlockID == 0)
 800521e:	684b      	ldr	r3, [r1, #4]
 8005220:	f833 300c 	ldrh.w	r3, [r3, ip]
 8005224:	b1d3      	cbz	r3, 800525c <getBlockData+0x84>
        /* if correct block id was not found -> return wrong block id error */
        sendError(protocol, ERRORBlkID);
    }
    else
    {
    	if (TableStruct->TFncTable[i].pFLoad(addr, protocol->ucFRAMEData + 2, &(protocol->ucFRAMESize), protocol->ucMaxCommSize - 2))
 8005226:	684b      	ldr	r3, [r1, #4]
 8005228:	4463      	add	r3, ip
 800522a:	1cb1      	adds	r1, r6, #2
 800522c:	68dc      	ldr	r4, [r3, #12]
 800522e:	896b      	ldrh	r3, [r5, #10]
 8005230:	3b02      	subs	r3, #2
 8005232:	b29b      	uxth	r3, r3
 8005234:	f105 0208 	add.w	r2, r5, #8
 8005238:	47a0      	blx	r4
 800523a:	b948      	cbnz	r0, 8005250 <getBlockData+0x78>
    	{
    		sendError(protocol, ERRORFormat);
    	}
    	else
    	{
    		protocol->ucFRAMESize += 2; /* add overhead size */
 800523c:	892b      	ldrh	r3, [r5, #8]
			protocol->ucFRAMEData[1] = ERRORSuccess;
 800523e:	68ea      	ldr	r2, [r5, #12]
    		protocol->ucFRAMESize += 2; /* add overhead size */
 8005240:	3302      	adds	r3, #2
 8005242:	812b      	strh	r3, [r5, #8]
			protocol->ucFRAMEData[1] = ERRORSuccess;
 8005244:	7050      	strb	r0, [r2, #1]
			protocol->pSnd_Enable(protocol);
 8005246:	686b      	ldr	r3, [r5, #4]
 8005248:	4628      	mov	r0, r5
    	}
    }
}
 800524a:	e8bd 4070 	ldmia.w	sp!, {r4, r5, r6, lr}
			protocol->pSnd_Enable(protocol);
 800524e:	4718      	bx	r3
    		sendError(protocol, ERRORFormat);
 8005250:	4628      	mov	r0, r5
 8005252:	2114      	movs	r1, #20
}
 8005254:	e8bd 4070 	ldmia.w	sp!, {r4, r5, r6, lr}
    		sendError(protocol, ERRORFormat);
 8005258:	f001 bc68 	b.w	8006b2c <sendError>
        sendError(protocol, ERRORBlkID);
 800525c:	4628      	mov	r0, r5
 800525e:	2141      	movs	r1, #65	@ 0x41
}
 8005260:	e8bd 4070 	ldmia.w	sp!, {r4, r5, r6, lr}
        sendError(protocol, ERRORBlkID);
 8005264:	f001 bc62 	b.w	8006b2c <sendError>
 8005268:	20000024 	.word	0x20000024

0800526c <addBlockServices>:
    tSERVICEFunction* pServiceTable = (tSERVICEFunction*) protocol->pServiceTable;
 800526c:	6903      	ldr	r3, [r0, #16]
    pServiceTable[SV_ID_GETBLOCKDATA] = getBlockData;
 800526e:	4905      	ldr	r1, [pc, #20]	@ (8005284 <addBlockServices+0x18>)
    pServiceTable[SV_ID_PUTBLOCKDATA] = putBlockData;
 8005270:	4a05      	ldr	r2, [pc, #20]	@ (8005288 <addBlockServices+0x1c>)
{
 8005272:	b410      	push	{r4}
    pServiceTable[SV_ID_SVGETRAMBLOCK] = getRAMBlock;
 8005274:	4c05      	ldr	r4, [pc, #20]	@ (800528c <addBlockServices+0x20>)
 8005276:	625c      	str	r4, [r3, #36]	@ 0x24
    pServiceTable[SV_ID_PUTBLOCKDATA] = putBlockData;
 8005278:	e9c3 1207 	strd	r1, r2, [r3, #28]
}
 800527c:	f85d 4b04 	ldr.w	r4, [sp], #4
 8005280:	4770      	bx	lr
 8005282:	bf00      	nop
 8005284:	080051d9 	.word	0x080051d9
 8005288:	08005149 	.word	0x08005149
 800528c:	08004fe9 	.word	0x08004fe9

08005290 <crc8ccitt_addValue>:
 *
 * @return New checksum
 */
uint8 crc8ccitt_addValue(uint8 crc, uint8 data)
{
	xored = (uint8)(crc ^ data);
 8005290:	4041      	eors	r1, r0
	newcrc = CRC_TABLE[xored];
 8005292:	4b03      	ldr	r3, [pc, #12]	@ (80052a0 <crc8ccitt_addValue+0x10>)
	xored = (uint8)(crc ^ data);
 8005294:	4a03      	ldr	r2, [pc, #12]	@ (80052a4 <crc8ccitt_addValue+0x14>)
	newcrc = CRC_TABLE[xored];
 8005296:	5c58      	ldrb	r0, [r3, r1]
 8005298:	4b03      	ldr	r3, [pc, #12]	@ (80052a8 <crc8ccitt_addValue+0x18>)
	xored = (uint8)(crc ^ data);
 800529a:	7011      	strb	r1, [r2, #0]
	newcrc = CRC_TABLE[xored];
 800529c:	7018      	strb	r0, [r3, #0]
	return (newcrc);
}
 800529e:	4770      	bx	lr
 80052a0:	08007fcc 	.word	0x08007fcc
 80052a4:	200001f9 	.word	0x200001f9
 80052a8:	200001f8 	.word	0x200001f8

080052ac <crc8ccitt_init>:
 * @return Checksum initialization value
 */
uint8 crc8ccitt_init(void)
{
	return (INIT_VALUE);
}
 80052ac:	20ff      	movs	r0, #255	@ 0xff
 80052ae:	4770      	bx	lr

080052b0 <Common_Update>:
{
	;
}

/** Pseudo Update */
void Common_Update(void* common)
 80052b0:	4770      	bx	lr
 80052b2:	bf00      	nop

080052b4 <Common_Load>:
}

/** Pseudo Load block data */
uint8 Common_Load(const void* common, uint8 data[], uint16* dataLength, uint16 maxSize)
{
	*dataLength = (uint16)0;
 80052b4:	2000      	movs	r0, #0
 80052b6:	8010      	strh	r0, [r2, #0]
    return ((uint8)0);
}
 80052b8:	4770      	bx	lr
 80052ba:	bf00      	nop

080052bc <Common_Save>:
    else
    {
    	retVal = 0;
    }
    return (retVal);
}
 80052bc:	1e10      	subs	r0, r2, #0
 80052be:	bf18      	it	ne
 80052c0:	2001      	movne	r0, #1
 80052c2:	4770      	bx	lr

080052c4 <getAbsValI32>:
 * 
 * @param x 32-bit fixed point input value.
 * @return Absolute value of input.
 */
int32 getAbsValI32(int32 x){
	if (x == ((int32)0x80000000)){
 80052c4:	f1b0 4f00 	cmp.w	r0, #2147483648	@ 0x80000000
 80052c8:	d003      	beq.n	80052d2 <getAbsValI32+0xe>
		x = (int32)0x7FFFFFFF;
	}else if (x < 0){
 80052ca:	2800      	cmp	r0, #0
 80052cc:	bfb8      	it	lt
 80052ce:	4240      	neglt	r0, r0
 80052d0:	4770      	bx	lr
		x = (int32)0x7FFFFFFF;
 80052d2:	f06f 4000 	mvn.w	r0, #2147483648	@ 0x80000000
		x = -(x);
	}
	return (x);
}
 80052d6:	4770      	bx	lr

080052d8 <getAbsValR32>:
 * 
 * @param x 32-bit floating point input value.
 * @return Absolute value of input.
 */
float32 getAbsValR32(float32 x){
	if (x < 0){
 80052d8:	eeb5 0ac0 	vcmpe.f32	s0, #0.0
 80052dc:	eef1 fa10 	vmrs	APSR_nzcv, fpscr
		x = -(x);
 80052e0:	bf48      	it	mi
 80052e2:	eeb1 0a40 	vnegmi.f32	s0, s0
	}
	return (x);
}
 80052e6:	4770      	bx	lr

080052e8 <getIoParamIndex>:
uint8 getIoParamIndex(const tIoParamIdEntry ioParamTbl[], uint16 paramId, uint16* index)
{
	uint16 i;
	uint8 error;

	if (ioParamTbl == 0)
 80052e8:	b1e8      	cbz	r0, 8005326 <getIoParamIndex+0x3e>
{
 80052ea:	b410      	push	{r4}
		error = ERROR_TABLE_NOT_INIT;
	}
	else
	{
		i = 0;
		while ((paramId != ioParamTbl[i].id) && (ioParamTbl[i].id != 0))
 80052ec:	8804      	ldrh	r4, [r0, #0]
 80052ee:	42a1      	cmp	r1, r4
		i = 0;
 80052f0:	f04f 0300 	mov.w	r3, #0
		while ((paramId != ioParamTbl[i].id) && (ioParamTbl[i].id != 0))
 80052f4:	d104      	bne.n	8005300 <getIoParamIndex+0x18>
 80052f6:	e00d      	b.n	8005314 <getIoParamIndex+0x2c>
 80052f8:	f830 4033 	ldrh.w	r4, [r0, r3, lsl #3]
 80052fc:	428c      	cmp	r4, r1
 80052fe:	d009      	beq.n	8005314 <getIoParamIndex+0x2c>
		{
			i++;
 8005300:	3301      	adds	r3, #1
 8005302:	b29b      	uxth	r3, r3
		while ((paramId != ioParamTbl[i].id) && (ioParamTbl[i].id != 0))
 8005304:	2c00      	cmp	r4, #0
 8005306:	d1f7      	bne.n	80052f8 <getIoParamIndex+0x10>
 8005308:	4623      	mov	r3, r4
		}
		if (ioParamTbl[i].id == 0)
		{
			*index = 0;
			error = ERROR_INVALID_ID;
 800530a:	2002      	movs	r0, #2
			*index = i;
			error = ERROR_SUCCESS;
		}
	}
	return (error);
}
 800530c:	f85d 4b04 	ldr.w	r4, [sp], #4
		*index = 0;
 8005310:	8013      	strh	r3, [r2, #0]
}
 8005312:	4770      	bx	lr
			error = ERROR_SUCCESS;
 8005314:	2900      	cmp	r1, #0
 8005316:	bf06      	itte	eq
 8005318:	2300      	moveq	r3, #0
 800531a:	2002      	moveq	r0, #2
 800531c:	2000      	movne	r0, #0
}
 800531e:	f85d 4b04 	ldr.w	r4, [sp], #4
		*index = 0;
 8005322:	8013      	strh	r3, [r2, #0]
}
 8005324:	4770      	bx	lr
 8005326:	4603      	mov	r3, r0
		*index = 0;
 8005328:	8013      	strh	r3, [r2, #0]
		error = ERROR_TABLE_NOT_INIT;
 800532a:	2001      	movs	r0, #1
}
 800532c:	4770      	bx	lr
 800532e:	bf00      	nop

08005330 <getBlockParamIndex>:
{
	uint16 i;
	uint8 error;

	/* send parameter ID error if no parameter table has been initialized */
	if (paramTable == 0)
 8005330:	b1e8      	cbz	r0, 800536e <getBlockParamIndex+0x3e>
{
 8005332:	b410      	push	{r4}
		error = ERROR_TABLE_NOT_INIT;
	}
	else
	{
		i = 0;
		while((paramId != paramTable[i].uiParID) && (paramTable[i].uiParID != 0))
 8005334:	8804      	ldrh	r4, [r0, #0]
 8005336:	42a1      	cmp	r1, r4
		i = 0;
 8005338:	f04f 0300 	mov.w	r3, #0
		while((paramId != paramTable[i].uiParID) && (paramTable[i].uiParID != 0))
 800533c:	d104      	bne.n	8005348 <getBlockParamIndex+0x18>
 800533e:	e00d      	b.n	800535c <getBlockParamIndex+0x2c>
 8005340:	f830 4033 	ldrh.w	r4, [r0, r3, lsl #3]
 8005344:	428c      	cmp	r4, r1
 8005346:	d009      	beq.n	800535c <getBlockParamIndex+0x2c>
		{
			i++;
 8005348:	3301      	adds	r3, #1
 800534a:	b29b      	uxth	r3, r3
		while((paramId != paramTable[i].uiParID) && (paramTable[i].uiParID != 0))
 800534c:	2c00      	cmp	r4, #0
 800534e:	d1f7      	bne.n	8005340 <getBlockParamIndex+0x10>
 8005350:	4623      	mov	r3, r4
		}
		/* check if parameter is located in parameter table */
		if (paramTable[i].uiParID == 0)
		{
			*index = 0;
			error = ERROR_INVALID_ID;
 8005352:	2002      	movs	r0, #2
			*index = i;
			error = ERROR_SUCCESS;
		}
	}
	return (error);
}
 8005354:	f85d 4b04 	ldr.w	r4, [sp], #4
		*index = 0;
 8005358:	8013      	strh	r3, [r2, #0]
}
 800535a:	4770      	bx	lr
			error = ERROR_SUCCESS;
 800535c:	2900      	cmp	r1, #0
 800535e:	bf06      	itte	eq
 8005360:	2300      	moveq	r3, #0
 8005362:	2002      	moveq	r0, #2
 8005364:	2000      	movne	r0, #0
}
 8005366:	f85d 4b04 	ldr.w	r4, [sp], #4
		*index = 0;
 800536a:	8013      	strh	r3, [r2, #0]
}
 800536c:	4770      	bx	lr
 800536e:	4603      	mov	r3, r0
		*index = 0;
 8005370:	8013      	strh	r3, [r2, #0]
		error = ERROR_TABLE_NOT_INIT;
 8005372:	2001      	movs	r0, #1
}
 8005374:	4770      	bx	lr
 8005376:	bf00      	nop

08005378 <getMaskParamIndex>:
{
	uint16 i;
	uint8 error;

	/* send parameter ID error if no parameter table has been initialized */
	if (mpTable == 0)
 8005378:	b1f8      	cbz	r0, 80053ba <getMaskParamIndex+0x42>
{
 800537a:	b410      	push	{r4}
		error = ERROR_TABLE_NOT_INIT;
	}
	else
	{
		i = 0;
		while((paramId != mpTable[i].id) && (mpTable[i].id != 0))
 800537c:	8804      	ldrh	r4, [r0, #0]
 800537e:	42a1      	cmp	r1, r4
		i = 0;
 8005380:	f04f 0300 	mov.w	r3, #0
		while((paramId != mpTable[i].id) && (mpTable[i].id != 0))
 8005384:	d104      	bne.n	8005390 <getMaskParamIndex+0x18>
 8005386:	e00f      	b.n	80053a8 <getMaskParamIndex+0x30>
 8005388:	f830 402c 	ldrh.w	r4, [r0, ip, lsl #2]
 800538c:	428c      	cmp	r4, r1
 800538e:	d00b      	beq.n	80053a8 <getMaskParamIndex+0x30>
		{
			i++;
 8005390:	3301      	adds	r3, #1
 8005392:	b29b      	uxth	r3, r3
		while((paramId != mpTable[i].id) && (mpTable[i].id != 0))
 8005394:	eb03 0c83 	add.w	ip, r3, r3, lsl #2
 8005398:	2c00      	cmp	r4, #0
 800539a:	d1f5      	bne.n	8005388 <getMaskParamIndex+0x10>
 800539c:	4623      	mov	r3, r4
		}
		/* check if parameter is located in parameter table */
		if (mpTable[i].id == 0)
		{
			*index = 0;
			error = ERROR_INVALID_ID;
 800539e:	2002      	movs	r0, #2
			*index = i;
			error = ERROR_SUCCESS;
		}
	}
	return (error);
}
 80053a0:	f85d 4b04 	ldr.w	r4, [sp], #4
		*index = 0;
 80053a4:	8013      	strh	r3, [r2, #0]
}
 80053a6:	4770      	bx	lr
			error = ERROR_SUCCESS;
 80053a8:	2900      	cmp	r1, #0
 80053aa:	bf06      	itte	eq
 80053ac:	2300      	moveq	r3, #0
 80053ae:	2002      	moveq	r0, #2
 80053b0:	2000      	movne	r0, #0
}
 80053b2:	f85d 4b04 	ldr.w	r4, [sp], #4
		*index = 0;
 80053b6:	8013      	strh	r3, [r2, #0]
}
 80053b8:	4770      	bx	lr
 80053ba:	4603      	mov	r3, r0
		*index = 0;
 80053bc:	8013      	strh	r3, [r2, #0]
		error = ERROR_TABLE_NOT_INIT;
 80053be:	2001      	movs	r0, #1
}
 80053c0:	4770      	bx	lr
 80053c2:	bf00      	nop

080053c4 <getBlockFunctionIndex>:
uint8 getBlockFunctionIndex(const tBlockFunctions* fncTable, uint16 blockId, uint16* index)
{
	uint16 i;
	uint8 error;

	if (fncTable == 0)
 80053c4:	b1f8      	cbz	r0, 8005406 <getBlockFunctionIndex+0x42>
{
 80053c6:	b410      	push	{r4}
		error = ERROR_TABLE_NOT_INIT;
	}
	else
	{
		i = 0;
		while ((blockId != fncTable[i].iBlockID) && (fncTable[i].iBlockID != 0))
 80053c8:	8804      	ldrh	r4, [r0, #0]
 80053ca:	42a1      	cmp	r1, r4
		i = 0;
 80053cc:	f04f 0300 	mov.w	r3, #0
		while ((blockId != fncTable[i].iBlockID) && (fncTable[i].iBlockID != 0))
 80053d0:	d104      	bne.n	80053dc <getBlockFunctionIndex+0x18>
 80053d2:	e00f      	b.n	80053f4 <getBlockFunctionIndex+0x30>
 80053d4:	f830 403c 	ldrh.w	r4, [r0, ip, lsl #3]
 80053d8:	428c      	cmp	r4, r1
 80053da:	d00b      	beq.n	80053f4 <getBlockFunctionIndex+0x30>
		{
			i++;
 80053dc:	3301      	adds	r3, #1
 80053de:	b29b      	uxth	r3, r3
		while ((blockId != fncTable[i].iBlockID) && (fncTable[i].iBlockID != 0))
 80053e0:	eb03 0c43 	add.w	ip, r3, r3, lsl #1
 80053e4:	2c00      	cmp	r4, #0
 80053e6:	d1f5      	bne.n	80053d4 <getBlockFunctionIndex+0x10>
 80053e8:	4623      	mov	r3, r4
		}

		if (fncTable[i].iBlockID == 0)
		{
			*index = 0;
			error = ERROR_INVALID_ID;
 80053ea:	2002      	movs	r0, #2
			*index = i;
			error = ERROR_SUCCESS;
		}
	}
	return (error);
}
 80053ec:	f85d 4b04 	ldr.w	r4, [sp], #4
		*index = 0;
 80053f0:	8013      	strh	r3, [r2, #0]
}
 80053f2:	4770      	bx	lr
			error = ERROR_SUCCESS;
 80053f4:	2900      	cmp	r1, #0
 80053f6:	bf06      	itte	eq
 80053f8:	2300      	moveq	r3, #0
 80053fa:	2002      	moveq	r0, #2
 80053fc:	2000      	movne	r0, #0
}
 80053fe:	f85d 4b04 	ldr.w	r4, [sp], #4
		*index = 0;
 8005402:	8013      	strh	r3, [r2, #0]
}
 8005404:	4770      	bx	lr
 8005406:	4603      	mov	r3, r0
		*index = 0;
 8005408:	8013      	strh	r3, [r2, #0]
		error = ERROR_TABLE_NOT_INIT;
 800540a:	2001      	movs	r0, #1
}
 800540c:	4770      	bx	lr
 800540e:	bf00      	nop

08005410 <enableSend>:

/* enable send procedure / disable receive procedure */
static void enableSend(tLNet* protocol)
{
	protocol->commState = SEND_ALLOWED;
	protocol->txState = LNET_STATE_SYN;
 8005410:	f44f 7380 	mov.w	r3, #256	@ 0x100
 8005414:	8543      	strh	r3, [r0, #42]	@ 0x2a
}
 8005416:	4770      	bx	lr

08005418 <setupRxTimeout>:
	enableReceive(protocol);
}

static void setupRxTimeout(tLNet* protocol, uint16 timeout)
{
	protocol->rxTimeout = timeout;
 8005418:	8481      	strh	r1, [r0, #36]	@ 0x24
}
 800541a:	4770      	bx	lr

0800541c <resetRxTimeout>:
	}
}

static void resetRxTimeout(tLNet* protocol)
{
	protocol->rxTimeoutCnt = protocol->rxTimeout;
 800541c:	8c83      	ldrh	r3, [r0, #36]	@ 0x24
 800541e:	84c3      	strh	r3, [r0, #38]	@ 0x26
}
 8005420:	4770      	bx	lr
 8005422:	bf00      	nop

08005424 <communicate>:
{
 8005424:	e92d 47f0 	stmdb	sp!, {r4, r5, r6, r7, r8, r9, sl, lr}
	while ((protocol->commState == SEND_ALLOWED) && protocol->hwInterface->isSendReady(HW_INTERFACE))
 8005428:	f890 302b 	ldrb.w	r3, [r0, #43]	@ 0x2b
 800542c:	2b01      	cmp	r3, #1
{
 800542e:	4604      	mov	r4, r0
	while ((protocol->commState == SEND_ALLOWED) && protocol->hwInterface->isSendReady(HW_INTERFACE))
 8005430:	d14a      	bne.n	80054c8 <communicate+0xa4>
				tmp = (uint8)(protocol->frameSize >> 8);
 8005432:	4ea3      	ldr	r6, [pc, #652]	@ (80056c0 <communicate+0x29c>)
				protocol->hwInterface->send(HW_INTERFACE, LNET_FILL);
 8005434:	2700      	movs	r7, #0
	while ((protocol->commState == SEND_ALLOWED) && protocol->hwInterface->isSendReady(HW_INTERFACE))
 8005436:	6960      	ldr	r0, [r4, #20]
 8005438:	68c3      	ldr	r3, [r0, #12]
 800543a:	4798      	blx	r3
 800543c:	2800      	cmp	r0, #0
 800543e:	f000 8248 	beq.w	80058d2 <communicate+0x4ae>
		switch (protocol->txState)
 8005442:	f894 502a 	ldrb.w	r5, [r4, #42]	@ 0x2a
 8005446:	2d06      	cmp	r5, #6
 8005448:	d813      	bhi.n	8005472 <communicate+0x4e>
 800544a:	e8df f005 	tbb	[pc, r5]
 800544e:	b9a6      	.short	0xb9a6
 8005450:	3151758e 	.word	0x3151758e
 8005454:	04          	.byte	0x04
 8005455:	00          	.byte	0x00
				protocol->crc &= 0xFF;
 8005456:	f894 102c 	ldrb.w	r1, [r4, #44]	@ 0x2c
				if ((protocol->crc == LNET_STD_SYN) || (protocol->crc == LNET_OSM_SYN))
 800545a:	2955      	cmp	r1, #85	@ 0x55
 800545c:	f000 815b 	beq.w	8005716 <communicate+0x2f2>
 8005460:	2902      	cmp	r1, #2
 8005462:	f000 8158 	beq.w	8005716 <communicate+0x2f2>
				protocol->hwInterface->send(HW_INTERFACE, protocol->crc);
 8005466:	6960      	ldr	r0, [r4, #20]
 8005468:	6803      	ldr	r3, [r0, #0]
 800546a:	4798      	blx	r3
				protocol->hwInterface->flush(HW_INTERFACE);
 800546c:	6960      	ldr	r0, [r4, #20]
 800546e:	6943      	ldr	r3, [r0, #20]
 8005470:	4798      	blx	r3
	protocol->commState = RECEIVE_ALLOWED;
 8005472:	2300      	movs	r3, #0
 8005474:	f884 302b 	strb.w	r3, [r4, #43]	@ 0x2b
	protocol->rxState = LNET_STATE_SYN;
 8005478:	f884 3029 	strb.w	r3, [r4, #41]	@ 0x29
				tmpSize += ((uint16)msg << 8);
 800547c:	4e91      	ldr	r6, [pc, #580]	@ (80056c4 <communicate+0x2a0>)
					protocol->rxState = LNET_STATE_SYN;
 800547e:	2700      	movs	r7, #0
	while ((protocol->commState == RECEIVE_ALLOWED) && protocol->hwInterface->isReceiveDataAvailable(HW_INTERFACE))
 8005480:	6960      	ldr	r0, [r4, #20]
 8005482:	6883      	ldr	r3, [r0, #8]
 8005484:	4798      	blx	r3
 8005486:	b308      	cbz	r0, 80054cc <communicate+0xa8>
		msg = protocol->hwInterface->receive(HW_INTERFACE);
 8005488:	6960      	ldr	r0, [r4, #20]
	protocol->rxTimeoutCnt = protocol->rxTimeout;
 800548a:	8ca2      	ldrh	r2, [r4, #36]	@ 0x24
		msg = protocol->hwInterface->receive(HW_INTERFACE);
 800548c:	6843      	ldr	r3, [r0, #4]
	protocol->rxTimeoutCnt = protocol->rxTimeout;
 800548e:	84e2      	strh	r2, [r4, #38]	@ 0x26
		msg = protocol->hwInterface->receive(HW_INTERFACE);
 8005490:	4798      	blx	r3
		switch (protocol->rxState)
 8005492:	f894 3029 	ldrb.w	r3, [r4, #41]	@ 0x29
		msg = protocol->hwInterface->receive(HW_INTERFACE);
 8005496:	4605      	mov	r5, r0
		switch (protocol->rxState)
 8005498:	2b06      	cmp	r3, #6
 800549a:	f200 8238 	bhi.w	800590e <communicate+0x4ea>
 800549e:	e8df f013 	tbh	[pc, r3, lsl #1]
 80054a2:	0100      	.short	0x0100
 80054a4:	011500f7 	.word	0x011500f7
 80054a8:	00c900e7 	.word	0x00c900e7
 80054ac:	00a900bc 	.word	0x00a900bc
				protocol->hwInterface->send(HW_INTERFACE, LNET_FILL);
 80054b0:	6960      	ldr	r0, [r4, #20]
 80054b2:	2100      	movs	r1, #0
 80054b4:	6803      	ldr	r3, [r0, #0]
 80054b6:	4798      	blx	r3
				protocol->txState = protocol->nextState;
 80054b8:	f894 3030 	ldrb.w	r3, [r4, #48]	@ 0x30
 80054bc:	f884 302a 	strb.w	r3, [r4, #42]	@ 0x2a
	while ((protocol->commState == SEND_ALLOWED) && protocol->hwInterface->isSendReady(HW_INTERFACE))
 80054c0:	f894 302b 	ldrb.w	r3, [r4, #43]	@ 0x2b
 80054c4:	2b01      	cmp	r3, #1
 80054c6:	d0b6      	beq.n	8005436 <communicate+0x12>
	while ((protocol->commState == RECEIVE_ALLOWED) && protocol->hwInterface->isReceiveDataAvailable(HW_INTERFACE))
 80054c8:	2b00      	cmp	r3, #0
 80054ca:	d0d7      	beq.n	800547c <communicate+0x58>
	if (protocol->rxTimeoutCnt == 0)
 80054cc:	8ce3      	ldrh	r3, [r4, #38]	@ 0x26
 80054ce:	b91b      	cbnz	r3, 80054d8 <communicate+0xb4>
	protocol->rxTimeoutCnt = protocol->rxTimeout;
 80054d0:	8ca2      	ldrh	r2, [r4, #36]	@ 0x24
		protocol->rxState = LNET_STATE_SYN;
 80054d2:	f884 3029 	strb.w	r3, [r4, #41]	@ 0x29
	protocol->rxTimeoutCnt = protocol->rxTimeout;
 80054d6:	84e2      	strh	r2, [r4, #38]	@ 0x26
	if ((TableStruct->piScope != 0) && (TableStruct->piScope->state == SCOPE_SAMPLE_ONLINE))
 80054d8:	4e7b      	ldr	r6, [pc, #492]	@ (80056c8 <communicate+0x2a4>)
 80054da:	6833      	ldr	r3, [r6, #0]
 80054dc:	6a9a      	ldr	r2, [r3, #40]	@ 0x28
 80054de:	b12a      	cbz	r2, 80054ec <communicate+0xc8>
 80054e0:	6a9a      	ldr	r2, [r3, #40]	@ 0x28
 80054e2:	f892 204d 	ldrb.w	r2, [r2, #77]	@ 0x4d
 80054e6:	2a04      	cmp	r2, #4
 80054e8:	f000 8169 	beq.w	80057be <communicate+0x39a>
}
 80054ec:	e8bd 87f0 	ldmia.w	sp!, {r4, r5, r6, r7, r8, r9, sl, pc}
				protocol->frameData[protocol->frameBufferPtr] &= 0xFF;
 80054f0:	8de3      	ldrh	r3, [r4, #46]	@ 0x2e
 80054f2:	68e2      	ldr	r2, [r4, #12]
	protocol->crc = crc8ccitt_addValue(protocol->crc, data);
 80054f4:	f894 002c 	ldrb.w	r0, [r4, #44]	@ 0x2c
 80054f8:	5cd1      	ldrb	r1, [r2, r3]
 80054fa:	f7ff fec9 	bl	8005290 <crc8ccitt_addValue>
				protocol->hwInterface->send(HW_INTERFACE, protocol->frameData[protocol->frameBufferPtr]);
 80054fe:	6963      	ldr	r3, [r4, #20]
 8005500:	8de2      	ldrh	r2, [r4, #46]	@ 0x2e
 8005502:	68e1      	ldr	r1, [r4, #12]
	protocol->crc = crc8ccitt_addValue(protocol->crc, data);
 8005504:	f884 002c 	strb.w	r0, [r4, #44]	@ 0x2c
				protocol->hwInterface->send(HW_INTERFACE, protocol->frameData[protocol->frameBufferPtr]);
 8005508:	5c89      	ldrb	r1, [r1, r2]
 800550a:	681a      	ldr	r2, [r3, #0]
 800550c:	4618      	mov	r0, r3
 800550e:	4790      	blx	r2
				if ((protocol->frameBufferPtr + 1) >= protocol->frameSize)
 8005510:	8de2      	ldrh	r2, [r4, #46]	@ 0x2e
 8005512:	8921      	ldrh	r1, [r4, #8]
 8005514:	1c53      	adds	r3, r2, #1
 8005516:	428b      	cmp	r3, r1
					checkFill(protocol, protocol->frameData[protocol->frameBufferPtr], \
 8005518:	68e1      	ldr	r1, [r4, #12]
 800551a:	5c8a      	ldrb	r2, [r1, r2]
				if ((protocol->frameBufferPtr + 1) >= protocol->frameSize)
 800551c:	f2c0 8128 	blt.w	8005770 <communicate+0x34c>
	if ((data == LNET_STD_SYN) || (data == LNET_OSM_SYN))
 8005520:	2a55      	cmp	r2, #85	@ 0x55
 8005522:	f04f 0506 	mov.w	r5, #6
 8005526:	f000 8126 	beq.w	8005776 <communicate+0x352>
 800552a:	2a02      	cmp	r2, #2
 800552c:	f000 8123 	beq.w	8005776 <communicate+0x352>
		*stateVar = state;
 8005530:	f884 502a 	strb.w	r5, [r4, #42]	@ 0x2a
				protocol->frameBufferPtr++;
 8005534:	85e3      	strh	r3, [r4, #46]	@ 0x2e
				break;
 8005536:	e7c3      	b.n	80054c0 <communicate+0x9c>
				tmp = (uint8)(protocol->frameSize >> 8);
 8005538:	8921      	ldrh	r1, [r4, #8]
	protocol->crc = crc8ccitt_addValue(protocol->crc, data);
 800553a:	f894 002c 	ldrb.w	r0, [r4, #44]	@ 0x2c
				tmp = (uint8)(protocol->frameSize >> 8);
 800553e:	0a09      	lsrs	r1, r1, #8
 8005540:	7031      	strb	r1, [r6, #0]
	protocol->crc = crc8ccitt_addValue(protocol->crc, data);
 8005542:	f7ff fea5 	bl	8005290 <crc8ccitt_addValue>
				protocol->hwInterface->send(HW_INTERFACE, tmp);
 8005546:	6963      	ldr	r3, [r4, #20]
	protocol->crc = crc8ccitt_addValue(protocol->crc, data);
 8005548:	f884 002c 	strb.w	r0, [r4, #44]	@ 0x2c
				protocol->hwInterface->send(HW_INTERFACE, tmp);
 800554c:	681a      	ldr	r2, [r3, #0]
 800554e:	7831      	ldrb	r1, [r6, #0]
 8005550:	4618      	mov	r0, r3
 8005552:	4790      	blx	r2
				checkFill(protocol, tmp, &protocol->txState, LNET_STATE_DATA);
 8005554:	7833      	ldrb	r3, [r6, #0]
	if ((data == LNET_STD_SYN) || (data == LNET_OSM_SYN))
 8005556:	2b55      	cmp	r3, #85	@ 0x55
 8005558:	f000 80d4 	beq.w	8005704 <communicate+0x2e0>
 800555c:	2b02      	cmp	r3, #2
 800555e:	f000 80d1 	beq.w	8005704 <communicate+0x2e0>
		*stateVar = state;
 8005562:	2304      	movs	r3, #4
 8005564:	f884 302a 	strb.w	r3, [r4, #42]	@ 0x2a
 8005568:	e7aa      	b.n	80054c0 <communicate+0x9c>
				tmp = (uint8)(protocol->frameSize & 0xFF);
 800556a:	7a21      	ldrb	r1, [r4, #8]
	protocol->crc = crc8ccitt_addValue(protocol->crc, data);
 800556c:	f894 002c 	ldrb.w	r0, [r4, #44]	@ 0x2c
				tmp = (uint8)(protocol->frameSize & 0xFF);
 8005570:	7031      	strb	r1, [r6, #0]
	protocol->crc = crc8ccitt_addValue(protocol->crc, data);
 8005572:	f7ff fe8d 	bl	8005290 <crc8ccitt_addValue>
				protocol->hwInterface->send(HW_INTERFACE, tmp);
 8005576:	6963      	ldr	r3, [r4, #20]
	protocol->crc = crc8ccitt_addValue(protocol->crc, data);
 8005578:	f884 002c 	strb.w	r0, [r4, #44]	@ 0x2c
				protocol->hwInterface->send(HW_INTERFACE, tmp);
 800557c:	681a      	ldr	r2, [r3, #0]
 800557e:	7831      	ldrb	r1, [r6, #0]
 8005580:	4618      	mov	r0, r3
 8005582:	4790      	blx	r2
				checkFill(protocol, tmp, &protocol->txState, LNET_STATE_SIZE_MSB);
 8005584:	7833      	ldrb	r3, [r6, #0]
	if ((data == LNET_STD_SYN) || (data == LNET_OSM_SYN))
 8005586:	2b55      	cmp	r3, #85	@ 0x55
 8005588:	f000 80d3 	beq.w	8005732 <communicate+0x30e>
 800558c:	2b02      	cmp	r3, #2
 800558e:	f000 80d0 	beq.w	8005732 <communicate+0x30e>
		*stateVar = state;
 8005592:	2303      	movs	r3, #3
 8005594:	f884 302a 	strb.w	r3, [r4, #42]	@ 0x2a
 8005598:	e792      	b.n	80054c0 <communicate+0x9c>
	protocol->crc = crc8ccitt_init();
 800559a:	f7ff fe87 	bl	80052ac <crc8ccitt_init>
	protocol->crc = crc8ccitt_addValue(protocol->crc, data);
 800559e:	2155      	movs	r1, #85	@ 0x55
	protocol->crc = crc8ccitt_init();
 80055a0:	f884 002c 	strb.w	r0, [r4, #44]	@ 0x2c
	protocol->crc = crc8ccitt_addValue(protocol->crc, data);
 80055a4:	f7ff fe74 	bl	8005290 <crc8ccitt_addValue>
				protocol->hwInterface->send(HW_INTERFACE, LNET_STD_SYN);
 80055a8:	6963      	ldr	r3, [r4, #20]
	protocol->crc = crc8ccitt_addValue(protocol->crc, data);
 80055aa:	f884 002c 	strb.w	r0, [r4, #44]	@ 0x2c
				protocol->hwInterface->send(HW_INTERFACE, LNET_STD_SYN);
 80055ae:	681a      	ldr	r2, [r3, #0]
				protocol->frameBufferPtr = 0;
 80055b0:	85e7      	strh	r7, [r4, #46]	@ 0x2e
				protocol->hwInterface->send(HW_INTERFACE, LNET_STD_SYN);
 80055b2:	4618      	mov	r0, r3
 80055b4:	2155      	movs	r1, #85	@ 0x55
 80055b6:	4790      	blx	r2
				protocol->txState = LNET_STATE_NODE;
 80055b8:	2301      	movs	r3, #1
 80055ba:	f884 302a 	strb.w	r3, [r4, #42]	@ 0x2a
				break;
 80055be:	e77f      	b.n	80054c0 <communicate+0x9c>
	protocol->crc = crc8ccitt_addValue(protocol->crc, data);
 80055c0:	f894 1028 	ldrb.w	r1, [r4, #40]	@ 0x28
 80055c4:	f894 002c 	ldrb.w	r0, [r4, #44]	@ 0x2c
 80055c8:	f7ff fe62 	bl	8005290 <crc8ccitt_addValue>
				protocol->hwInterface->send(HW_INTERFACE, protocol->node);
 80055cc:	6963      	ldr	r3, [r4, #20]
	protocol->crc = crc8ccitt_addValue(protocol->crc, data);
 80055ce:	f884 002c 	strb.w	r0, [r4, #44]	@ 0x2c
				protocol->hwInterface->send(HW_INTERFACE, protocol->node);
 80055d2:	681a      	ldr	r2, [r3, #0]
 80055d4:	f894 1028 	ldrb.w	r1, [r4, #40]	@ 0x28
 80055d8:	4618      	mov	r0, r3
 80055da:	4790      	blx	r2
				checkFill(protocol, protocol->node, &protocol->txState, LNET_STATE_SIZE_LSB);
 80055dc:	f894 3028 	ldrb.w	r3, [r4, #40]	@ 0x28
	if ((data == LNET_STD_SYN) || (data == LNET_OSM_SYN))
 80055e0:	2b55      	cmp	r3, #85	@ 0x55
 80055e2:	f000 809d 	beq.w	8005720 <communicate+0x2fc>
 80055e6:	2b02      	cmp	r3, #2
 80055e8:	f000 809a 	beq.w	8005720 <communicate+0x2fc>
		*stateVar = state;
 80055ec:	2302      	movs	r3, #2
 80055ee:	f884 302a 	strb.w	r3, [r4, #42]	@ 0x2a
 80055f2:	e765      	b.n	80054c0 <communicate+0x9c>
				protocol->crc &= 0xFF;
 80055f4:	f894 302c 	ldrb.w	r3, [r4, #44]	@ 0x2c
				if ((protocol->crc == LNET_STD_SYN) || (protocol->crc == LNET_OSM_SYN))
 80055f8:	2b55      	cmp	r3, #85	@ 0x55
 80055fa:	d078      	beq.n	80056ee <communicate+0x2ca>
 80055fc:	2b02      	cmp	r3, #2
 80055fe:	d076      	beq.n	80056ee <communicate+0x2ca>
				if (protocol->crc == msg)
 8005600:	429d      	cmp	r5, r3
 8005602:	d17a      	bne.n	80056fa <communicate+0x2d6>
					if (protocol->frameData[0] <= MAX_SERVICE_ID)
 8005604:	68e3      	ldr	r3, [r4, #12]
 8005606:	781b      	ldrb	r3, [r3, #0]
 8005608:	2b1a      	cmp	r3, #26
 800560a:	f200 8168 	bhi.w	80058de <communicate+0x4ba>
						svTable[protocol->frameData[0]]((tProtocol*)protocol);
 800560e:	6922      	ldr	r2, [r4, #16]
 8005610:	4620      	mov	r0, r4
 8005612:	f852 3023 	ldr.w	r3, [r2, r3, lsl #2]
 8005616:	4798      	blx	r3
 8005618:	e006      	b.n	8005628 <communicate+0x204>
				if (msg == LNET_FILL)
 800561a:	2800      	cmp	r0, #0
 800561c:	f040 80b4 	bne.w	8005788 <communicate+0x364>
					protocol->rxState = protocol->nextState;
 8005620:	f894 3030 	ldrb.w	r3, [r4, #48]	@ 0x30
 8005624:	f884 3029 	strb.w	r3, [r4, #41]	@ 0x29
	while ((protocol->commState == RECEIVE_ALLOWED) && protocol->hwInterface->isReceiveDataAvailable(HW_INTERFACE))
 8005628:	f894 302b 	ldrb.w	r3, [r4, #43]	@ 0x2b
 800562c:	2b00      	cmp	r3, #0
 800562e:	f43f af27 	beq.w	8005480 <communicate+0x5c>
 8005632:	e74b      	b.n	80054cc <communicate+0xa8>
	protocol->crc = crc8ccitt_addValue(protocol->crc, data);
 8005634:	f894 002c 	ldrb.w	r0, [r4, #44]	@ 0x2c
 8005638:	4629      	mov	r1, r5
 800563a:	f7ff fe29 	bl	8005290 <crc8ccitt_addValue>
				protocol->frameData[protocol->frameBufferPtr] = msg;
 800563e:	8de3      	ldrh	r3, [r4, #46]	@ 0x2e
 8005640:	68e2      	ldr	r2, [r4, #12]
	protocol->crc = crc8ccitt_addValue(protocol->crc, data);
 8005642:	f884 002c 	strb.w	r0, [r4, #44]	@ 0x2c
				protocol->frameData[protocol->frameBufferPtr] = msg;
 8005646:	54d5      	strb	r5, [r2, r3]
				protocol->frameBufferPtr++;
 8005648:	8de3      	ldrh	r3, [r4, #46]	@ 0x2e
				if (protocol->frameBufferPtr >= protocol->frameSize)
 800564a:	8922      	ldrh	r2, [r4, #8]
				protocol->frameBufferPtr++;
 800564c:	3301      	adds	r3, #1
 800564e:	b29b      	uxth	r3, r3
				if (protocol->frameBufferPtr >= protocol->frameSize)
 8005650:	429a      	cmp	r2, r3
				protocol->frameBufferPtr++;
 8005652:	85e3      	strh	r3, [r4, #46]	@ 0x2e
				if (protocol->frameBufferPtr >= protocol->frameSize)
 8005654:	f200 8080 	bhi.w	8005758 <communicate+0x334>
	if ((data == LNET_STD_SYN) || (data == LNET_OSM_SYN))
 8005658:	2d55      	cmp	r5, #85	@ 0x55
		protocol->nextState = state;
 800565a:	f04f 0306 	mov.w	r3, #6
	if ((data == LNET_STD_SYN) || (data == LNET_OSM_SYN))
 800565e:	d141      	bne.n	80056e4 <communicate+0x2c0>
		protocol->nextState = state;
 8005660:	f884 3030 	strb.w	r3, [r4, #48]	@ 0x30
		*stateVar = LNET_STATE_FILL;
 8005664:	2305      	movs	r3, #5
		protocol->lastSyn = data;
 8005666:	f884 5031 	strb.w	r5, [r4, #49]	@ 0x31
		*stateVar = LNET_STATE_FILL;
 800566a:	f884 3029 	strb.w	r3, [r4, #41]	@ 0x29
 800566e:	e7db      	b.n	8005628 <communicate+0x204>
				tmpSize += ((uint16)msg << 8);
 8005670:	8833      	ldrh	r3, [r6, #0]
				if (tmpSize > protocol->maxCommSize)
 8005672:	8962      	ldrh	r2, [r4, #10]
				tmpSize += ((uint16)msg << 8);
 8005674:	eb03 2300 	add.w	r3, r3, r0, lsl #8
 8005678:	b29b      	uxth	r3, r3
				if (tmpSize > protocol->maxCommSize)
 800567a:	429a      	cmp	r2, r3
				tmpSize += ((uint16)msg << 8);
 800567c:	8033      	strh	r3, [r6, #0]
				if (tmpSize > protocol->maxCommSize)
 800567e:	d261      	bcs.n	8005744 <communicate+0x320>
	protocol->frameData[0] = serviceId;
 8005680:	68e3      	ldr	r3, [r4, #12]
 8005682:	2200      	movs	r2, #0
 8005684:	701a      	strb	r2, [r3, #0]
	sendError((tProtocol*)protocol, errorId);
 8005686:	2115      	movs	r1, #21
 8005688:	4620      	mov	r0, r4
 800568a:	f001 fa4f 	bl	8006b2c <sendError>
}
 800568e:	e7cb      	b.n	8005628 <communicate+0x204>
				if ((msg != 0) && (msg == protocol->node))
 8005690:	b120      	cbz	r0, 800569c <communicate+0x278>
 8005692:	f894 3028 	ldrb.w	r3, [r4, #40]	@ 0x28
 8005696:	4283      	cmp	r3, r0
 8005698:	f000 812c 	beq.w	80058f4 <communicate+0x4d0>
					protocol->rxState = LNET_STATE_SYN;
 800569c:	f884 7029 	strb.w	r7, [r4, #41]	@ 0x29
 80056a0:	e7c2      	b.n	8005628 <communicate+0x204>
				if (msg == LNET_STD_SYN)
 80056a2:	2855      	cmp	r0, #85	@ 0x55
 80056a4:	d1c0      	bne.n	8005628 <communicate+0x204>
	protocol->crc = crc8ccitt_init();
 80056a6:	f7ff fe01 	bl	80052ac <crc8ccitt_init>
	protocol->crc = crc8ccitt_addValue(protocol->crc, data);
 80056aa:	4629      	mov	r1, r5
	protocol->crc = crc8ccitt_init();
 80056ac:	f884 002c 	strb.w	r0, [r4, #44]	@ 0x2c
	protocol->crc = crc8ccitt_addValue(protocol->crc, data);
 80056b0:	f7ff fdee 	bl	8005290 <crc8ccitt_addValue>
					protocol->rxState = LNET_STATE_NODE;
 80056b4:	2301      	movs	r3, #1
	protocol->crc = crc8ccitt_addValue(protocol->crc, data);
 80056b6:	f884 002c 	strb.w	r0, [r4, #44]	@ 0x2c
					protocol->rxState = LNET_STATE_NODE;
 80056ba:	f884 3029 	strb.w	r3, [r4, #41]	@ 0x29
 80056be:	e7b3      	b.n	8005628 <communicate+0x204>
 80056c0:	20000202 	.word	0x20000202
 80056c4:	20000200 	.word	0x20000200
 80056c8:	20000024 	.word	0x20000024
	protocol->crc = crc8ccitt_addValue(protocol->crc, data);
 80056cc:	f894 002c 	ldrb.w	r0, [r4, #44]	@ 0x2c
				tmpSize = (uint16)msg;
 80056d0:	8035      	strh	r5, [r6, #0]
	protocol->crc = crc8ccitt_addValue(protocol->crc, data);
 80056d2:	4629      	mov	r1, r5
 80056d4:	f7ff fddc 	bl	8005290 <crc8ccitt_addValue>
	if ((data == LNET_STD_SYN) || (data == LNET_OSM_SYN))
 80056d8:	2d55      	cmp	r5, #85	@ 0x55
	protocol->crc = crc8ccitt_addValue(protocol->crc, data);
 80056da:	f884 002c 	strb.w	r0, [r4, #44]	@ 0x2c
		protocol->nextState = state;
 80056de:	f04f 0303 	mov.w	r3, #3
	if ((data == LNET_STD_SYN) || (data == LNET_OSM_SYN))
 80056e2:	d0bd      	beq.n	8005660 <communicate+0x23c>
 80056e4:	2d02      	cmp	r5, #2
 80056e6:	d0bb      	beq.n	8005660 <communicate+0x23c>
				protocol->rxState = LNET_STATE_SYN;
 80056e8:	f884 3029 	strb.w	r3, [r4, #41]	@ 0x29
				break;
 80056ec:	e79c      	b.n	8005628 <communicate+0x204>
					protocol->crc = (~protocol->crc) & 0xFF;
 80056ee:	43db      	mvns	r3, r3
 80056f0:	b2db      	uxtb	r3, r3
				if (protocol->crc == msg)
 80056f2:	429d      	cmp	r5, r3
					protocol->crc = (~protocol->crc) & 0xFF;
 80056f4:	f884 302c 	strb.w	r3, [r4, #44]	@ 0x2c
				if (protocol->crc == msg)
 80056f8:	d084      	beq.n	8005604 <communicate+0x1e0>
					sendError((tProtocol*)protocol, ERRORChksum);
 80056fa:	2113      	movs	r1, #19
 80056fc:	4620      	mov	r0, r4
 80056fe:	f001 fa15 	bl	8006b2c <sendError>
 8005702:	e791      	b.n	8005628 <communicate+0x204>
		protocol->nextState = state;
 8005704:	2204      	movs	r2, #4
		protocol->lastSyn = data;
 8005706:	f884 3031 	strb.w	r3, [r4, #49]	@ 0x31
		*stateVar = LNET_STATE_FILL;
 800570a:	2305      	movs	r3, #5
		protocol->nextState = state;
 800570c:	f884 2030 	strb.w	r2, [r4, #48]	@ 0x30
		*stateVar = LNET_STATE_FILL;
 8005710:	f884 302a 	strb.w	r3, [r4, #42]	@ 0x2a
 8005714:	e6d4      	b.n	80054c0 <communicate+0x9c>
					protocol->crc = (~protocol->crc) & 0xFF;
 8005716:	43c9      	mvns	r1, r1
 8005718:	b2c9      	uxtb	r1, r1
 800571a:	f884 102c 	strb.w	r1, [r4, #44]	@ 0x2c
 800571e:	e6a2      	b.n	8005466 <communicate+0x42>
		protocol->nextState = state;
 8005720:	2202      	movs	r2, #2
		protocol->lastSyn = data;
 8005722:	f884 3031 	strb.w	r3, [r4, #49]	@ 0x31
		*stateVar = LNET_STATE_FILL;
 8005726:	2305      	movs	r3, #5
		protocol->nextState = state;
 8005728:	f884 2030 	strb.w	r2, [r4, #48]	@ 0x30
		*stateVar = LNET_STATE_FILL;
 800572c:	f884 302a 	strb.w	r3, [r4, #42]	@ 0x2a
 8005730:	e6c6      	b.n	80054c0 <communicate+0x9c>
		protocol->nextState = state;
 8005732:	2203      	movs	r2, #3
		protocol->lastSyn = data;
 8005734:	f884 3031 	strb.w	r3, [r4, #49]	@ 0x31
		*stateVar = LNET_STATE_FILL;
 8005738:	2305      	movs	r3, #5
		protocol->nextState = state;
 800573a:	f884 2030 	strb.w	r2, [r4, #48]	@ 0x30
		*stateVar = LNET_STATE_FILL;
 800573e:	f884 302a 	strb.w	r3, [r4, #42]	@ 0x2a
 8005742:	e6bd      	b.n	80054c0 <communicate+0x9c>
					protocol->frameSize = tmpSize;
 8005744:	8123      	strh	r3, [r4, #8]
	protocol->crc = crc8ccitt_addValue(protocol->crc, data);
 8005746:	4601      	mov	r1, r0
 8005748:	f894 002c 	ldrb.w	r0, [r4, #44]	@ 0x2c
 800574c:	f7ff fda0 	bl	8005290 <crc8ccitt_addValue>
					protocol->frameBufferPtr = 0;
 8005750:	2300      	movs	r3, #0
	protocol->crc = crc8ccitt_addValue(protocol->crc, data);
 8005752:	f884 002c 	strb.w	r0, [r4, #44]	@ 0x2c
					protocol->frameBufferPtr = 0;
 8005756:	85e3      	strh	r3, [r4, #46]	@ 0x2e
	if ((data == LNET_STD_SYN) || (data == LNET_OSM_SYN))
 8005758:	2d55      	cmp	r5, #85	@ 0x55
		protocol->nextState = state;
 800575a:	f04f 0304 	mov.w	r3, #4
	if ((data == LNET_STD_SYN) || (data == LNET_OSM_SYN))
 800575e:	d1c1      	bne.n	80056e4 <communicate+0x2c0>
		protocol->nextState = state;
 8005760:	f884 3030 	strb.w	r3, [r4, #48]	@ 0x30
		*stateVar = LNET_STATE_FILL;
 8005764:	2305      	movs	r3, #5
		protocol->lastSyn = data;
 8005766:	f884 5031 	strb.w	r5, [r4, #49]	@ 0x31
		*stateVar = LNET_STATE_FILL;
 800576a:	f884 3029 	strb.w	r3, [r4, #41]	@ 0x29
 800576e:	e75b      	b.n	8005628 <communicate+0x204>
	if ((data == LNET_STD_SYN) || (data == LNET_OSM_SYN))
 8005770:	2a55      	cmp	r2, #85	@ 0x55
 8005772:	f47f aeda 	bne.w	800552a <communicate+0x106>
		protocol->nextState = state;
 8005776:	f884 5030 	strb.w	r5, [r4, #48]	@ 0x30
 800577a:	2505      	movs	r5, #5
		protocol->lastSyn = data;
 800577c:	f884 2031 	strb.w	r2, [r4, #49]	@ 0x31
		*stateVar = state;
 8005780:	f884 502a 	strb.w	r5, [r4, #42]	@ 0x2a
				protocol->frameBufferPtr++;
 8005784:	85e3      	strh	r3, [r4, #46]	@ 0x2e
				break;
 8005786:	e69b      	b.n	80054c0 <communicate+0x9c>
					if ((protocol->lastSyn == LNET_STD_SYN) && (msg == protocol->node))
 8005788:	f894 8031 	ldrb.w	r8, [r4, #49]	@ 0x31
 800578c:	f1b8 0f55 	cmp.w	r8, #85	@ 0x55
 8005790:	d184      	bne.n	800569c <communicate+0x278>
 8005792:	f894 3028 	ldrb.w	r3, [r4, #40]	@ 0x28
 8005796:	4283      	cmp	r3, r0
 8005798:	d180      	bne.n	800569c <communicate+0x278>
	protocol->crc = crc8ccitt_init();
 800579a:	f7ff fd87 	bl	80052ac <crc8ccitt_init>
	protocol->crc = crc8ccitt_addValue(protocol->crc, data);
 800579e:	4641      	mov	r1, r8
	protocol->crc = crc8ccitt_init();
 80057a0:	f884 002c 	strb.w	r0, [r4, #44]	@ 0x2c
	protocol->crc = crc8ccitt_addValue(protocol->crc, data);
 80057a4:	f7ff fd74 	bl	8005290 <crc8ccitt_addValue>
 80057a8:	4629      	mov	r1, r5
 80057aa:	f884 002c 	strb.w	r0, [r4, #44]	@ 0x2c
 80057ae:	f7ff fd6f 	bl	8005290 <crc8ccitt_addValue>
						protocol->rxState = LNET_STATE_SIZE_LSB;
 80057b2:	2302      	movs	r3, #2
	protocol->crc = crc8ccitt_addValue(protocol->crc, data);
 80057b4:	f884 002c 	strb.w	r0, [r4, #44]	@ 0x2c
						protocol->rxState = LNET_STATE_SIZE_LSB;
 80057b8:	f884 3029 	strb.w	r3, [r4, #41]	@ 0x29
 80057bc:	e734      	b.n	8005628 <communicate+0x204>
		if ((protocol->hwInterface->getTxFifoFree(HW_INTERFACE) >= (TableStruct->piScope->txFrameSize + overheadSize)) && \
 80057be:	6a9b      	ldr	r3, [r3, #40]	@ 0x28
 80057c0:	6960      	ldr	r0, [r4, #20]
 80057c2:	f893 505c 	ldrb.w	r5, [r3, #92]	@ 0x5c
 80057c6:	6903      	ldr	r3, [r0, #16]
 80057c8:	4798      	blx	r3
 80057ca:	3504      	adds	r5, #4
 80057cc:	4285      	cmp	r5, r0
 80057ce:	f280 808b 	bge.w	80058e8 <communicate+0x4c4>
		    (TableStruct->piScope->stfCnt >= TableStruct->piScope->stf))
 80057d2:	6833      	ldr	r3, [r6, #0]
 80057d4:	6a99      	ldr	r1, [r3, #40]	@ 0x28
 80057d6:	6a9a      	ldr	r2, [r3, #40]	@ 0x28
		if ((protocol->hwInterface->getTxFifoFree(HW_INTERFACE) >= (TableStruct->piScope->txFrameSize + overheadSize)) && \
 80057d8:	f8b1 1058 	ldrh.w	r1, [r1, #88]	@ 0x58
 80057dc:	f8b2 2056 	ldrh.w	r2, [r2, #86]	@ 0x56
 80057e0:	4291      	cmp	r1, r2
 80057e2:	f0c0 8081 	bcc.w	80058e8 <communicate+0x4c4>
			protocol->hwInterface->send(HW_INTERFACE, LNET_OSM_SYN);
 80057e6:	6960      	ldr	r0, [r4, #20]
            TableStruct->piScope->stfCnt = 0;
 80057e8:	6a9b      	ldr	r3, [r3, #40]	@ 0x28
 80057ea:	2700      	movs	r7, #0
 80057ec:	f8a3 7058 	strh.w	r7, [r3, #88]	@ 0x58
			protocol->hwInterface->send(HW_INTERFACE, LNET_OSM_SYN);
 80057f0:	2102      	movs	r1, #2
 80057f2:	6803      	ldr	r3, [r0, #0]
 80057f4:	4798      	blx	r3
			protocol->hwInterface->send(HW_INTERFACE, protocol->node);
 80057f6:	6960      	ldr	r0, [r4, #20]
 80057f8:	f894 1028 	ldrb.w	r1, [r4, #40]	@ 0x28
 80057fc:	6803      	ldr	r3, [r0, #0]
 80057fe:	4798      	blx	r3
			protocol->hwInterface->send(HW_INTERFACE, TableStruct->piScope->txFrameSize);
 8005800:	6833      	ldr	r3, [r6, #0]
 8005802:	6960      	ldr	r0, [r4, #20]
 8005804:	6a9b      	ldr	r3, [r3, #40]	@ 0x28
 8005806:	f893 105c 	ldrb.w	r1, [r3, #92]	@ 0x5c
 800580a:	6803      	ldr	r3, [r0, #0]
 800580c:	4798      	blx	r3
			protocol->hwInterface->send(HW_INTERFACE, 0);
 800580e:	6960      	ldr	r0, [r4, #20]
 8005810:	4639      	mov	r1, r7
 8005812:	6803      	ldr	r3, [r0, #0]
 8005814:	4798      	blx	r3
			protocol->hwInterface->send(HW_INTERFACE, X2C_GET_LOW_BYTE(TableStruct->piScope->timestamp));
 8005816:	6833      	ldr	r3, [r6, #0]
 8005818:	6960      	ldr	r0, [r4, #20]
 800581a:	6a9b      	ldr	r3, [r3, #40]	@ 0x28
 800581c:	f893 105a 	ldrb.w	r1, [r3, #90]	@ 0x5a
 8005820:	6803      	ldr	r3, [r0, #0]
 8005822:	4798      	blx	r3
			protocol->hwInterface->send(HW_INTERFACE, X2C_GET_HIGH_BYTE(TableStruct->piScope->timestamp));
 8005824:	6833      	ldr	r3, [r6, #0]
 8005826:	6960      	ldr	r0, [r4, #20]
 8005828:	6a9b      	ldr	r3, [r3, #40]	@ 0x28
 800582a:	f8b3 105a 	ldrh.w	r1, [r3, #90]	@ 0x5a
 800582e:	6803      	ldr	r3, [r0, #0]
 8005830:	0a09      	lsrs	r1, r1, #8
 8005832:	4798      	blx	r3
			checksum = crc8ccitt_init();
 8005834:	f7ff fd3a 	bl	80052ac <crc8ccitt_init>
			checksum = crc8ccitt_addValue(checksum, LNET_OSM_SYN);
 8005838:	2102      	movs	r1, #2
 800583a:	f7ff fd29 	bl	8005290 <crc8ccitt_addValue>
			checksum = crc8ccitt_addValue(checksum, protocol->node);
 800583e:	f894 1028 	ldrb.w	r1, [r4, #40]	@ 0x28
 8005842:	f7ff fd25 	bl	8005290 <crc8ccitt_addValue>
			checksum = crc8ccitt_addValue(checksum, TableStruct->piScope->txFrameSize);
 8005846:	6833      	ldr	r3, [r6, #0]
 8005848:	6a9b      	ldr	r3, [r3, #40]	@ 0x28
 800584a:	f893 105c 	ldrb.w	r1, [r3, #92]	@ 0x5c
 800584e:	f7ff fd1f 	bl	8005290 <crc8ccitt_addValue>
			checksum = crc8ccitt_addValue(checksum, 0);
 8005852:	4639      	mov	r1, r7
 8005854:	f7ff fd1c 	bl	8005290 <crc8ccitt_addValue>
			checksum = crc8ccitt_addValue(checksum, X2C_GET_LOW_BYTE(TableStruct->piScope->timestamp));
 8005858:	6833      	ldr	r3, [r6, #0]
 800585a:	6a9b      	ldr	r3, [r3, #40]	@ 0x28
 800585c:	f893 105a 	ldrb.w	r1, [r3, #90]	@ 0x5a
 8005860:	f7ff fd16 	bl	8005290 <crc8ccitt_addValue>
			checksum = crc8ccitt_addValue(checksum, X2C_GET_HIGH_BYTE(TableStruct->piScope->timestamp));
 8005864:	6833      	ldr	r3, [r6, #0]
 8005866:	6a9b      	ldr	r3, [r3, #40]	@ 0x28
 8005868:	f8b3 105a 	ldrh.w	r1, [r3, #90]	@ 0x5a
 800586c:	0a09      	lsrs	r1, r1, #8
 800586e:	f7ff fd0f 	bl	8005290 <crc8ccitt_addValue>
                    tmp = *((uint8*) TableStruct->piScope->channelAddr[i] + j);
 8005872:	6832      	ldr	r2, [r6, #0]
			checksum = crc8ccitt_addValue(checksum, X2C_GET_HIGH_BYTE(TableStruct->piScope->timestamp));
 8005874:	4605      	mov	r5, r0
                    tmp = *((uint8*) TableStruct->piScope->channelAddr[i] + j);
 8005876:	f04f 0900 	mov.w	r9, #0
 800587a:	ea4f 0887 	mov.w	r8, r7, lsl #2
 800587e:	6a93      	ldr	r3, [r2, #40]	@ 0x28
                    protocol->hwInterface->send(HW_INTERFACE, tmp);
 8005880:	6960      	ldr	r0, [r4, #20]
                    tmp = *((uint8*) TableStruct->piScope->channelAddr[i] + j);
 8005882:	4443      	add	r3, r8
                    protocol->hwInterface->send(HW_INTERFACE, tmp);
 8005884:	6802      	ldr	r2, [r0, #0]
                    tmp = *((uint8*) TableStruct->piScope->channelAddr[i] + j);
 8005886:	685b      	ldr	r3, [r3, #4]
 8005888:	f813 a009 	ldrb.w	sl, [r3, r9]
                    protocol->hwInterface->send(HW_INTERFACE, tmp);
 800588c:	4651      	mov	r1, sl
 800588e:	4790      	blx	r2
                    checksum = crc8ccitt_addValue(checksum, tmp);
 8005890:	4651      	mov	r1, sl
 8005892:	4628      	mov	r0, r5
 8005894:	f7ff fcfc 	bl	8005290 <crc8ccitt_addValue>
                while (j < TableStruct->piScope->dataSize[i]);
 8005898:	6832      	ldr	r2, [r6, #0]
 800589a:	6a93      	ldr	r3, [r2, #40]	@ 0x28
 800589c:	443b      	add	r3, r7
 800589e:	f109 0901 	add.w	r9, r9, #1
 80058a2:	f893 3024 	ldrb.w	r3, [r3, #36]	@ 0x24
 80058a6:	fa1f f189 	uxth.w	r1, r9
 80058aa:	428b      	cmp	r3, r1
                    checksum = crc8ccitt_addValue(checksum, tmp);
 80058ac:	4605      	mov	r5, r0
                while (j < TableStruct->piScope->dataSize[i]);
 80058ae:	d8e6      	bhi.n	800587e <communicate+0x45a>
            while(i < TableStruct->piScope->noChannels);
 80058b0:	6a93      	ldr	r3, [r2, #40]	@ 0x28
 80058b2:	3701      	adds	r7, #1
 80058b4:	f893 1055 	ldrb.w	r1, [r3, #85]	@ 0x55
 80058b8:	b2bb      	uxth	r3, r7
 80058ba:	4299      	cmp	r1, r3
 80058bc:	d8db      	bhi.n	8005876 <communicate+0x452>
			protocol->hwInterface->send(HW_INTERFACE, checksum);
 80058be:	6960      	ldr	r0, [r4, #20]
				checksum = ~checksum;
 80058c0:	2d02      	cmp	r5, #2
			protocol->hwInterface->send(HW_INTERFACE, checksum);
 80058c2:	bf18      	it	ne
 80058c4:	4629      	movne	r1, r5
 80058c6:	6803      	ldr	r3, [r0, #0]
}
 80058c8:	e8bd 47f0 	ldmia.w	sp!, {r4, r5, r6, r7, r8, r9, sl, lr}
			protocol->hwInterface->send(HW_INTERFACE, checksum);
 80058cc:	bf08      	it	eq
 80058ce:	21fd      	moveq	r1, #253	@ 0xfd
 80058d0:	4718      	bx	r3
	while ((protocol->commState == RECEIVE_ALLOWED) && protocol->hwInterface->isReceiveDataAvailable(HW_INTERFACE))
 80058d2:	f894 302b 	ldrb.w	r3, [r4, #43]	@ 0x2b
 80058d6:	2b00      	cmp	r3, #0
 80058d8:	f43f add0 	beq.w	800547c <communicate+0x58>
 80058dc:	e5f6      	b.n	80054cc <communicate+0xa8>
						sendError((tProtocol*)protocol, ERRORServiceNotAvail);
 80058de:	2121      	movs	r1, #33	@ 0x21
 80058e0:	4620      	mov	r0, r4
 80058e2:	f001 f923 	bl	8006b2c <sendError>
 80058e6:	e69f      	b.n	8005628 <communicate+0x204>
			txBufFull++;
 80058e8:	4a0a      	ldr	r2, [pc, #40]	@ (8005914 <communicate+0x4f0>)
 80058ea:	6813      	ldr	r3, [r2, #0]
 80058ec:	3301      	adds	r3, #1
 80058ee:	6013      	str	r3, [r2, #0]
}
 80058f0:	e8bd 87f0 	ldmia.w	sp!, {r4, r5, r6, r7, r8, r9, sl, pc}
	protocol->crc = crc8ccitt_addValue(protocol->crc, data);
 80058f4:	4601      	mov	r1, r0
 80058f6:	f894 002c 	ldrb.w	r0, [r4, #44]	@ 0x2c
 80058fa:	f7ff fcc9 	bl	8005290 <crc8ccitt_addValue>
	if ((data == LNET_STD_SYN) || (data == LNET_OSM_SYN))
 80058fe:	2d55      	cmp	r5, #85	@ 0x55
	protocol->crc = crc8ccitt_addValue(protocol->crc, data);
 8005900:	f884 002c 	strb.w	r0, [r4, #44]	@ 0x2c
		protocol->nextState = state;
 8005904:	f04f 0302 	mov.w	r3, #2
	if ((data == LNET_STD_SYN) || (data == LNET_OSM_SYN))
 8005908:	f47f aeec 	bne.w	80056e4 <communicate+0x2c0>
 800590c:	e6a8      	b.n	8005660 <communicate+0x23c>
				protocol->rxState = LNET_STATE_SYN;
 800590e:	2300      	movs	r3, #0
 8005910:	e6ea      	b.n	80056e8 <communicate+0x2c4>
 8005912:	bf00      	nop
 8005914:	200001fc 	.word	0x200001fc

08005918 <updateRxTimeout>:
	if ((protocol->commState == RECEIVE_ALLOWED) && (protocol->rxState != LNET_STATE_SYN)) {
 8005918:	f890 302b 	ldrb.w	r3, [r0, #43]	@ 0x2b
 800591c:	b94b      	cbnz	r3, 8005932 <updateRxTimeout+0x1a>
 800591e:	f890 2029 	ldrb.w	r2, [r0, #41]	@ 0x29
 8005922:	b132      	cbz	r2, 8005932 <updateRxTimeout+0x1a>
		if (time > protocol->rxTimeoutCnt)
 8005924:	8cc2      	ldrh	r2, [r0, #38]	@ 0x26
 8005926:	4291      	cmp	r1, r2
 8005928:	d901      	bls.n	800592e <updateRxTimeout+0x16>
			protocol->rxTimeoutCnt = 0;
 800592a:	84c3      	strh	r3, [r0, #38]	@ 0x26
 800592c:	4770      	bx	lr
			protocol->rxTimeoutCnt -= time;
 800592e:	1a52      	subs	r2, r2, r1
 8005930:	84c2      	strh	r2, [r0, #38]	@ 0x26
}
 8005932:	4770      	bx	lr

08005934 <initLNet>:
{
 8005934:	b410      	push	{r4}
	protocol->maxCommSize = dataBufferSize;
 8005936:	8142      	strh	r2, [r0, #10]
	protocol->enableSend = (void (*)(tProtocol*))enableSend;
 8005938:	4a0c      	ldr	r2, [pc, #48]	@ (800596c <initLNet+0x38>)
	protocol->communicate = (void (*)(tProtocol*))communicate;
 800593a:	4c0d      	ldr	r4, [pc, #52]	@ (8005970 <initLNet+0x3c>)
	protocol->frameData = dataBuffer;
 800593c:	60c1      	str	r1, [r0, #12]
	protocol->enableSend = (void (*)(tProtocol*))enableSend;
 800593e:	6042      	str	r2, [r0, #4]
	protocol->setupRxTimeout = setupRxTimeout;
 8005940:	490c      	ldr	r1, [pc, #48]	@ (8005974 <initLNet+0x40>)
	protocol->updateRxTimeout = updateRxTimeout;
 8005942:	4a0d      	ldr	r2, [pc, #52]	@ (8005978 <initLNet+0x44>)
	protocol->communicate = (void (*)(tProtocol*))communicate;
 8005944:	6004      	str	r4, [r0, #0]
	protocol->commState = RECEIVE_ALLOWED;
 8005946:	f04f 0c00 	mov.w	ip, #0
	protocol->rxTimeout = UINT16_MAX;
 800594a:	f04f 34ff 	mov.w	r4, #4294967295
	protocol->node = node;
 800594e:	f880 3028 	strb.w	r3, [r0, #40]	@ 0x28
	protocol->resetRxTimeout = resetRxTimeout;
 8005952:	4b0a      	ldr	r3, [pc, #40]	@ (800597c <initLNet+0x48>)
	protocol->rxTimeout = UINT16_MAX;
 8005954:	6244      	str	r4, [r0, #36]	@ 0x24
	protocol->updateRxTimeout = updateRxTimeout;
 8005956:	e9c0 1206 	strd	r1, r2, [r0, #24]
}
 800595a:	f85d 4b04 	ldr.w	r4, [sp], #4
	protocol->resetRxTimeout = resetRxTimeout;
 800595e:	6203      	str	r3, [r0, #32]
	protocol->commState = RECEIVE_ALLOWED;
 8005960:	f880 c02b 	strb.w	ip, [r0, #43]	@ 0x2b
	protocol->rxState = LNET_STATE_SYN;
 8005964:	f880 c029 	strb.w	ip, [r0, #41]	@ 0x29
}
 8005968:	4770      	bx	lr
 800596a:	bf00      	nop
 800596c:	08005411 	.word	0x08005411
 8005970:	08005425 	.word	0x08005425
 8005974:	08005419 	.word	0x08005419
 8005978:	08005919 	.word	0x08005919
 800597c:	0800541d 	.word	0x0800541d

08005980 <isTriggerEvent>:


/* this function will return 1, if the trigger was hit and */
/* 0, if the trigger was not hit */
static uint8 isTriggerEvent(SCOPE_MAIN *pTScope, uint64 curTrgValue)
{
 8005980:	b5f8      	push	{r3, r4, r5, r6, r7, lr}
	uint8 size = pTScope->trgDataType & (uint8)0x0F;
 8005982:	f890 104c 	ldrb.w	r1, [r0, #76]	@ 0x4c
{
 8005986:	4614      	mov	r4, r2
	uint8 isFloat = pTScope->trgDataType & (uint8)0x40;
	uint8 isEvent = (uint8)0;
	if (isFloat)
 8005988:	064a      	lsls	r2, r1, #25
{
 800598a:	461d      	mov	r5, r3
 800598c:	4684      	mov	ip, r0
	uint8 size = pTScope->trgDataType & (uint8)0x0F;
 800598e:	f001 030f 	and.w	r3, r1, #15
	if (isFloat)
 8005992:	d52a      	bpl.n	80059ea <isTriggerEvent+0x6a>
	{
		switch (size)
 8005994:	2b04      	cmp	r3, #4
 8005996:	d059      	beq.n	8005a4c <isTriggerEvent+0xcc>
 8005998:	2b08      	cmp	r3, #8
 800599a:	d124      	bne.n	80059e6 <isTriggerEvent+0x66>
				break;
			}
			case 8:
			{
				float64 trgLastValue = *(float64*)&pTScope->trgLastValue;
				float64 trgLevel = *(float64*)&pTScope->trgLevel;
 800599c:	e9dc 670e 	ldrd	r6, r7, [ip, #56]	@ 0x38
				float64 curValue = *(float64*)&curTrgValue;
				if (pTScope->trgEdge == EDGE_RISING)
 80059a0:	f89c 3074 	ldrb.w	r3, [ip, #116]	@ 0x74
 80059a4:	2b01      	cmp	r3, #1
				float64 trgLastValue = *(float64*)&pTScope->trgLastValue;
 80059a6:	e9d0 0110 	ldrd	r0, r1, [r0, #64]	@ 0x40
				{
					if ((trgLastValue < trgLevel) && (curValue >= trgLevel))
 80059aa:	4632      	mov	r2, r6
 80059ac:	463b      	mov	r3, r7
				if (pTScope->trgEdge == EDGE_RISING)
 80059ae:	f000 80d9 	beq.w	8005b64 <isTriggerEvent+0x1e4>
						isEvent = (uint8)0;
					}
				}
				else
				{
					if ((trgLastValue > trgLevel) && (curValue <= trgLevel))
 80059b2:	f7fb f9c3 	bl	8000d3c <__aeabi_dcmpgt>
 80059b6:	b140      	cbz	r0, 80059ca <isTriggerEvent+0x4a>
 80059b8:	4622      	mov	r2, r4
 80059ba:	462b      	mov	r3, r5
 80059bc:	4630      	mov	r0, r6
 80059be:	4639      	mov	r1, r7
 80059c0:	f7fb f9b2 	bl	8000d28 <__aeabi_dcmpge>
 80059c4:	3800      	subs	r0, #0
 80059c6:	bf18      	it	ne
 80059c8:	2001      	movne	r0, #1
				}
			}
		} /* isSigned */
	} /* isFloat */
	return (isEvent);
}
 80059ca:	bdf8      	pop	{r3, r4, r5, r6, r7, pc}
					if (pTScope->trgEdge == EDGE_RISING)
 80059cc:	f89c 2074 	ldrb.w	r2, [ip, #116]	@ 0x74
					int16 trgLastValue = (int16)pTScope->trgLastValue;
 80059d0:	f9bc 3040 	ldrsh.w	r3, [ip, #64]	@ 0x40
					int16 trgLevel = (int16)pTScope->trgLevel;
 80059d4:	f9bc 1038 	ldrsh.w	r1, [ip, #56]	@ 0x38
					if (pTScope->trgEdge == EDGE_RISING)
 80059d8:	2a01      	cmp	r2, #1
					int16 curValue = (int16)curTrgValue;
 80059da:	b224      	sxth	r4, r4
					if (pTScope->trgEdge == EDGE_RISING)
 80059dc:	f000 809d 	beq.w	8005b1a <isTriggerEvent+0x19a>
						if ((trgLastValue > trgLevel) && (curValue <= trgLevel))
 80059e0:	428b      	cmp	r3, r1
 80059e2:	f300 80da 	bgt.w	8005b9a <isTriggerEvent+0x21a>
 80059e6:	2000      	movs	r0, #0
}
 80059e8:	bdf8      	pop	{r3, r4, r5, r6, r7, pc}
		if (isSigned)
 80059ea:	f011 0020 	ands.w	r0, r1, #32
			switch (size)
 80059ee:	f103 33ff 	add.w	r3, r3, #4294967295
		if (isSigned)
 80059f2:	d015      	beq.n	8005a20 <isTriggerEvent+0xa0>
			switch (size)
 80059f4:	2b07      	cmp	r3, #7
 80059f6:	d8f6      	bhi.n	80059e6 <isTriggerEvent+0x66>
 80059f8:	a201      	add	r2, pc, #4	@ (adr r2, 8005a00 <isTriggerEvent+0x80>)
 80059fa:	f852 f023 	ldr.w	pc, [r2, r3, lsl #2]
 80059fe:	bf00      	nop
 8005a00:	08005b07 	.word	0x08005b07
 8005a04:	080059cd 	.word	0x080059cd
 8005a08:	080059e7 	.word	0x080059e7
 8005a0c:	08005ae7 	.word	0x08005ae7
 8005a10:	080059e7 	.word	0x080059e7
 8005a14:	080059e7 	.word	0x080059e7
 8005a18:	080059e7 	.word	0x080059e7
 8005a1c:	08005b3f 	.word	0x08005b3f
			switch (size)
 8005a20:	2b07      	cmp	r3, #7
 8005a22:	d8d2      	bhi.n	80059ca <isTriggerEvent+0x4a>
 8005a24:	a201      	add	r2, pc, #4	@ (adr r2, 8005a2c <isTriggerEvent+0xac>)
 8005a26:	f852 f023 	ldr.w	pc, [r2, r3, lsl #2]
 8005a2a:	bf00      	nop
 8005a2c:	08005b2b 	.word	0x08005b2b
 8005a30:	08005ac5 	.word	0x08005ac5
 8005a34:	080059cb 	.word	0x080059cb
 8005a38:	08005aa7 	.word	0x08005aa7
 8005a3c:	080059cb 	.word	0x080059cb
 8005a40:	080059cb 	.word	0x080059cb
 8005a44:	080059cb 	.word	0x080059cb
 8005a48:	08005a7d 	.word	0x08005a7d
				if (pTScope->trgEdge == EDGE_RISING)
 8005a4c:	f890 3074 	ldrb.w	r3, [r0, #116]	@ 0x74
				float32 trgLastValue = *(float32*)&pTScope->trgLastValue;
 8005a50:	ed90 7a10 	vldr	s14, [r0, #64]	@ 0x40
				float32 trgLevel = *(float32*)&pTScope->trgLevel;
 8005a54:	edd0 7a0e 	vldr	s15, [r0, #56]	@ 0x38
				if (pTScope->trgEdge == EDGE_RISING)
 8005a58:	2b01      	cmp	r3, #1
				float32 curValue = *(float32*)&curTrgValue;
 8005a5a:	ee06 4a90 	vmov	s13, r4
					if ((trgLastValue < trgLevel) && (curValue >= trgLevel))
 8005a5e:	eeb4 7ae7 	vcmpe.f32	s14, s15
				if (pTScope->trgEdge == EDGE_RISING)
 8005a62:	f000 808e 	beq.w	8005b82 <isTriggerEvent+0x202>
					if ((trgLastValue > trgLevel) && (curValue <= trgLevel))
 8005a66:	eef1 fa10 	vmrs	APSR_nzcv, fpscr
 8005a6a:	ddbc      	ble.n	80059e6 <isTriggerEvent+0x66>
 8005a6c:	eef4 7ae6 	vcmpe.f32	s15, s13
 8005a70:	eef1 fa10 	vmrs	APSR_nzcv, fpscr
 8005a74:	bfac      	ite	ge
 8005a76:	2001      	movge	r0, #1
 8005a78:	2000      	movlt	r0, #0
}
 8005a7a:	bdf8      	pop	{r3, r4, r5, r6, r7, pc}
					if (pTScope->trgEdge == EDGE_RISING)
 8005a7c:	f89c 7074 	ldrb.w	r7, [ip, #116]	@ 0x74
					uint64 trgLastValue = (uint64)pTScope->trgLastValue;
 8005a80:	f8dc 6040 	ldr.w	r6, [ip, #64]	@ 0x40
 8005a84:	f8dc 3044 	ldr.w	r3, [ip, #68]	@ 0x44
					if (pTScope->trgEdge == EDGE_RISING)
 8005a88:	2f01      	cmp	r7, #1
					uint64 trgLevel = (uint64)pTScope->trgLevel;
 8005a8a:	e9dc 120e 	ldrd	r1, r2, [ip, #56]	@ 0x38
					if (pTScope->trgEdge == EDGE_RISING)
 8005a8e:	f000 809c 	beq.w	8005bca <isTriggerEvent+0x24a>
						if ((trgLastValue > trgLevel) && (curValue <= trgLevel))
 8005a92:	42b1      	cmp	r1, r6
 8005a94:	eb72 0303 	sbcs.w	r3, r2, r3
 8005a98:	d297      	bcs.n	80059ca <isTriggerEvent+0x4a>
 8005a9a:	42a1      	cmp	r1, r4
 8005a9c:	41aa      	sbcs	r2, r5
 8005a9e:	bf2c      	ite	cs
 8005aa0:	2001      	movcs	r0, #1
 8005aa2:	2000      	movcc	r0, #0
}
 8005aa4:	bdf8      	pop	{r3, r4, r5, r6, r7, pc}
					if (pTScope->trgEdge == EDGE_RISING)
 8005aa6:	f89c 1074 	ldrb.w	r1, [ip, #116]	@ 0x74
					uint32 trgLastValue = (uint32)pTScope->trgLastValue;
 8005aaa:	f8dc 2040 	ldr.w	r2, [ip, #64]	@ 0x40
					uint32 trgLevel = (uint32)pTScope->trgLevel;
 8005aae:	f8dc 3038 	ldr.w	r3, [ip, #56]	@ 0x38
					if (pTScope->trgEdge == EDGE_RISING)
 8005ab2:	2901      	cmp	r1, #1
 8005ab4:	d00f      	beq.n	8005ad6 <isTriggerEvent+0x156>
						if ((trgLastValue > trgLevel) && (curValue <= trgLevel))
 8005ab6:	429a      	cmp	r2, r3
 8005ab8:	d987      	bls.n	80059ca <isTriggerEvent+0x4a>
 8005aba:	42a3      	cmp	r3, r4
 8005abc:	bf34      	ite	cc
 8005abe:	2000      	movcc	r0, #0
 8005ac0:	2001      	movcs	r0, #1
}
 8005ac2:	bdf8      	pop	{r3, r4, r5, r6, r7, pc}
					if (pTScope->trgEdge == EDGE_RISING)
 8005ac4:	f89c 1074 	ldrb.w	r1, [ip, #116]	@ 0x74
					uint16 trgLastValue = (uint16)pTScope->trgLastValue;
 8005ac8:	f8bc 2040 	ldrh.w	r2, [ip, #64]	@ 0x40
					uint16 trgLevel = (uint16)pTScope->trgLevel;
 8005acc:	f8bc 3038 	ldrh.w	r3, [ip, #56]	@ 0x38
					if (pTScope->trgEdge == EDGE_RISING)
 8005ad0:	2901      	cmp	r1, #1
					uint16 curValue = (uint16)curTrgValue;
 8005ad2:	b2a4      	uxth	r4, r4
					if (pTScope->trgEdge == EDGE_RISING)
 8005ad4:	d1ef      	bne.n	8005ab6 <isTriggerEvent+0x136>
						if ((trgLastValue < trgLevel) && (curValue >= trgLevel))
 8005ad6:	429a      	cmp	r2, r3
 8005ad8:	f4bf af77 	bcs.w	80059ca <isTriggerEvent+0x4a>
 8005adc:	42a3      	cmp	r3, r4
 8005ade:	bf8c      	ite	hi
 8005ae0:	2000      	movhi	r0, #0
 8005ae2:	2001      	movls	r0, #1
}
 8005ae4:	bdf8      	pop	{r3, r4, r5, r6, r7, pc}
					if (pTScope->trgEdge == EDGE_RISING)
 8005ae6:	f89c 2074 	ldrb.w	r2, [ip, #116]	@ 0x74
					int32 trgLastValue = (int32)pTScope->trgLastValue;
 8005aea:	f8dc 3040 	ldr.w	r3, [ip, #64]	@ 0x40
					int32 trgLevel = (int32)pTScope->trgLevel;
 8005aee:	f8dc 0038 	ldr.w	r0, [ip, #56]	@ 0x38
					if (pTScope->trgEdge == EDGE_RISING)
 8005af2:	2a01      	cmp	r2, #1
 8005af4:	d061      	beq.n	8005bba <isTriggerEvent+0x23a>
						if ((trgLastValue > trgLevel) && (curValue <= trgLevel))
 8005af6:	4283      	cmp	r3, r0
 8005af8:	f77f af75 	ble.w	80059e6 <isTriggerEvent+0x66>
 8005afc:	42a0      	cmp	r0, r4
 8005afe:	bfb4      	ite	lt
 8005b00:	2000      	movlt	r0, #0
 8005b02:	2001      	movge	r0, #1
}
 8005b04:	bdf8      	pop	{r3, r4, r5, r6, r7, pc}
					if (pTScope->trgEdge == EDGE_RISING)
 8005b06:	f89c 2074 	ldrb.w	r2, [ip, #116]	@ 0x74
					int8 trgLastValue = (int8)pTScope->trgLastValue;
 8005b0a:	f99c 3040 	ldrsb.w	r3, [ip, #64]	@ 0x40
					int8 trgLevel = (int8)pTScope->trgLevel;
 8005b0e:	f99c 1038 	ldrsb.w	r1, [ip, #56]	@ 0x38
					if (pTScope->trgEdge == EDGE_RISING)
 8005b12:	2a01      	cmp	r2, #1
					int8 curValue = (int8)curTrgValue;
 8005b14:	b264      	sxtb	r4, r4
					if (pTScope->trgEdge == EDGE_RISING)
 8005b16:	f47f af63 	bne.w	80059e0 <isTriggerEvent+0x60>
						if ((trgLastValue < trgLevel) && (curValue >= trgLevel))
 8005b1a:	428b      	cmp	r3, r1
 8005b1c:	f6bf af63 	bge.w	80059e6 <isTriggerEvent+0x66>
 8005b20:	42a1      	cmp	r1, r4
 8005b22:	bfcc      	ite	gt
 8005b24:	2000      	movgt	r0, #0
 8005b26:	2001      	movle	r0, #1
}
 8005b28:	bdf8      	pop	{r3, r4, r5, r6, r7, pc}
					if (pTScope->trgEdge == EDGE_RISING)
 8005b2a:	f89c 1074 	ldrb.w	r1, [ip, #116]	@ 0x74
					uint8 trgLastValue = (uint8)pTScope->trgLastValue;
 8005b2e:	f89c 2040 	ldrb.w	r2, [ip, #64]	@ 0x40
					uint8 trgLevel = (uint8)pTScope->trgLevel;
 8005b32:	f89c 3038 	ldrb.w	r3, [ip, #56]	@ 0x38
					if (pTScope->trgEdge == EDGE_RISING)
 8005b36:	2901      	cmp	r1, #1
					uint8 curValue = (uint8)curTrgValue;
 8005b38:	b2e4      	uxtb	r4, r4
					if (pTScope->trgEdge == EDGE_RISING)
 8005b3a:	d1bc      	bne.n	8005ab6 <isTriggerEvent+0x136>
 8005b3c:	e7cb      	b.n	8005ad6 <isTriggerEvent+0x156>
					if (pTScope->trgEdge == EDGE_RISING)
 8005b3e:	f89c 6074 	ldrb.w	r6, [ip, #116]	@ 0x74
 8005b42:	2e01      	cmp	r6, #1
					int64 trgLastValue = (int64)pTScope->trgLastValue;
 8005b44:	e9dc 0310 	ldrd	r0, r3, [ip, #64]	@ 0x40
					int64 trgLevel = (int64)pTScope->trgLevel;
 8005b48:	e9dc 120e 	ldrd	r1, r2, [ip, #56]	@ 0x38
					if (pTScope->trgEdge == EDGE_RISING)
 8005b4c:	d02a      	beq.n	8005ba4 <isTriggerEvent+0x224>
						if ((trgLastValue > trgLevel) && (curValue <= trgLevel))
 8005b4e:	4281      	cmp	r1, r0
 8005b50:	eb72 0303 	sbcs.w	r3, r2, r3
 8005b54:	f6bf af47 	bge.w	80059e6 <isTriggerEvent+0x66>
 8005b58:	42a1      	cmp	r1, r4
 8005b5a:	41aa      	sbcs	r2, r5
 8005b5c:	bfac      	ite	ge
 8005b5e:	2001      	movge	r0, #1
 8005b60:	2000      	movlt	r0, #0
}
 8005b62:	bdf8      	pop	{r3, r4, r5, r6, r7, pc}
					if ((trgLastValue < trgLevel) && (curValue >= trgLevel))
 8005b64:	f7fb f8cc 	bl	8000d00 <__aeabi_dcmplt>
 8005b68:	2800      	cmp	r0, #0
 8005b6a:	f43f af2e 	beq.w	80059ca <isTriggerEvent+0x4a>
 8005b6e:	4622      	mov	r2, r4
 8005b70:	462b      	mov	r3, r5
 8005b72:	4630      	mov	r0, r6
 8005b74:	4639      	mov	r1, r7
 8005b76:	f7fb f8cd 	bl	8000d14 <__aeabi_dcmple>
 8005b7a:	3800      	subs	r0, #0
 8005b7c:	bf18      	it	ne
 8005b7e:	2001      	movne	r0, #1
}
 8005b80:	bdf8      	pop	{r3, r4, r5, r6, r7, pc}
					if ((trgLastValue < trgLevel) && (curValue >= trgLevel))
 8005b82:	eef1 fa10 	vmrs	APSR_nzcv, fpscr
 8005b86:	f57f af2e 	bpl.w	80059e6 <isTriggerEvent+0x66>
 8005b8a:	eef4 7ae6 	vcmpe.f32	s15, s13
 8005b8e:	eef1 fa10 	vmrs	APSR_nzcv, fpscr
 8005b92:	bf94      	ite	ls
 8005b94:	2001      	movls	r0, #1
 8005b96:	2000      	movhi	r0, #0
}
 8005b98:	bdf8      	pop	{r3, r4, r5, r6, r7, pc}
						if ((trgLastValue > trgLevel) && (curValue <= trgLevel))
 8005b9a:	42a1      	cmp	r1, r4
 8005b9c:	bfb4      	ite	lt
 8005b9e:	2000      	movlt	r0, #0
 8005ba0:	2001      	movge	r0, #1
}
 8005ba2:	bdf8      	pop	{r3, r4, r5, r6, r7, pc}
						if ((trgLastValue < trgLevel) && (curValue >= trgLevel))
 8005ba4:	4288      	cmp	r0, r1
 8005ba6:	4193      	sbcs	r3, r2
 8005ba8:	f6bf af1d 	bge.w	80059e6 <isTriggerEvent+0x66>
 8005bac:	428c      	cmp	r4, r1
 8005bae:	eb75 0202 	sbcs.w	r2, r5, r2
 8005bb2:	bfac      	ite	ge
 8005bb4:	2001      	movge	r0, #1
 8005bb6:	2000      	movlt	r0, #0
}
 8005bb8:	bdf8      	pop	{r3, r4, r5, r6, r7, pc}
						if ((trgLastValue < trgLevel) && (curValue >= trgLevel))
 8005bba:	4283      	cmp	r3, r0
 8005bbc:	f6bf af13 	bge.w	80059e6 <isTriggerEvent+0x66>
 8005bc0:	42a0      	cmp	r0, r4
 8005bc2:	bfcc      	ite	gt
 8005bc4:	2000      	movgt	r0, #0
 8005bc6:	2001      	movle	r0, #1
}
 8005bc8:	bdf8      	pop	{r3, r4, r5, r6, r7, pc}
						if ((trgLastValue < trgLevel) && (curValue >= trgLevel))
 8005bca:	428e      	cmp	r6, r1
 8005bcc:	4193      	sbcs	r3, r2
 8005bce:	f4bf aefc 	bcs.w	80059ca <isTriggerEvent+0x4a>
 8005bd2:	428c      	cmp	r4, r1
 8005bd4:	eb75 0202 	sbcs.w	r2, r5, r2
 8005bd8:	bf2c      	ite	cs
 8005bda:	2001      	movcs	r0, #1
 8005bdc:	2000      	movcc	r0, #0
}
 8005bde:	bdf8      	pop	{r3, r4, r5, r6, r7, pc}

08005be0 <getTriggerValue.isra.0>:
/* return current trigger value */
static uint64 getTriggerValue(SCOPE_MAIN *pTScope)
{
	uint64 trgValue;
	uint8 trgLevelSize = pTScope->trgDataType & (uint8)0x0F;
	switch (trgLevelSize)
 8005be0:	f001 010f 	and.w	r1, r1, #15
 8005be4:	3901      	subs	r1, #1
 8005be6:	2907      	cmp	r1, #7
 8005be8:	d805      	bhi.n	8005bf6 <getTriggerValue.isra.0+0x16>
 8005bea:	e8df f001 	tbb	[pc, r1]
 8005bee:	0d10      	.short	0x0d10
 8005bf0:	04040a04 	.word	0x04040a04
 8005bf4:	0704      	.short	0x0704
 8005bf6:	2000      	movs	r0, #0
 8005bf8:	4601      	mov	r1, r0
		/* unsupported size */
		trgValue = 0;
		break;
	}
	return (trgValue);
}
 8005bfa:	4770      	bx	lr
		trgValue = *(uint64*)pTScope->trgAddr;
 8005bfc:	e9d0 0100 	ldrd	r0, r1, [r0]
		break;
 8005c00:	4770      	bx	lr
		trgValue = *(uint32*)pTScope->trgAddr;
 8005c02:	6800      	ldr	r0, [r0, #0]
 8005c04:	2100      	movs	r1, #0
		break;
 8005c06:	4770      	bx	lr
		trgValue = *(uint16*)pTScope->trgAddr;
 8005c08:	8800      	ldrh	r0, [r0, #0]
 8005c0a:	2100      	movs	r1, #0
		break;
 8005c0c:	4770      	bx	lr
		trgValue = *(uint8*)pTScope->trgAddr;
 8005c0e:	7800      	ldrb	r0, [r0, #0]
 8005c10:	2100      	movs	r1, #0
		break;
 8005c12:	4770      	bx	lr

08005c14 <Scope_Main_Init>:
{
 8005c14:	b538      	push	{r3, r4, r5, lr}
	pTScope->ID = SCOPE_MAIN_ID;
 8005c16:	f64f 73ff 	movw	r3, #65535	@ 0xffff
{
 8005c1a:	4604      	mov	r4, r0
		pTScope->channelAddr[i] = (void*)0;
 8005c1c:	2228      	movs	r2, #40	@ 0x28
	pTScope->ID = SCOPE_MAIN_ID;
 8005c1e:	f820 3b04 	strh.w	r3, [r0], #4
		pTScope->channelAddr[i] = (void*)0;
 8005c22:	2100      	movs	r1, #0
 8005c24:	f001 fb70 	bl	8007308 <memset>
	pTScope->trgAddr = (void*)0;
 8005c28:	2300      	movs	r3, #0
	TableStruct->piScope = pTScope;
 8005c2a:	4a10      	ldr	r2, [pc, #64]	@ (8005c6c <Scope_Main_Init+0x58>)
	pTScope->trgDataType = (uint8)0;
 8005c2c:	f8a4 304c 	strh.w	r3, [r4, #76]	@ 0x4c
	pTScope->trgLevel = (int32)0;
 8005c30:	2100      	movs	r1, #0
 8005c32:	2000      	movs	r0, #0
	pTScope->dataSizeTotal = (uint8)0;
 8005c34:	e9c4 3314 	strd	r3, r3, [r4, #80]	@ 0x50
	pTScope->trgLevel = (int32)0;
 8005c38:	e9c4 010e 	strd	r0, r1, [r4, #56]	@ 0x38
	pTScope->trgLastValue = (int32)0;
 8005c3c:	e9c4 0110 	strd	r0, r1, [r4, #64]	@ 0x40
	TableStruct->piScope = pTScope;
 8005c40:	6815      	ldr	r5, [r2, #0]
	pTScope->arrayAddr = (void*)ScopeArray;
 8005c42:	4a0b      	ldr	r2, [pc, #44]	@ (8005c70 <Scope_Main_Init+0x5c>)
 8005c44:	62e2      	str	r2, [r4, #44]	@ 0x2c
	pTScope->trgEdge = EDGE_RISING;
 8005c46:	2101      	movs	r1, #1
	pTScope->maxUsedLength = SCOPE_SIZE;
 8005c48:	f44f 4200 	mov.w	r2, #32768	@ 0x8000
    pTScope->txFrameSize = (uint8)0;
 8005c4c:	f884 305c 	strb.w	r3, [r4, #92]	@ 0x5c
	pTScope->trgCountReached = (uint8)0;
 8005c50:	f884 3068 	strb.w	r3, [r4, #104]	@ 0x68
	pTScope->trgEdge = EDGE_RISING;
 8005c54:	f884 1074 	strb.w	r1, [r4, #116]	@ 0x74
	pTScope->trgEventPos = (int32)0;
 8005c58:	e9c4 3318 	strd	r3, r3, [r4, #96]	@ 0x60
	pTScope->maxUsedLength = SCOPE_SIZE;
 8005c5c:	e9c4 321b 	strd	r3, r2, [r4, #108]	@ 0x6c
	pTScope->trgAddr = (void*)0;
 8005c60:	64a3      	str	r3, [r4, #72]	@ 0x48
	pTScope->stf = (uint16)0;
 8005c62:	65a3      	str	r3, [r4, #88]	@ 0x58
	pTScope->arraySize = SCOPE_SIZE;
 8005c64:	6322      	str	r2, [r4, #48]	@ 0x30
	TableStruct->piScope = pTScope;
 8005c66:	62ac      	str	r4, [r5, #40]	@ 0x28
}
 8005c68:	bd38      	pop	{r3, r4, r5, pc}
 8005c6a:	bf00      	nop
 8005c6c:	20000024 	.word	0x20000024
 8005c70:	20000204 	.word	0x20000204

08005c74 <Scope_Main_Update>:
{
 8005c74:	b570      	push	{r4, r5, r6, lr}
	switch (pTScope->state)
 8005c76:	f890 604d 	ldrb.w	r6, [r0, #77]	@ 0x4d
 8005c7a:	1e73      	subs	r3, r6, #1
{
 8005c7c:	4604      	mov	r4, r0
	switch (pTScope->state)
 8005c7e:	2b07      	cmp	r3, #7
 8005c80:	d823      	bhi.n	8005cca <Scope_Main_Update+0x56>
 8005c82:	e8df f003 	tbb	[pc, r3]
 8005c86:	8f04      	.short	0x8f04
 8005c88:	23239e22 	.word	0x23239e22
 8005c8c:	7835      	.short	0x7835
			if (pTScope->stfCnt++ >= pTScope->stf)
 8005c8e:	f8b0 3058 	ldrh.w	r3, [r0, #88]	@ 0x58
 8005c92:	f8b0 2056 	ldrh.w	r2, [r0, #86]	@ 0x56
 8005c96:	1c59      	adds	r1, r3, #1
 8005c98:	429a      	cmp	r2, r3
 8005c9a:	f8a0 1058 	strh.w	r1, [r0, #88]	@ 0x58
 8005c9e:	f240 809b 	bls.w	8005dd8 <Scope_Main_Update+0x164>
 8005ca2:	f890 104c 	ldrb.w	r1, [r0, #76]	@ 0x4c
 8005ca6:	6c80      	ldr	r0, [r0, #72]	@ 0x48
			curTrgValue = getTriggerValue(pTScope);
 8005ca8:	f7ff ff9a 	bl	8005be0 <getTriggerValue.isra.0>
 8005cac:	4606      	mov	r6, r0
			if (isTriggerEvent(pTScope, curTrgValue) && pTScope->trgCountReached)
 8005cae:	4602      	mov	r2, r0
 8005cb0:	460b      	mov	r3, r1
 8005cb2:	4620      	mov	r0, r4
			curTrgValue = getTriggerValue(pTScope);
 8005cb4:	460d      	mov	r5, r1
			if (isTriggerEvent(pTScope, curTrgValue) && pTScope->trgCountReached)
 8005cb6:	f7ff fe63 	bl	8005980 <isTriggerEvent>
 8005cba:	b120      	cbz	r0, 8005cc6 <Scope_Main_Update+0x52>
 8005cbc:	f894 3068 	ldrb.w	r3, [r4, #104]	@ 0x68
 8005cc0:	2b00      	cmp	r3, #0
 8005cc2:	f040 80cf 	bne.w	8005e64 <Scope_Main_Update+0x1f0>
				pTScope->trgLastValue = curTrgValue;
 8005cc6:	e9c4 6510 	strd	r6, r5, [r4, #64]	@ 0x40
}
 8005cca:	bd70      	pop	{r4, r5, r6, pc}
        	curTrgValue = getTriggerValue(pTScope);
 8005ccc:	f890 104c 	ldrb.w	r1, [r0, #76]	@ 0x4c
 8005cd0:	6c80      	ldr	r0, [r0, #72]	@ 0x48
 8005cd2:	f7ff ff85 	bl	8005be0 <getTriggerValue.isra.0>
 8005cd6:	4606      	mov	r6, r0
        	if (isTriggerEvent(pTScope, curTrgValue))
 8005cd8:	4602      	mov	r2, r0
 8005cda:	460b      	mov	r3, r1
 8005cdc:	4620      	mov	r0, r4
        	curTrgValue = getTriggerValue(pTScope);
 8005cde:	460d      	mov	r5, r1
        	if (isTriggerEvent(pTScope, curTrgValue))
 8005ce0:	f7ff fe4e 	bl	8005980 <isTriggerEvent>
 8005ce4:	2800      	cmp	r0, #0
 8005ce6:	d0ee      	beq.n	8005cc6 <Scope_Main_Update+0x52>
        		pTScope->state = SCOPE_SAMPLE_ONLINE;
 8005ce8:	2304      	movs	r3, #4
 8005cea:	f884 304d 	strb.w	r3, [r4, #77]	@ 0x4d
}
 8005cee:	bd70      	pop	{r4, r5, r6, pc}
            if (pTScope->stfCnt++ >= pTScope->stf)
 8005cf0:	f8b0 3058 	ldrh.w	r3, [r0, #88]	@ 0x58
 8005cf4:	f8b0 2056 	ldrh.w	r2, [r0, #86]	@ 0x56
 8005cf8:	1c59      	adds	r1, r3, #1
 8005cfa:	429a      	cmp	r2, r3
 8005cfc:	f8a0 1058 	strh.w	r1, [r0, #88]	@ 0x58
 8005d00:	d8e3      	bhi.n	8005cca <Scope_Main_Update+0x56>
				if ((pTScope->offlinePtr + pTScope->dataSizeTotal) > SCOPE_SIZE)
 8005d02:	6d03      	ldr	r3, [r0, #80]	@ 0x50
 8005d04:	f890 2054 	ldrb.w	r2, [r0, #84]	@ 0x54
 8005d08:	441a      	add	r2, r3
                pTScope->stfCnt = (uint16)0;
 8005d0a:	2500      	movs	r5, #0
				if ((pTScope->offlinePtr + pTScope->dataSizeTotal) > SCOPE_SIZE)
 8005d0c:	f5b2 4f00 	cmp.w	r2, #32768	@ 0x8000
                pTScope->stfCnt = (uint16)0;
 8005d10:	f8a0 5058 	strh.w	r5, [r0, #88]	@ 0x58
				if ((pTScope->offlinePtr + pTScope->dataSizeTotal) > SCOPE_SIZE)
 8005d14:	bf88      	it	hi
 8005d16:	462b      	movhi	r3, r5
 8005d18:	4686      	mov	lr, r0
 8005d1a:	f100 0c23 	add.w	ip, r0, #35	@ 0x23
    {
    	j = 0;
        do
        {
        	*(ALIGNCASTPTR pTScope->arrayAddr + pTScope->offlinePtr++) = \
				*(ALIGNCASTPTR pTScope->channelAddr[i] + j);
 8005d1e:	f85e 2f04 	ldr.w	r2, [lr, #4]!
        	*(ALIGNCASTPTR pTScope->arrayAddr + pTScope->offlinePtr++) = \
 8005d22:	1c59      	adds	r1, r3, #1
 8005d24:	6521      	str	r1, [r4, #80]	@ 0x50
				*(ALIGNCASTPTR pTScope->channelAddr[i] + j);
 8005d26:	f992 1000 	ldrsb.w	r1, [r2]
        	*(ALIGNCASTPTR pTScope->arrayAddr + pTScope->offlinePtr++) = \
 8005d2a:	6ae2      	ldr	r2, [r4, #44]	@ 0x2c
 8005d2c:	54d1      	strb	r1, [r2, r3]
            j++;
        }
        while (j < pTScope->dataSize[i]);
 8005d2e:	f81c 3f01 	ldrb.w	r3, [ip, #1]!
 8005d32:	2b01      	cmp	r3, #1
 8005d34:	d90e      	bls.n	8005d54 <Scope_Main_Update+0xe0>
            j++;
 8005d36:	2301      	movs	r3, #1
				if (((pTScope->trgEventPos - pTScope->offlinePtr) <= pTScope->trgDelay) || \
 8005d38:	6d22      	ldr	r2, [r4, #80]	@ 0x50
				*(ALIGNCASTPTR pTScope->channelAddr[i] + j);
 8005d3a:	f8de 0000 	ldr.w	r0, [lr]
        	*(ALIGNCASTPTR pTScope->arrayAddr + pTScope->offlinePtr++) = \
 8005d3e:	1c51      	adds	r1, r2, #1
 8005d40:	6521      	str	r1, [r4, #80]	@ 0x50
 8005d42:	6ae1      	ldr	r1, [r4, #44]	@ 0x2c
				*(ALIGNCASTPTR pTScope->channelAddr[i] + j);
 8005d44:	56c0      	ldrsb	r0, [r0, r3]
        	*(ALIGNCASTPTR pTScope->arrayAddr + pTScope->offlinePtr++) = \
 8005d46:	5488      	strb	r0, [r1, r2]
            j++;
 8005d48:	3301      	adds	r3, #1
        while (j < pTScope->dataSize[i]);
 8005d4a:	f89c 2000 	ldrb.w	r2, [ip]
            j++;
 8005d4e:	b2db      	uxtb	r3, r3
        while (j < pTScope->dataSize[i]);
 8005d50:	429a      	cmp	r2, r3
 8005d52:	d8f1      	bhi.n	8005d38 <Scope_Main_Update+0xc4>

        i++;
    }
    while(i < pTScope->noChannels);
 8005d54:	f894 2055 	ldrb.w	r2, [r4, #85]	@ 0x55
				if (((pTScope->trgEventPos - pTScope->offlinePtr) <= pTScope->trgDelay) || \
 8005d58:	6d23      	ldr	r3, [r4, #80]	@ 0x50
        i++;
 8005d5a:	3501      	adds	r5, #1
 8005d5c:	b2ed      	uxtb	r5, r5
    while(i < pTScope->noChannels);
 8005d5e:	42aa      	cmp	r2, r5
 8005d60:	d8dd      	bhi.n	8005d1e <Scope_Main_Update+0xaa>
				if (((pTScope->trgEventPos - pTScope->offlinePtr) <= pTScope->trgDelay) || \
 8005d62:	e9d4 1218 	ldrd	r1, r2, [r4, #96]	@ 0x60
 8005d66:	1ad3      	subs	r3, r2, r3
 8005d68:	428b      	cmp	r3, r1
 8005d6a:	f200 808c 	bhi.w	8005e86 <Scope_Main_Update+0x212>
					pTScope->state = SCOPE_IDLE;
 8005d6e:	2300      	movs	r3, #0
 8005d70:	f884 304d 	strb.w	r3, [r4, #77]	@ 0x4d
}
 8005d74:	bd70      	pop	{r4, r5, r6, pc}
			if (pTScope->stfCnt++ >= pTScope->stf)
 8005d76:	f8b0 3058 	ldrh.w	r3, [r0, #88]	@ 0x58
 8005d7a:	f8b0 2056 	ldrh.w	r2, [r0, #86]	@ 0x56
 8005d7e:	1c59      	adds	r1, r3, #1
 8005d80:	429a      	cmp	r2, r3
 8005d82:	f8a0 1058 	strh.w	r1, [r0, #88]	@ 0x58
 8005d86:	d8a0      	bhi.n	8005cca <Scope_Main_Update+0x56>
				pTScope->trgEventPos += pTScope->dataSizeTotal;
 8005d88:	6e41      	ldr	r1, [r0, #100]	@ 0x64
 8005d8a:	f890 3054 	ldrb.w	r3, [r0, #84]	@ 0x54
				pTScope->stfCnt = (uint16)0;
 8005d8e:	2200      	movs	r2, #0
				pTScope->trgEventPos += pTScope->dataSizeTotal;
 8005d90:	440b      	add	r3, r1
				if (pTScope->trgEventPos >= 0)
 8005d92:	4293      	cmp	r3, r2
				pTScope->stfCnt = (uint16)0;
 8005d94:	f8a0 2058 	strh.w	r2, [r0, #88]	@ 0x58
				pTScope->trgEventPos += pTScope->dataSizeTotal;
 8005d98:	6643      	str	r3, [r0, #100]	@ 0x64
				if (pTScope->trgEventPos >= 0)
 8005d9a:	db96      	blt.n	8005cca <Scope_Main_Update+0x56>
					pTScope->state = SCOPE_SAMPLE_OFFLINE;
 8005d9c:	2302      	movs	r3, #2
 8005d9e:	f880 304d 	strb.w	r3, [r0, #77]	@ 0x4d
}
 8005da2:	bd70      	pop	{r4, r5, r6, pc}
            if (pTScope->stfCnt++ >= pTScope->stf)
 8005da4:	f8b0 3058 	ldrh.w	r3, [r0, #88]	@ 0x58
 8005da8:	f8b0 2056 	ldrh.w	r2, [r0, #86]	@ 0x56
 8005dac:	1c59      	adds	r1, r3, #1
 8005dae:	429a      	cmp	r2, r3
 8005db0:	f8a0 1058 	strh.w	r1, [r0, #88]	@ 0x58
 8005db4:	d96d      	bls.n	8005e92 <Scope_Main_Update+0x21e>
            pTScope->timestamp++;
 8005db6:	f8b4 305a 	ldrh.w	r3, [r4, #90]	@ 0x5a
 8005dba:	3301      	adds	r3, #1
 8005dbc:	f8a4 305a 	strh.w	r3, [r4, #90]	@ 0x5a
}
 8005dc0:	bd70      	pop	{r4, r5, r6, pc}
			pTScope->timestamp++;
 8005dc2:	f8b0 205a 	ldrh.w	r2, [r0, #90]	@ 0x5a
            pTScope->stfCnt++;
 8005dc6:	f8b0 3058 	ldrh.w	r3, [r0, #88]	@ 0x58
			pTScope->timestamp++;
 8005dca:	3201      	adds	r2, #1
            pTScope->stfCnt++;
 8005dcc:	3301      	adds	r3, #1
			pTScope->timestamp++;
 8005dce:	f8a0 205a 	strh.w	r2, [r0, #90]	@ 0x5a
            pTScope->stfCnt++;
 8005dd2:	f8a0 3058 	strh.w	r3, [r0, #88]	@ 0x58
}
 8005dd6:	bd70      	pop	{r4, r5, r6, pc}
				if (pTScope->offlinePtr + pTScope->dataSizeTotal > SCOPE_SIZE)
 8005dd8:	6d03      	ldr	r3, [r0, #80]	@ 0x50
 8005dda:	f890 2054 	ldrb.w	r2, [r0, #84]	@ 0x54
 8005dde:	441a      	add	r2, r3
				pTScope->stfCnt = (uint16)0;
 8005de0:	2500      	movs	r5, #0
				if (pTScope->offlinePtr + pTScope->dataSizeTotal > SCOPE_SIZE)
 8005de2:	f5b2 4f00 	cmp.w	r2, #32768	@ 0x8000
				pTScope->stfCnt = (uint16)0;
 8005de6:	f8a0 5058 	strh.w	r5, [r0, #88]	@ 0x58
				if (pTScope->offlinePtr + pTScope->dataSizeTotal > SCOPE_SIZE)
 8005dea:	bf88      	it	hi
 8005dec:	462b      	movhi	r3, r5
 8005dee:	4686      	mov	lr, r0
 8005df0:	f100 0c23 	add.w	ip, r0, #35	@ 0x23
							*(ALIGNCASTPTR pTScope->channelAddr[i] + j);
 8005df4:	f85e 2f04 	ldr.w	r2, [lr, #4]!
						*(ALIGNCASTPTR pTScope->arrayAddr + pTScope->offlinePtr++) = \
 8005df8:	1c59      	adds	r1, r3, #1
 8005dfa:	6521      	str	r1, [r4, #80]	@ 0x50
							*(ALIGNCASTPTR pTScope->channelAddr[i] + j);
 8005dfc:	f992 1000 	ldrsb.w	r1, [r2]
						*(ALIGNCASTPTR pTScope->arrayAddr + pTScope->offlinePtr++) = \
 8005e00:	6ae2      	ldr	r2, [r4, #44]	@ 0x2c
 8005e02:	54d1      	strb	r1, [r2, r3]
					while (j < pTScope->dataSize[i]);
 8005e04:	f81c 3f01 	ldrb.w	r3, [ip, #1]!
 8005e08:	2b01      	cmp	r3, #1
 8005e0a:	d90e      	bls.n	8005e2a <Scope_Main_Update+0x1b6>
						j++;
 8005e0c:	4633      	mov	r3, r6
				if (pTScope->offlinePtr >= pTScope->trgCount)
 8005e0e:	6d22      	ldr	r2, [r4, #80]	@ 0x50
							*(ALIGNCASTPTR pTScope->channelAddr[i] + j);
 8005e10:	f8de 0000 	ldr.w	r0, [lr]
						*(ALIGNCASTPTR pTScope->arrayAddr + pTScope->offlinePtr++) = \
 8005e14:	1c51      	adds	r1, r2, #1
 8005e16:	6521      	str	r1, [r4, #80]	@ 0x50
 8005e18:	6ae1      	ldr	r1, [r4, #44]	@ 0x2c
							*(ALIGNCASTPTR pTScope->channelAddr[i] + j);
 8005e1a:	56c0      	ldrsb	r0, [r0, r3]
						*(ALIGNCASTPTR pTScope->arrayAddr + pTScope->offlinePtr++) = \
 8005e1c:	5488      	strb	r0, [r1, r2]
						j++;
 8005e1e:	3301      	adds	r3, #1
					while (j < pTScope->dataSize[i]);
 8005e20:	f89c 2000 	ldrb.w	r2, [ip]
						j++;
 8005e24:	b2db      	uxtb	r3, r3
					while (j < pTScope->dataSize[i]);
 8005e26:	429a      	cmp	r2, r3
 8005e28:	d8f1      	bhi.n	8005e0e <Scope_Main_Update+0x19a>
				while(i < pTScope->noChannels);
 8005e2a:	f894 2055 	ldrb.w	r2, [r4, #85]	@ 0x55
				if (pTScope->offlinePtr >= pTScope->trgCount)
 8005e2e:	6d23      	ldr	r3, [r4, #80]	@ 0x50
					i++;
 8005e30:	3501      	adds	r5, #1
 8005e32:	b2ed      	uxtb	r5, r5
				while(i < pTScope->noChannels);
 8005e34:	42aa      	cmp	r2, r5
 8005e36:	d8dd      	bhi.n	8005df4 <Scope_Main_Update+0x180>
				if (pTScope->offlinePtr >= pTScope->trgCount)
 8005e38:	6ee2      	ldr	r2, [r4, #108]	@ 0x6c
 8005e3a:	f894 104c 	ldrb.w	r1, [r4, #76]	@ 0x4c
 8005e3e:	6ca0      	ldr	r0, [r4, #72]	@ 0x48
 8005e40:	429a      	cmp	r2, r3
 8005e42:	f63f af31 	bhi.w	8005ca8 <Scope_Main_Update+0x34>
					pTScope->trgCountReached = 1;
 8005e46:	2301      	movs	r3, #1
 8005e48:	f884 3068 	strb.w	r3, [r4, #104]	@ 0x68
			curTrgValue = getTriggerValue(pTScope);
 8005e4c:	f7ff fec8 	bl	8005be0 <getTriggerValue.isra.0>
 8005e50:	4606      	mov	r6, r0
			if (isTriggerEvent(pTScope, curTrgValue) && pTScope->trgCountReached)
 8005e52:	4602      	mov	r2, r0
 8005e54:	460b      	mov	r3, r1
 8005e56:	4620      	mov	r0, r4
			curTrgValue = getTriggerValue(pTScope);
 8005e58:	460d      	mov	r5, r1
			if (isTriggerEvent(pTScope, curTrgValue) && pTScope->trgCountReached)
 8005e5a:	f7ff fd91 	bl	8005980 <isTriggerEvent>
 8005e5e:	2800      	cmp	r0, #0
 8005e60:	f43f af31 	beq.w	8005cc6 <Scope_Main_Update+0x52>
				if (pTScope->trgDelay < (int32)0)
 8005e64:	6e23      	ldr	r3, [r4, #96]	@ 0x60
 8005e66:	2b00      	cmp	r3, #0
 8005e68:	db3e      	blt.n	8005ee8 <Scope_Main_Update+0x274>
					if (pTScope->offlinePtr > 0)
 8005e6a:	6d23      	ldr	r3, [r4, #80]	@ 0x50
 8005e6c:	2b00      	cmp	r3, #0
 8005e6e:	d042      	beq.n	8005ef6 <Scope_Main_Update+0x282>
						if (pTScope->stfCnt != 0)
 8005e70:	f8b4 2058 	ldrh.w	r2, [r4, #88]	@ 0x58
 8005e74:	b912      	cbnz	r2, 8005e7c <Scope_Main_Update+0x208>
							pTScope->trgEventPos = pTScope->offlinePtr - pTScope->dataSizeTotal;
 8005e76:	f894 2054 	ldrb.w	r2, [r4, #84]	@ 0x54
 8005e7a:	1a9b      	subs	r3, r3, r2
					pTScope->state = SCOPE_TRG_SAMPLE_OFFLINE;
 8005e7c:	2207      	movs	r2, #7
 8005e7e:	f884 204d 	strb.w	r2, [r4, #77]	@ 0x4d
							pTScope->trgEventPos = pTScope->offlinePtr - pTScope->dataSizeTotal;
 8005e82:	6663      	str	r3, [r4, #100]	@ 0x64
}
 8005e84:	bd70      	pop	{r4, r5, r6, pc}
					((pTScope->trgEventPos - pTScope->offlinePtr + pTScope->maxUsedLength) <= pTScope->trgDelay))
 8005e86:	6f22      	ldr	r2, [r4, #112]	@ 0x70
 8005e88:	4413      	add	r3, r2
				if (((pTScope->trgEventPos - pTScope->offlinePtr) <= pTScope->trgDelay) || \
 8005e8a:	4299      	cmp	r1, r3
 8005e8c:	f4ff af1d 	bcc.w	8005cca <Scope_Main_Update+0x56>
 8005e90:	e76d      	b.n	8005d6e <Scope_Main_Update+0xfa>
                pTScope->stfCnt = (uint16)0;
 8005e92:	2500      	movs	r5, #0
 8005e94:	f8a0 5058 	strh.w	r5, [r0, #88]	@ 0x58
	i = 0;
 8005e98:	f100 0e04 	add.w	lr, r0, #4
 8005e9c:	f100 0c24 	add.w	ip, r0, #36	@ 0x24
                pTScope->stfCnt = (uint16)0;
 8005ea0:	2300      	movs	r3, #0
        	*(ALIGNCASTPTR pTScope->arrayAddr + pTScope->offlinePtr++) = \
 8005ea2:	6d22      	ldr	r2, [r4, #80]	@ 0x50
				*(ALIGNCASTPTR pTScope->channelAddr[i] + j);
 8005ea4:	f8de 0000 	ldr.w	r0, [lr]
        	*(ALIGNCASTPTR pTScope->arrayAddr + pTScope->offlinePtr++) = \
 8005ea8:	1c51      	adds	r1, r2, #1
 8005eaa:	6521      	str	r1, [r4, #80]	@ 0x50
 8005eac:	6ae1      	ldr	r1, [r4, #44]	@ 0x2c
				*(ALIGNCASTPTR pTScope->channelAddr[i] + j);
 8005eae:	56c0      	ldrsb	r0, [r0, r3]
        	*(ALIGNCASTPTR pTScope->arrayAddr + pTScope->offlinePtr++) = \
 8005eb0:	5488      	strb	r0, [r1, r2]
        while (j < pTScope->dataSize[i]);
 8005eb2:	3301      	adds	r3, #1
 8005eb4:	f89c 1000 	ldrb.w	r1, [ip]
 8005eb8:	b2da      	uxtb	r2, r3
 8005eba:	4291      	cmp	r1, r2
 8005ebc:	d8f1      	bhi.n	8005ea2 <Scope_Main_Update+0x22e>
    while(i < pTScope->noChannels);
 8005ebe:	f894 2055 	ldrb.w	r2, [r4, #85]	@ 0x55
 8005ec2:	3501      	adds	r5, #1
 8005ec4:	b2eb      	uxtb	r3, r5
 8005ec6:	429a      	cmp	r2, r3
 8005ec8:	f10e 0e04 	add.w	lr, lr, #4
 8005ecc:	f10c 0c01 	add.w	ip, ip, #1
 8005ed0:	d8e6      	bhi.n	8005ea0 <Scope_Main_Update+0x22c>
                if ((pTScope->offlinePtr + pTScope->dataSizeTotal) > SCOPE_SIZE)
 8005ed2:	f894 3054 	ldrb.w	r3, [r4, #84]	@ 0x54
 8005ed6:	6d22      	ldr	r2, [r4, #80]	@ 0x50
 8005ed8:	4413      	add	r3, r2
 8005eda:	f5b3 4f00 	cmp.w	r3, #32768	@ 0x8000
                    pTScope->state = SCOPE_IDLE;
 8005ede:	bf84      	itt	hi
 8005ee0:	2300      	movhi	r3, #0
 8005ee2:	f884 304d 	strbhi.w	r3, [r4, #77]	@ 0x4d
 8005ee6:	e766      	b.n	8005db6 <Scope_Main_Update+0x142>
					pTScope->state = SCOPE_WAIT_TRG_NEG_DELAY;
 8005ee8:	2208      	movs	r2, #8
					pTScope->offlinePtr = (uint32)0;
 8005eea:	2100      	movs	r1, #0
					pTScope->state = SCOPE_WAIT_TRG_NEG_DELAY;
 8005eec:	f884 204d 	strb.w	r2, [r4, #77]	@ 0x4d
					pTScope->trgEventPos = pTScope->trgDelay;
 8005ef0:	6663      	str	r3, [r4, #100]	@ 0x64
					pTScope->offlinePtr = (uint32)0;
 8005ef2:	6521      	str	r1, [r4, #80]	@ 0x50
}
 8005ef4:	bd70      	pop	{r4, r5, r6, pc}
						pTScope->trgEventPos = pTScope->maxUsedLength - pTScope->dataSizeTotal;
 8005ef6:	f894 2054 	ldrb.w	r2, [r4, #84]	@ 0x54
 8005efa:	6f23      	ldr	r3, [r4, #112]	@ 0x70
 8005efc:	1a9b      	subs	r3, r3, r2
 8005efe:	e7bd      	b.n	8005e7c <Scope_Main_Update+0x208>

08005f00 <Scope_Main_Load>:
	if ((uint16)29 > maxSize)
 8005f00:	2b1c      	cmp	r3, #28
 8005f02:	d954      	bls.n	8005fae <Scope_Main_Load+0xae>
		data[0] = pTScope->state;
 8005f04:	f890 304d 	ldrb.w	r3, [r0, #77]	@ 0x4d
 8005f08:	700b      	strb	r3, [r1, #0]
		data[1] = pTScope->noChannels;
 8005f0a:	f890 3055 	ldrb.w	r3, [r0, #85]	@ 0x55
 8005f0e:	704b      	strb	r3, [r1, #1]
		data[2] = (uint8)(pTScope->stf & 0xFF);
 8005f10:	f8b0 3056 	ldrh.w	r3, [r0, #86]	@ 0x56
 8005f14:	708b      	strb	r3, [r1, #2]
		data[3] = (uint8)((pTScope->stf >> 8) & 0xFF);
 8005f16:	f8b0 3056 	ldrh.w	r3, [r0, #86]	@ 0x56
 8005f1a:	0a1b      	lsrs	r3, r3, #8
 8005f1c:	70cb      	strb	r3, [r1, #3]
		data[4] = (uint8)(pTScope->offlinePtr & 0xFF);
 8005f1e:	6d03      	ldr	r3, [r0, #80]	@ 0x50
 8005f20:	710b      	strb	r3, [r1, #4]
		data[5] = (uint8)((pTScope->offlinePtr >> 8) & 0xFF);
 8005f22:	6d03      	ldr	r3, [r0, #80]	@ 0x50
 8005f24:	0a1b      	lsrs	r3, r3, #8
 8005f26:	714b      	strb	r3, [r1, #5]
		data[6] = (uint8)((pTScope->offlinePtr >> 16) & 0xFF);
 8005f28:	f8b0 3052 	ldrh.w	r3, [r0, #82]	@ 0x52
 8005f2c:	718b      	strb	r3, [r1, #6]
		data[7] = (uint8)((pTScope->offlinePtr >> 24) & 0xFF);
 8005f2e:	f890 3053 	ldrb.w	r3, [r0, #83]	@ 0x53
 8005f32:	71cb      	strb	r3, [r1, #7]
		data[8] = (uint8)((uint32)pTScope->arrayAddr & 0xFF);
 8005f34:	6ac3      	ldr	r3, [r0, #44]	@ 0x2c
 8005f36:	720b      	strb	r3, [r1, #8]
		data[9] = (uint8)(((uint32)pTScope->arrayAddr >> 8) & 0xFF);
 8005f38:	6ac3      	ldr	r3, [r0, #44]	@ 0x2c
 8005f3a:	0a1b      	lsrs	r3, r3, #8
 8005f3c:	724b      	strb	r3, [r1, #9]
		data[10] = (uint8)(((uint32)pTScope->arrayAddr >> 16) & 0xFF);
 8005f3e:	8dc3      	ldrh	r3, [r0, #46]	@ 0x2e
 8005f40:	728b      	strb	r3, [r1, #10]
		data[11] = (uint8)(((uint32)pTScope->arrayAddr >> 24) & 0xFF);
 8005f42:	f890 302f 	ldrb.w	r3, [r0, #47]	@ 0x2f
 8005f46:	72cb      	strb	r3, [r1, #11]
		data[12] = (uint8)(pTScope->trgDelay & 0xFF);
 8005f48:	6e03      	ldr	r3, [r0, #96]	@ 0x60
 8005f4a:	730b      	strb	r3, [r1, #12]
		data[13] = (uint8)((pTScope->trgDelay >> 8) & 0xFF);
 8005f4c:	6e03      	ldr	r3, [r0, #96]	@ 0x60
 8005f4e:	121b      	asrs	r3, r3, #8
 8005f50:	734b      	strb	r3, [r1, #13]
		data[14] = (uint8)((pTScope->trgDelay >> 16) & 0xFF);
 8005f52:	f9b0 3062 	ldrsh.w	r3, [r0, #98]	@ 0x62
 8005f56:	738b      	strb	r3, [r1, #14]
		data[15] = (uint8)((pTScope->trgDelay >> 24) & 0xFF);
 8005f58:	f990 3063 	ldrsb.w	r3, [r0, #99]	@ 0x63
 8005f5c:	73cb      	strb	r3, [r1, #15]
		data[16] = (uint8)(pTScope->trgEventPos & 0xFF);
 8005f5e:	6e43      	ldr	r3, [r0, #100]	@ 0x64
 8005f60:	740b      	strb	r3, [r1, #16]
		data[17] = (uint8)((pTScope->trgEventPos >> 8) & 0xFF);
 8005f62:	6e43      	ldr	r3, [r0, #100]	@ 0x64
 8005f64:	121b      	asrs	r3, r3, #8
 8005f66:	744b      	strb	r3, [r1, #17]
		data[18] = (uint8)((pTScope->trgEventPos >> 16) & 0xFF);
 8005f68:	f9b0 3066 	ldrsh.w	r3, [r0, #102]	@ 0x66
 8005f6c:	748b      	strb	r3, [r1, #18]
		data[19] = (uint8)((pTScope->trgEventPos >> 24) & 0xFF);
 8005f6e:	f990 3067 	ldrsb.w	r3, [r0, #103]	@ 0x67
 8005f72:	74cb      	strb	r3, [r1, #19]
		data[20] = (uint8)(pTScope->maxUsedLength & 0xFF);
 8005f74:	6f03      	ldr	r3, [r0, #112]	@ 0x70
 8005f76:	750b      	strb	r3, [r1, #20]
		data[21] = (uint8)((pTScope->maxUsedLength >> 8) & 0xFF);
 8005f78:	6f03      	ldr	r3, [r0, #112]	@ 0x70
 8005f7a:	0a1b      	lsrs	r3, r3, #8
 8005f7c:	754b      	strb	r3, [r1, #21]
		data[22] = (uint8)((pTScope->maxUsedLength >> 16) & 0xFF);
 8005f7e:	f8b0 3072 	ldrh.w	r3, [r0, #114]	@ 0x72
 8005f82:	758b      	strb	r3, [r1, #22]
		data[23] = (uint8)((pTScope->maxUsedLength >> 24) & 0xFF);
 8005f84:	f890 3073 	ldrb.w	r3, [r0, #115]	@ 0x73
 8005f88:	75cb      	strb	r3, [r1, #23]
		data[24] = (uint8)(pTScope->arraySize & 0xFF);
 8005f8a:	6b03      	ldr	r3, [r0, #48]	@ 0x30
 8005f8c:	760b      	strb	r3, [r1, #24]
		data[25] = (uint8)((pTScope->arraySize >> 8) & 0xFF);
 8005f8e:	6b03      	ldr	r3, [r0, #48]	@ 0x30
 8005f90:	0a1b      	lsrs	r3, r3, #8
 8005f92:	764b      	strb	r3, [r1, #25]
		data[26] = (uint8)((pTScope->arraySize >> 16) & 0xFF);
 8005f94:	8e43      	ldrh	r3, [r0, #50]	@ 0x32
 8005f96:	768b      	strb	r3, [r1, #26]
		data[27] = (uint8)((pTScope->arraySize >> 24) & 0xFF);
 8005f98:	f890 0033 	ldrb.w	r0, [r0, #51]	@ 0x33
 8005f9c:	76c8      	strb	r0, [r1, #27]
		data[28] = (uint8)0x80 + SCOPE_VERSION;
 8005f9e:	f04f 0c83 	mov.w	ip, #131	@ 0x83
		*dataLength = (uint16)29;
 8005fa2:	231d      	movs	r3, #29
		data[28] = (uint8)0x80 + SCOPE_VERSION;
 8005fa4:	f881 c01c 	strb.w	ip, [r1, #28]
	uint8 error = (uint8)0;
 8005fa8:	2000      	movs	r0, #0
		*dataLength = (uint16)29;
 8005faa:	8013      	strh	r3, [r2, #0]
 8005fac:	4770      	bx	lr
		error = (uint8)1;
 8005fae:	2001      	movs	r0, #1
}
 8005fb0:	4770      	bx	lr
 8005fb2:	bf00      	nop

08005fb4 <Scope_Main_Save>:
   if (ucFRMlen < offset)
 8005fb4:	2a03      	cmp	r2, #3
 8005fb6:	f240 8212 	bls.w	80063de <Scope_Main_Save+0x42a>
{
 8005fba:	e92d 4ff0 	stmdb	sp!, {r4, r5, r6, r7, r8, r9, sl, fp, lr}
       if (data[1] > MAX_SCOPE_CHANNELS)
 8005fbe:	784b      	ldrb	r3, [r1, #1]
 8005fc0:	3b01      	subs	r3, #1
 8005fc2:	2b07      	cmp	r3, #7
{
 8005fc4:	b085      	sub	sp, #20
 8005fc6:	460f      	mov	r7, r1
       if (data[1] > MAX_SCOPE_CHANNELS)
 8005fc8:	f200 80c1 	bhi.w	800614e <Scope_Main_Save+0x19a>
	   pTScope->state = SCOPE_IDLE;
 8005fcc:	2600      	movs	r6, #0
 8005fce:	f880 604d 	strb.w	r6, [r0, #77]	@ 0x4d
	   pTScope->noChannels = (uint8)0;
 8005fd2:	f880 6055 	strb.w	r6, [r0, #85]	@ 0x55
       pTScope->timestamp = (uint16)0;
 8005fd6:	f8a0 605a 	strh.w	r6, [r0, #90]	@ 0x5a
       pTScope->offlinePtr = (uint32)0;
 8005fda:	6506      	str	r6, [r0, #80]	@ 0x50
       pTScope->stf = (uint16)data[2] + ((uint16)data[3] << 8);
 8005fdc:	4690      	mov	r8, r2
 8005fde:	884a      	ldrh	r2, [r1, #2]
       pTScope->dataSizeTotal = (uint8)0;
 8005fe0:	f880 6054 	strb.w	r6, [r0, #84]	@ 0x54
       pTScope->stf = (uint16)data[2] + ((uint16)data[3] << 8);
 8005fe4:	4633      	mov	r3, r6
 8005fe6:	f362 030f 	bfi	r3, r2, #0, #16
 8005fea:	f362 431f 	bfi	r3, r2, #16, #16
 8005fee:	f8c0 3056 	str.w	r3, [r0, #86]	@ 0x56
       pTScope->trgLastValue = (int32)0;
 8005ff2:	2200      	movs	r2, #0
 8005ff4:	2300      	movs	r3, #0
 8005ff6:	e9c0 2310 	strd	r2, r3, [r0, #64]	@ 0x40
       pTScope->txFrameSize = (uint8)2;
 8005ffa:	2302      	movs	r3, #2
	   pTScope->trgCountReached = (uint8)0;
 8005ffc:	f880 6068 	strb.w	r6, [r0, #104]	@ 0x68
	   pTScope->trgEventPos = (int32)0;
 8006000:	6646      	str	r6, [r0, #100]	@ 0x64
       pTScope->txFrameSize = (uint8)2;
 8006002:	f880 305c 	strb.w	r3, [r0, #92]	@ 0x5c
       while (i < data[1])
 8006006:	784b      	ldrb	r3, [r1, #1]
 8006008:	4604      	mov	r4, r0
 800600a:	2b00      	cmp	r3, #0
 800600c:	f000 81df 	beq.w	80063ce <Scope_Main_Save+0x41a>
 8006010:	460d      	mov	r5, r1
 8006012:	f100 0904 	add.w	r9, r0, #4
 8006016:	f04f 0b05 	mov.w	fp, #5
 800601a:	f8cd 8004 	str.w	r8, [sp, #4]
    	   switch (sourceType)
 800601e:	792b      	ldrb	r3, [r5, #4]
 8006020:	2b03      	cmp	r3, #3
 8006022:	f200 8094 	bhi.w	800614e <Scope_Main_Save+0x19a>
 8006026:	e8df f003 	tbb	[pc, r3]
 800602a:	5b96      	.short	0x5b96
 800602c:	0240      	.short	0x0240
				   uint8 error = getIoParamIndex(TableStruct->outportParamTable, paramId, &tblIndex);
 800602e:	f8df a3b4 	ldr.w	sl, [pc, #948]	@ 80063e4 <Scope_Main_Save+0x430>
				   uint16 paramId = (uint16)data[ptr + 2] + ((uint16)data[ptr + 3] << 8);
 8006032:	7a2b      	ldrb	r3, [r5, #8]
 8006034:	79e9      	ldrb	r1, [r5, #7]
				   uint8 error = getIoParamIndex(TableStruct->outportParamTable, paramId, &tblIndex);
 8006036:	f8da 2000 	ldr.w	r2, [sl]
				   uint16 paramId = (uint16)data[ptr + 2] + ((uint16)data[ptr + 3] << 8);
 800603a:	eb01 2103 	add.w	r1, r1, r3, lsl #8
				   uint8 error = getIoParamIndex(TableStruct->outportParamTable, paramId, &tblIndex);
 800603e:	6b50      	ldr	r0, [r2, #52]	@ 0x34
 8006040:	b289      	uxth	r1, r1
 8006042:	f10d 020e 	add.w	r2, sp, #14
 8006046:	f7ff f94f 	bl	80052e8 <getIoParamIndex>
				   if (error != ERROR_SUCCESS)
 800604a:	2800      	cmp	r0, #0
 800604c:	d17f      	bne.n	800614e <Scope_Main_Save+0x19a>
				   pTScope->channelAddr[i] = *(void**)TableStruct->outportParamTable[tblIndex].data;
 800604e:	f8da 3000 	ldr.w	r3, [sl]
 8006052:	f8bd 200e 	ldrh.w	r2, [sp, #14]
 8006056:	6b5b      	ldr	r3, [r3, #52]	@ 0x34
 8006058:	eb03 03c2 	add.w	r3, r3, r2, lsl #3
 800605c:	685b      	ldr	r3, [r3, #4]
 800605e:	681b      	ldr	r3, [r3, #0]
 8006060:	f8c9 3000 	str.w	r3, [r9]
          pTScope->dataSize[i] = (uint16)data[ptr + 4];
 8006064:	19a3      	adds	r3, r4, r6
 8006066:	7a6a      	ldrb	r2, [r5, #9]
 8006068:	f883 2024 	strb.w	r2, [r3, #36]	@ 0x24
          pTScope->dataSizeTotal += pTScope->dataSize[i];
 800606c:	f894 3054 	ldrb.w	r3, [r4, #84]	@ 0x54
          pTScope->txFrameSize += (pTScope->dataSize[i]);
 8006070:	f894 105c 	ldrb.w	r1, [r4, #92]	@ 0x5c
          pTScope->dataSizeTotal += pTScope->dataSize[i];
 8006074:	4413      	add	r3, r2
 8006076:	b2db      	uxtb	r3, r3
          pTScope->txFrameSize += (pTScope->dataSize[i]);
 8006078:	440a      	add	r2, r1
          pTScope->dataSizeTotal += pTScope->dataSize[i];
 800607a:	f884 3054 	strb.w	r3, [r4, #84]	@ 0x54
          pTScope->txFrameSize += (pTScope->dataSize[i]);
 800607e:	f884 205c 	strb.w	r2, [r4, #92]	@ 0x5c
        		  (SCOPE_SIZE % pTScope->dataSizeTotal);
 8006082:	f44f 4200 	mov.w	r2, #32768	@ 0x8000
 8006086:	fbb2 f2f3 	udiv	r2, r2, r3
          pTScope->maxUsedLength = SCOPE_SIZE - \
 800608a:	fb02 f303 	mul.w	r3, r2, r3
 800608e:	6723      	str	r3, [r4, #112]	@ 0x70
       while (i < data[1])
 8006090:	787a      	ldrb	r2, [r7, #1]
 8006092:	3601      	adds	r6, #1
 8006094:	b2f3      	uxtb	r3, r6
 8006096:	429a      	cmp	r2, r3
 8006098:	f109 0904 	add.w	r9, r9, #4
 800609c:	f105 0506 	add.w	r5, r5, #6
 80060a0:	f10b 0106 	add.w	r1, fp, #6
 80060a4:	d964      	bls.n	8006170 <Scope_Main_Save+0x1bc>
 80060a6:	468b      	mov	fp, r1
 80060a8:	e7b9      	b.n	800601e <Scope_Main_Save+0x6a>
				   uint8 error = getIoParamIndex(TableStruct->inportParamTable, paramId, &tblIndex);
 80060aa:	f8df a338 	ldr.w	sl, [pc, #824]	@ 80063e4 <Scope_Main_Save+0x430>
				   uint16 paramId = (uint16)data[ptr + 2] + ((uint16)data[ptr + 3] << 8);
 80060ae:	7a2b      	ldrb	r3, [r5, #8]
 80060b0:	79e9      	ldrb	r1, [r5, #7]
				   uint8 error = getIoParamIndex(TableStruct->inportParamTable, paramId, &tblIndex);
 80060b2:	f8da 2000 	ldr.w	r2, [sl]
				   uint16 paramId = (uint16)data[ptr + 2] + ((uint16)data[ptr + 3] << 8);
 80060b6:	eb01 2103 	add.w	r1, r1, r3, lsl #8
				   uint8 error = getIoParamIndex(TableStruct->inportParamTable, paramId, &tblIndex);
 80060ba:	6b10      	ldr	r0, [r2, #48]	@ 0x30
 80060bc:	b289      	uxth	r1, r1
 80060be:	f10d 020e 	add.w	r2, sp, #14
 80060c2:	f7ff f911 	bl	80052e8 <getIoParamIndex>
				   if (error != ERROR_SUCCESS)
 80060c6:	2800      	cmp	r0, #0
 80060c8:	d141      	bne.n	800614e <Scope_Main_Save+0x19a>
				   pTScope->channelAddr[i] = TableStruct->inportParamTable[tblIndex].data;
 80060ca:	f8da 3000 	ldr.w	r3, [sl]
 80060ce:	f8bd 200e 	ldrh.w	r2, [sp, #14]
 80060d2:	6b1b      	ldr	r3, [r3, #48]	@ 0x30
 80060d4:	eb03 03c2 	add.w	r3, r3, r2, lsl #3
 80060d8:	685b      	ldr	r3, [r3, #4]
 80060da:	f8c9 3000 	str.w	r3, [r9]
				   break;
 80060de:	e7c1      	b.n	8006064 <Scope_Main_Save+0xb0>
				   uint8 error = getBlockParamIndex(TableStruct->TParamTable, paramId, &tblIndex);
 80060e0:	f8df a300 	ldr.w	sl, [pc, #768]	@ 80063e4 <Scope_Main_Save+0x430>
				   uint16 paramId = (uint16)data[ptr + 2] + ((uint16)data[ptr + 3] << 8);
 80060e4:	7a2b      	ldrb	r3, [r5, #8]
				   uint8 error = getBlockParamIndex(TableStruct->TParamTable, paramId, &tblIndex);
 80060e6:	f8da 2000 	ldr.w	r2, [sl]
				   uint16 paramId = (uint16)data[ptr + 2] + ((uint16)data[ptr + 3] << 8);
 80060ea:	79e9      	ldrb	r1, [r5, #7]
				   uint8 error = getBlockParamIndex(TableStruct->TParamTable, paramId, &tblIndex);
 80060ec:	6810      	ldr	r0, [r2, #0]
				   uint16 elementId = (uint16)data[ptr] + ((uint16)data[ptr + 1] << 8);
 80060ee:	79aa      	ldrb	r2, [r5, #6]
				   uint16 paramId = (uint16)data[ptr + 2] + ((uint16)data[ptr + 3] << 8);
 80060f0:	eb01 2103 	add.w	r1, r1, r3, lsl #8
				   uint16 elementId = (uint16)data[ptr] + ((uint16)data[ptr + 1] << 8);
 80060f4:	796b      	ldrb	r3, [r5, #5]
 80060f6:	eb03 2302 	add.w	r3, r3, r2, lsl #8
 80060fa:	b29b      	uxth	r3, r3
				   uint8 error = getBlockParamIndex(TableStruct->TParamTable, paramId, &tblIndex);
 80060fc:	b289      	uxth	r1, r1
 80060fe:	f10d 020e 	add.w	r2, sp, #14
				   uint16 elementId = (uint16)data[ptr] + ((uint16)data[ptr + 1] << 8);
 8006102:	9300      	str	r3, [sp, #0]
				   uint8 error = getBlockParamIndex(TableStruct->TParamTable, paramId, &tblIndex);
 8006104:	f7ff f914 	bl	8005330 <getBlockParamIndex>
				   if (error != ERROR_SUCCESS)
 8006108:	bb08      	cbnz	r0, 800614e <Scope_Main_Save+0x19a>
				   blockAddr = TableStruct->TParamTable[tblIndex].pAdr;
 800610a:	f8da 1000 	ldr.w	r1, [sl]
 800610e:	f8bd 000e 	ldrh.w	r0, [sp, #14]
 8006112:	680b      	ldr	r3, [r1, #0]
 8006114:	eb03 03c0 	add.w	r3, r3, r0, lsl #3
				   error = getBlockFunctionIndex(TableStruct->TFncTable, blockId, &tblIndex);
 8006118:	f10d 020e 	add.w	r2, sp, #14
				   blockAddr = TableStruct->TParamTable[tblIndex].pAdr;
 800611c:	f8d3 8004 	ldr.w	r8, [r3, #4]
				   error = getBlockFunctionIndex(TableStruct->TFncTable, blockId, &tblIndex);
 8006120:	6848      	ldr	r0, [r1, #4]
 8006122:	f8b8 1000 	ldrh.w	r1, [r8]
 8006126:	f7ff f94d 	bl	80053c4 <getBlockFunctionIndex>
				   if (error != ERROR_SUCCESS)
 800612a:	b980      	cbnz	r0, 800614e <Scope_Main_Save+0x19a>
				   pTScope->channelAddr[i] = TableStruct->TFncTable[tblIndex].pFGetAddress(blockAddr, elementId);
 800612c:	f8da 2000 	ldr.w	r2, [sl]
 8006130:	f8bd 300e 	ldrh.w	r3, [sp, #14]
 8006134:	6852      	ldr	r2, [r2, #4]
 8006136:	9900      	ldr	r1, [sp, #0]
 8006138:	eb03 0343 	add.w	r3, r3, r3, lsl #1
 800613c:	eb02 03c3 	add.w	r3, r2, r3, lsl #3
 8006140:	4640      	mov	r0, r8
 8006142:	695b      	ldr	r3, [r3, #20]
 8006144:	4798      	blx	r3
 8006146:	f8c9 0000 	str.w	r0, [r9]
				   if (pTScope->channelAddr[i] == (void*)0)
 800614a:	2800      	cmp	r0, #0
 800614c:	d18a      	bne.n	8006064 <Scope_Main_Save+0xb0>
       return ((uint8)1);
 800614e:	2001      	movs	r0, #1
}
 8006150:	b005      	add	sp, #20
 8006152:	e8bd 8ff0 	ldmia.w	sp!, {r4, r5, r6, r7, r8, r9, sl, fp, pc}
						   ((uint32)data[ptr + 2] << 16) + ((uint32)data[ptr + 3] << 24));
 8006156:	79eb      	ldrb	r3, [r5, #7]
				   pTScope->channelAddr[i] = (void*)((uint32)data[ptr] + ((uint32)data[ptr + 1] << 8) + \
 8006158:	79aa      	ldrb	r2, [r5, #6]
						   ((uint32)data[ptr + 2] << 16) + ((uint32)data[ptr + 3] << 24));
 800615a:	041b      	lsls	r3, r3, #16
				   pTScope->channelAddr[i] = (void*)((uint32)data[ptr] + ((uint32)data[ptr + 1] << 8) + \
 800615c:	eb03 2302 	add.w	r3, r3, r2, lsl #8
 8006160:	796a      	ldrb	r2, [r5, #5]
 8006162:	4413      	add	r3, r2
						   ((uint32)data[ptr + 2] << 16) + ((uint32)data[ptr + 3] << 24));
 8006164:	7a2a      	ldrb	r2, [r5, #8]
 8006166:	eb03 6302 	add.w	r3, r3, r2, lsl #24
				   pTScope->channelAddr[i] = (void*)((uint32)data[ptr] + ((uint32)data[ptr + 1] << 8) + \
 800616a:	f8c9 3000 	str.w	r3, [r9]
				   break;
 800616e:	e779      	b.n	8006064 <Scope_Main_Save+0xb0>
 8006170:	fa5f fc8b 	uxtb.w	ip, fp
          ptr += (uint8)5;
 8006174:	f10c 0505 	add.w	r5, ip, #5
       ptr++;
 8006178:	f10c 0206 	add.w	r2, ip, #6
          ptr += (uint8)5;
 800617c:	b2ed      	uxtb	r5, r5
       ptr++;
 800617e:	f10c 0c07 	add.w	ip, ip, #7
 8006182:	f8dd 8004 	ldr.w	r8, [sp, #4]
       sourceType = data[ptr];
 8006186:	b2d2      	uxtb	r2, r2
       ptr++;
 8006188:	fa5f f38c 	uxtb.w	r3, ip
       pTScope->trgDataType = data[ptr];
 800618c:	4629      	mov	r1, r5
 800618e:	5c79      	ldrb	r1, [r7, r1]
 8006190:	f884 104c 	strb.w	r1, [r4, #76]	@ 0x4c
       switch (sourceType)
 8006194:	5cba      	ldrb	r2, [r7, r2]
 8006196:	2a03      	cmp	r2, #3
 8006198:	d8d9      	bhi.n	800614e <Scope_Main_Save+0x19a>
 800619a:	e8df f002 	tbb	[pc, r2]
 800619e:	5189      	.short	0x5189
 80061a0:	0237      	.short	0x0237
			   uint16 paramId = (uint16)data[ptr + 2] + ((uint16)data[ptr + 3] << 8);
 80061a2:	443b      	add	r3, r7
			   uint8 error = getIoParamIndex(TableStruct->outportParamTable, paramId, &tblIndex);
 80061a4:	4e8f      	ldr	r6, [pc, #572]	@ (80063e4 <Scope_Main_Save+0x430>)
			   uint16 paramId = (uint16)data[ptr + 2] + ((uint16)data[ptr + 3] << 8);
 80061a6:	78da      	ldrb	r2, [r3, #3]
 80061a8:	7899      	ldrb	r1, [r3, #2]
			   uint8 error = getIoParamIndex(TableStruct->outportParamTable, paramId, &tblIndex);
 80061aa:	6833      	ldr	r3, [r6, #0]
			   uint16 paramId = (uint16)data[ptr + 2] + ((uint16)data[ptr + 3] << 8);
 80061ac:	eb01 2102 	add.w	r1, r1, r2, lsl #8
			   uint8 error = getIoParamIndex(TableStruct->outportParamTable, paramId, &tblIndex);
 80061b0:	6b58      	ldr	r0, [r3, #52]	@ 0x34
 80061b2:	b289      	uxth	r1, r1
 80061b4:	f10d 020e 	add.w	r2, sp, #14
 80061b8:	f7ff f896 	bl	80052e8 <getIoParamIndex>
			   if (error != ERROR_SUCCESS)
 80061bc:	2800      	cmp	r0, #0
 80061be:	d1c6      	bne.n	800614e <Scope_Main_Save+0x19a>
			   pTScope->trgAddr = *(void**)TableStruct->outportParamTable[tblIndex].data;
 80061c0:	6833      	ldr	r3, [r6, #0]
 80061c2:	f8bd 200e 	ldrh.w	r2, [sp, #14]
 80061c6:	6b5b      	ldr	r3, [r3, #52]	@ 0x34
    	   uint8 trgLevelSize = pTScope->trgDataType & (uint8)0x0F;
 80061c8:	f894 104c 	ldrb.w	r1, [r4, #76]	@ 0x4c
			   pTScope->trgAddr = *(void**)TableStruct->outportParamTable[tblIndex].data;
 80061cc:	eb03 03c2 	add.w	r3, r3, r2, lsl #3
 80061d0:	685b      	ldr	r3, [r3, #4]
 80061d2:	681b      	ldr	r3, [r3, #0]
 80061d4:	64a3      	str	r3, [r4, #72]	@ 0x48
    	   uint8 trgLevelSize = pTScope->trgDataType & (uint8)0x0F;
 80061d6:	f001 000f 	and.w	r0, r1, #15
       ptr += (uint8)4;
 80061da:	1dab      	adds	r3, r5, #6
    	   switch (trgLevelSize)
 80061dc:	1e42      	subs	r2, r0, #1
       ptr += (uint8)4;
 80061de:	b2db      	uxtb	r3, r3
    	   switch (trgLevelSize)
 80061e0:	2a07      	cmp	r2, #7
 80061e2:	d8b4      	bhi.n	800614e <Scope_Main_Save+0x19a>
 80061e4:	a601      	add	r6, pc, #4	@ (adr r6, 80061ec <Scope_Main_Save+0x238>)
 80061e6:	f856 f022 	ldr.w	pc, [r6, r2, lsl #2]
 80061ea:	bf00      	nop
 80061ec:	080063b9 	.word	0x080063b9
 80061f0:	080063ab 	.word	0x080063ab
 80061f4:	0800614f 	.word	0x0800614f
 80061f8:	0800638d 	.word	0x0800638d
 80061fc:	0800614f 	.word	0x0800614f
 8006200:	0800614f 	.word	0x0800614f
 8006204:	0800614f 	.word	0x0800614f
 8006208:	080062cb 	.word	0x080062cb
			   uint16 paramId = (uint16)data[ptr + 2] + ((uint16)data[ptr + 3] << 8);
 800620c:	443b      	add	r3, r7
			   uint8 error = getIoParamIndex(TableStruct->inportParamTable, paramId, &tblIndex);
 800620e:	4e75      	ldr	r6, [pc, #468]	@ (80063e4 <Scope_Main_Save+0x430>)
			   uint16 paramId = (uint16)data[ptr + 2] + ((uint16)data[ptr + 3] << 8);
 8006210:	78da      	ldrb	r2, [r3, #3]
 8006212:	7899      	ldrb	r1, [r3, #2]
			   uint8 error = getIoParamIndex(TableStruct->inportParamTable, paramId, &tblIndex);
 8006214:	6833      	ldr	r3, [r6, #0]
			   uint16 paramId = (uint16)data[ptr + 2] + ((uint16)data[ptr + 3] << 8);
 8006216:	eb01 2102 	add.w	r1, r1, r2, lsl #8
			   uint8 error = getIoParamIndex(TableStruct->inportParamTable, paramId, &tblIndex);
 800621a:	6b18      	ldr	r0, [r3, #48]	@ 0x30
 800621c:	b289      	uxth	r1, r1
 800621e:	f10d 020e 	add.w	r2, sp, #14
 8006222:	f7ff f861 	bl	80052e8 <getIoParamIndex>
			   if (error != ERROR_SUCCESS)
 8006226:	2800      	cmp	r0, #0
 8006228:	d191      	bne.n	800614e <Scope_Main_Save+0x19a>
			   pTScope->trgAddr = TableStruct->inportParamTable[tblIndex].data;
 800622a:	6833      	ldr	r3, [r6, #0]
 800622c:	f8bd 200e 	ldrh.w	r2, [sp, #14]
 8006230:	6b1b      	ldr	r3, [r3, #48]	@ 0x30
 8006232:	eb03 03c2 	add.w	r3, r3, r2, lsl #3
 8006236:	685b      	ldr	r3, [r3, #4]
 8006238:	64a3      	str	r3, [r4, #72]	@ 0x48
    	   uint8 trgLevelSize = pTScope->trgDataType & (uint8)0x0F;
 800623a:	f894 104c 	ldrb.w	r1, [r4, #76]	@ 0x4c
 800623e:	e7ca      	b.n	80061d6 <Scope_Main_Save+0x222>
			   uint8 error = getBlockParamIndex(TableStruct->TParamTable, paramId, &tblIndex);
 8006240:	4e68      	ldr	r6, [pc, #416]	@ (80063e4 <Scope_Main_Save+0x430>)
			   uint16 elementId = (uint16)data[ptr] + ((uint16)data[ptr + 1] << 8);
 8006242:	f817 9003 	ldrb.w	r9, [r7, r3]
 8006246:	18fa      	adds	r2, r7, r3
			   uint8 error = getBlockParamIndex(TableStruct->TParamTable, paramId, &tblIndex);
 8006248:	6833      	ldr	r3, [r6, #0]
			   uint16 paramId = (uint16)data[ptr + 2] + ((uint16)data[ptr + 3] << 8);
 800624a:	7891      	ldrb	r1, [r2, #2]
			   uint8 error = getBlockParamIndex(TableStruct->TParamTable, paramId, &tblIndex);
 800624c:	6818      	ldr	r0, [r3, #0]
			   uint16 paramId = (uint16)data[ptr + 2] + ((uint16)data[ptr + 3] << 8);
 800624e:	78d3      	ldrb	r3, [r2, #3]
			   uint16 elementId = (uint16)data[ptr] + ((uint16)data[ptr + 1] << 8);
 8006250:	f892 a001 	ldrb.w	sl, [r2, #1]
			   uint16 paramId = (uint16)data[ptr + 2] + ((uint16)data[ptr + 3] << 8);
 8006254:	eb01 2103 	add.w	r1, r1, r3, lsl #8
			   uint8 error = getBlockParamIndex(TableStruct->TParamTable, paramId, &tblIndex);
 8006258:	b289      	uxth	r1, r1
 800625a:	f10d 020e 	add.w	r2, sp, #14
 800625e:	f7ff f867 	bl	8005330 <getBlockParamIndex>
			   if (error != ERROR_SUCCESS)
 8006262:	2800      	cmp	r0, #0
 8006264:	f47f af73 	bne.w	800614e <Scope_Main_Save+0x19a>
			   blockAddr = TableStruct->TParamTable[tblIndex].pAdr;
 8006268:	6831      	ldr	r1, [r6, #0]
 800626a:	f8bd 000e 	ldrh.w	r0, [sp, #14]
 800626e:	680b      	ldr	r3, [r1, #0]
 8006270:	eb03 03c0 	add.w	r3, r3, r0, lsl #3
			   error = getBlockFunctionIndex(TableStruct->TFncTable, blockId, &tblIndex);
 8006274:	f10d 020e 	add.w	r2, sp, #14
			   blockAddr = TableStruct->TParamTable[tblIndex].pAdr;
 8006278:	f8d3 b004 	ldr.w	fp, [r3, #4]
			   error = getBlockFunctionIndex(TableStruct->TFncTable, blockId, &tblIndex);
 800627c:	6848      	ldr	r0, [r1, #4]
 800627e:	f8bb 1000 	ldrh.w	r1, [fp]
 8006282:	f7ff f89f 	bl	80053c4 <getBlockFunctionIndex>
			   if (error != ERROR_SUCCESS)
 8006286:	2800      	cmp	r0, #0
 8006288:	f47f af61 	bne.w	800614e <Scope_Main_Save+0x19a>
			   pTScope->trgAddr = TableStruct->TFncTable[tblIndex].pFGetAddress(blockAddr, elementId);
 800628c:	6833      	ldr	r3, [r6, #0]
 800628e:	685a      	ldr	r2, [r3, #4]
 8006290:	f8bd 300e 	ldrh.w	r3, [sp, #14]
 8006294:	eb03 0343 	add.w	r3, r3, r3, lsl #1
 8006298:	eb02 03c3 	add.w	r3, r2, r3, lsl #3
			   uint16 elementId = (uint16)data[ptr] + ((uint16)data[ptr + 1] << 8);
 800629c:	eb09 210a 	add.w	r1, r9, sl, lsl #8
			   pTScope->trgAddr = TableStruct->TFncTable[tblIndex].pFGetAddress(blockAddr, elementId);
 80062a0:	695b      	ldr	r3, [r3, #20]
 80062a2:	b289      	uxth	r1, r1
 80062a4:	4658      	mov	r0, fp
 80062a6:	4798      	blx	r3
 80062a8:	64a0      	str	r0, [r4, #72]	@ 0x48
			   if (pTScope->trgAddr == (void*)0)
 80062aa:	2800      	cmp	r0, #0
 80062ac:	d1c5      	bne.n	800623a <Scope_Main_Save+0x286>
 80062ae:	e74e      	b.n	800614e <Scope_Main_Save+0x19a>
			   pTScope->trgAddr = (void*)((uint32)data[ptr] + ((uint32)data[ptr + 1] << 8) + \
 80062b0:	18fa      	adds	r2, r7, r3
 80062b2:	5cf8      	ldrb	r0, [r7, r3]
					   ((uint32)data[ptr + 2] << 16) + ((uint32)data[ptr + 3] << 24));
 80062b4:	7893      	ldrb	r3, [r2, #2]
			   pTScope->trgAddr = (void*)((uint32)data[ptr] + ((uint32)data[ptr + 1] << 8) + \
 80062b6:	7856      	ldrb	r6, [r2, #1]
					   ((uint32)data[ptr + 2] << 16) + ((uint32)data[ptr + 3] << 24));
 80062b8:	78d2      	ldrb	r2, [r2, #3]
 80062ba:	041b      	lsls	r3, r3, #16
			   pTScope->trgAddr = (void*)((uint32)data[ptr] + ((uint32)data[ptr + 1] << 8) + \
 80062bc:	eb03 2306 	add.w	r3, r3, r6, lsl #8
 80062c0:	4403      	add	r3, r0
					   ((uint32)data[ptr + 2] << 16) + ((uint32)data[ptr + 3] << 24));
 80062c2:	eb03 6302 	add.w	r3, r3, r2, lsl #24
			   pTScope->trgAddr = (void*)((uint32)data[ptr] + ((uint32)data[ptr + 1] << 8) + \
 80062c6:	64a3      	str	r3, [r4, #72]	@ 0x48
			   break;
 80062c8:	e785      	b.n	80061d6 <Scope_Main_Save+0x222>
    		   pTScope->trgLevel = (uint64)data[ptr] + ((uint64)data[ptr + 1] << 8) + \
 80062ca:	18fe      	adds	r6, r7, r3
 80062cc:	f817 9003 	ldrb.w	r9, [r7, r3]
 80062d0:	7872      	ldrb	r2, [r6, #1]
    		   	   ((uint64)data[ptr + 2] << 16) + ((uint64)data[ptr + 3] << 24) + \
 80062d2:	f896 c002 	ldrb.w	ip, [r6, #2]
 80062d6:	f896 e003 	ldrb.w	lr, [r6, #3]
 80062da:	ea4f 4c0c 	mov.w	ip, ip, lsl #16
    		   pTScope->trgLevel = (uint64)data[ptr] + ((uint64)data[ptr + 1] << 8) + \
 80062de:	0212      	lsls	r2, r2, #8
 80062e0:	eb12 020c 	adds.w	r2, r2, ip
    		   	   ((uint64)data[ptr + 2] << 16) + ((uint64)data[ptr + 3] << 24) + \
 80062e4:	ea4f 6e0e 	mov.w	lr, lr, lsl #24
    		   pTScope->trgLevel = (uint64)data[ptr] + ((uint64)data[ptr + 1] << 8) + \
 80062e8:	bf2c      	ite	cs
 80062ea:	f04f 0c01 	movcs.w	ip, #1
 80062ee:	f04f 0c00 	movcc.w	ip, #0
 80062f2:	eb12 0209 	adds.w	r2, r2, r9
 80062f6:	f14c 0c00 	adc.w	ip, ip, #0
    		       ((uint64)data[ptr + 4] << 32) + ((uint64)data[ptr + 5] << 40) + \
 80062fa:	f896 9004 	ldrb.w	r9, [r6, #4]
    		   	   ((uint64)data[ptr + 2] << 16) + ((uint64)data[ptr + 3] << 24) + \
 80062fe:	eb12 020e 	adds.w	r2, r2, lr
 8006302:	f14c 0c00 	adc.w	ip, ip, #0
    		   pTScope->trgLevel = (uint64)data[ptr] + ((uint64)data[ptr + 1] << 8) + \
 8006306:	f04f 0e00 	mov.w	lr, #0
    		   	   ((uint64)data[ptr + 2] << 16) + ((uint64)data[ptr + 3] << 24) + \
 800630a:	44cc      	add	ip, r9
 800630c:	eb12 020e 	adds.w	r2, r2, lr
    		       ((uint64)data[ptr + 4] << 32) + ((uint64)data[ptr + 5] << 40) + \
 8006310:	f896 9005 	ldrb.w	r9, [r6, #5]
 8006314:	eb12 020e 	adds.w	r2, r2, lr
 8006318:	eb4c 2c09 	adc.w	ip, ip, r9, lsl #8
    		       ((uint64)data[ptr + 6] << 48) + ((uint64)data[ptr + 7] << 56);
 800631c:	f896 9006 	ldrb.w	r9, [r6, #6]
 8006320:	79f6      	ldrb	r6, [r6, #7]
    		       ((uint64)data[ptr + 4] << 32) + ((uint64)data[ptr + 5] << 40) + \
 8006322:	eb12 020e 	adds.w	r2, r2, lr
 8006326:	eb4c 4c09 	adc.w	ip, ip, r9, lsl #16
    		       ((uint64)data[ptr + 6] << 48) + ((uint64)data[ptr + 7] << 56);
 800632a:	eb12 020e 	adds.w	r2, r2, lr
 800632e:	eb4c 6606 	adc.w	r6, ip, r6, lsl #24
    		   pTScope->trgLevel = (uint8)data[ptr];
 8006332:	e9c4 260e 	strd	r2, r6, [r4, #56]	@ 0x38
    	   if (!isNewVersion)
 8006336:	060a      	lsls	r2, r1, #24
 8006338:	d44e      	bmi.n	80063d8 <Scope_Main_Save+0x424>
    		   pTScope->trgDataType |= (uint8)0x20;
 800633a:	f041 0320 	orr.w	r3, r1, #32
    		   ptr += (uint8)4;
 800633e:	350a      	adds	r5, #10
    		   pTScope->trgDataType |= (uint8)0x20;
 8006340:	f884 304c 	strb.w	r3, [r4, #76]	@ 0x4c
    		   ptr += (uint8)4;
 8006344:	b2ed      	uxtb	r5, r5
	   pTScope->trgDelay = ((int32)data[ptr] + ((int32)data[ptr + 1] << 8) + ((int32)data[ptr + 2] << 16) + \
 8006346:	197b      	adds	r3, r7, r5
 8006348:	5d78      	ldrb	r0, [r7, r5]
 800634a:	785a      	ldrb	r2, [r3, #1]
 800634c:	eb00 2002 	add.w	r0, r0, r2, lsl #8
 8006350:	789a      	ldrb	r2, [r3, #2]
			   ((int32)data[ptr + 3] << 24));
 8006352:	78db      	ldrb	r3, [r3, #3]
	   pTScope->trgDelay = ((int32)data[ptr] + ((int32)data[ptr + 1] << 8) + ((int32)data[ptr + 2] << 16) + \
 8006354:	eb00 4002 	add.w	r0, r0, r2, lsl #16
 8006358:	eb00 6003 	add.w	r0, r0, r3, lsl #24
 800635c:	6620      	str	r0, [r4, #96]	@ 0x60
	   pTScope->trgCount = (uint32)getAbsValI32(pTScope->trgDelay);
 800635e:	f7fe ffb1 	bl	80052c4 <getAbsValI32>
	   ptr += (uint8)4;
 8006362:	1d2a      	adds	r2, r5, #4
	   pTScope->trgEdge = (tTrgEdgeType)data[ptr];
 8006364:	b2d2      	uxtb	r2, r2
       ptr++;
 8006366:	1d6b      	adds	r3, r5, #5
	   pTScope->trgCount = (uint32)getAbsValI32(pTScope->trgDelay);
 8006368:	66e0      	str	r0, [r4, #108]	@ 0x6c
       ptr++;
 800636a:	b2db      	uxtb	r3, r3
	   pTScope->trgEdge = (tTrgEdgeType)data[ptr];
 800636c:	5cba      	ldrb	r2, [r7, r2]
 800636e:	f884 2074 	strb.w	r2, [r4, #116]	@ 0x74
       if (ucFRMlen > ptr)
 8006372:	4543      	cmp	r3, r8
 8006374:	d223      	bcs.n	80063be <Scope_Main_Save+0x40a>
           if (data[ptr] == TRG_MODE_NORMAL)
 8006376:	5cfb      	ldrb	r3, [r7, r3]
 8006378:	2b01      	cmp	r3, #1
 800637a:	d020      	beq.n	80063be <Scope_Main_Save+0x40a>
	   pTScope->noChannels = data[1];
 800637c:	787b      	ldrb	r3, [r7, #1]
 800637e:	f884 3055 	strb.w	r3, [r4, #85]	@ 0x55
	   pTScope->state = (tScopeState)data[0];
 8006382:	783b      	ldrb	r3, [r7, #0]
 8006384:	f884 304d 	strb.w	r3, [r4, #77]	@ 0x4d
       return ((uint8)0);
 8006388:	2000      	movs	r0, #0
 800638a:	e6e1      	b.n	8006150 <Scope_Main_Save+0x19c>
    		   pTScope->trgLevel = (uint32)data[ptr] + ((uint32)data[ptr + 1] << 8) + \
 800638c:	18fe      	adds	r6, r7, r3
 800638e:	f817 c003 	ldrb.w	ip, [r7, r3]
    		   	   ((uint32)data[ptr + 2] << 16) + ((uint32)data[ptr + 3] << 24);
 8006392:	78b2      	ldrb	r2, [r6, #2]
    		   pTScope->trgLevel = (uint32)data[ptr] + ((uint32)data[ptr + 1] << 8) + \
 8006394:	f896 e001 	ldrb.w	lr, [r6, #1]
    		   	   ((uint32)data[ptr + 2] << 16) + ((uint32)data[ptr + 3] << 24);
 8006398:	78f6      	ldrb	r6, [r6, #3]
 800639a:	0412      	lsls	r2, r2, #16
    		   pTScope->trgLevel = (uint32)data[ptr] + ((uint32)data[ptr + 1] << 8) + \
 800639c:	eb02 220e 	add.w	r2, r2, lr, lsl #8
 80063a0:	4462      	add	r2, ip
    		   	   ((uint32)data[ptr + 2] << 16) + ((uint32)data[ptr + 3] << 24);
 80063a2:	eb02 6206 	add.w	r2, r2, r6, lsl #24
 80063a6:	2600      	movs	r6, #0
    		   break;
 80063a8:	e7c3      	b.n	8006332 <Scope_Main_Save+0x37e>
    		   pTScope->trgLevel = (uint16)data[ptr] + ((uint16)data[ptr + 1] << 8);
 80063aa:	18fa      	adds	r2, r7, r3
 80063ac:	7856      	ldrb	r6, [r2, #1]
 80063ae:	5cfa      	ldrb	r2, [r7, r3]
 80063b0:	eb02 2206 	add.w	r2, r2, r6, lsl #8
 80063b4:	2600      	movs	r6, #0
    		   break;
 80063b6:	e7bc      	b.n	8006332 <Scope_Main_Save+0x37e>
    		   pTScope->trgLevel = (uint8)data[ptr];
 80063b8:	5cfa      	ldrb	r2, [r7, r3]
 80063ba:	2600      	movs	r6, #0
    		   break;
 80063bc:	e7b9      	b.n	8006332 <Scope_Main_Save+0x37e>
               pTScope->trgLastValue = getTriggerValue(pTScope);
 80063be:	f894 104c 	ldrb.w	r1, [r4, #76]	@ 0x4c
 80063c2:	6ca0      	ldr	r0, [r4, #72]	@ 0x48
 80063c4:	f7ff fc0c 	bl	8005be0 <getTriggerValue.isra.0>
 80063c8:	e9c4 0110 	strd	r0, r1, [r4, #64]	@ 0x40
 80063cc:	e7d6      	b.n	800637c <Scope_Main_Save+0x3c8>
       while (i < data[1])
 80063ce:	2104      	movs	r1, #4
 80063d0:	2306      	movs	r3, #6
 80063d2:	2205      	movs	r2, #5
   uint8 ptr = offset;
 80063d4:	460d      	mov	r5, r1
 80063d6:	e6da      	b.n	800618e <Scope_Main_Save+0x1da>
    		   ptr += trgLevelSize;
 80063d8:	4403      	add	r3, r0
 80063da:	b2dd      	uxtb	r5, r3
 80063dc:	e7b3      	b.n	8006346 <Scope_Main_Save+0x392>
       return ((uint8)1);
 80063de:	2001      	movs	r0, #1
}
 80063e0:	4770      	bx	lr
 80063e2:	bf00      	nop
 80063e4:	20000024 	.word	0x20000024

080063e8 <Scope_Main_GetAddress>:
}
 80063e8:	2000      	movs	r0, #0
 80063ea:	4770      	bx	lr

080063ec <sendSerial>:
}

static void sendSerial(tSerial* serialP, uint8 data)
{
    // do nothing
}
 80063ec:	4770      	bx	lr
 80063ee:	bf00      	nop

080063f0 <receiveSerial>:

static uint8 receiveSerial(tSerial* serialP)
{
    return ((uint8)0);
}
 80063f0:	2000      	movs	r0, #0
 80063f2:	4770      	bx	lr

080063f4 <flush>:
}

static void flush(tSerial* serialP)
{
    /* do nothing because 'send' immediately sends byte */
}
 80063f4:	4770      	bx	lr
 80063f6:	bf00      	nop

080063f8 <isSendReady>:
static uint8 isSendReady(tSerial* serialP)
 80063f8:	2000      	movs	r0, #0
 80063fa:	4770      	bx	lr

080063fc <getTxFifoFree>:
static uint8 getTxFifoFree(tSerial* serialP)
 80063fc:	2000      	movs	r0, #0
 80063fe:	4770      	bx	lr

08006400 <isReceiveDataAvailable>:
static uint8 isReceiveDataAvailable(tSerial* serialP)
 8006400:	2000      	movs	r0, #0
 8006402:	4770      	bx	lr

08006404 <initSerialGeneric>:
    serialP->send = (void (*)(tInterface*, uint8))sendSerial;
 8006404:	4a07      	ldr	r2, [pc, #28]	@ (8006424 <initSerialGeneric+0x20>)
    serialP->receive = (uint8 (*)(tInterface*))receiveSerial;
 8006406:	4b08      	ldr	r3, [pc, #32]	@ (8006428 <initSerialGeneric+0x24>)
    serialP->isSendReady = (uint8 (*)(tInterface*))isSendReady;
 8006408:	4908      	ldr	r1, [pc, #32]	@ (800642c <initSerialGeneric+0x28>)
{
 800640a:	b410      	push	{r4}
    serialP->receive = (uint8 (*)(tInterface*))receiveSerial;
 800640c:	e9c0 2300 	strd	r2, r3, [r0]
    serialP->isReceiveDataAvailable = (uint8 (*)(tInterface*))isReceiveDataAvailable;
 8006410:	4c07      	ldr	r4, [pc, #28]	@ (8006430 <initSerialGeneric+0x2c>)
    serialP->getTxFifoFree = (uint8 (*)(tInterface*))getTxFifoFree;
 8006412:	4a08      	ldr	r2, [pc, #32]	@ (8006434 <initSerialGeneric+0x30>)
    serialP->flush = (void (*)(tInterface*))flush;
 8006414:	4b08      	ldr	r3, [pc, #32]	@ (8006438 <initSerialGeneric+0x34>)
    serialP->isSendReady = (uint8 (*)(tInterface*))isSendReady;
 8006416:	e9c0 4102 	strd	r4, r1, [r0, #8]
    serialP->flush = (void (*)(tInterface*))flush;
 800641a:	e9c0 2304 	strd	r2, r3, [r0, #16]
}
 800641e:	f85d 4b04 	ldr.w	r4, [sp], #4
 8006422:	4770      	bx	lr
 8006424:	080063ed 	.word	0x080063ed
 8006428:	080063f1 	.word	0x080063f1
 800642c:	080063f9 	.word	0x080063f9
 8006430:	08006401 	.word	0x08006401
 8006434:	080063fd 	.word	0x080063fd
 8006438:	080063f5 	.word	0x080063f5

0800643c <linkSerial>:
    lnkProtocol->hwInterface = (tInterface*)serialP;
 800643c:	6141      	str	r1, [r0, #20]
}
 800643e:	4770      	bx	lr

08006440 <sendSvNotAvailable>:

/* send service not available error */
void sendSvNotAvailable(tProtocol* protocol)
{
	protocol->ucFRAMESize = 2;
	protocol->ucFRAMEData[1] = ERRORServiceNotAvail;
 8006440:	68c2      	ldr	r2, [r0, #12]
	protocol->ucFRAMESize = 2;
 8006442:	f04f 0c02 	mov.w	ip, #2
	protocol->ucFRAMEData[1] = ERRORServiceNotAvail;
 8006446:	2121      	movs	r1, #33	@ 0x21
	protocol->ucFRAMESize = 2;
 8006448:	f8a0 c008 	strh.w	ip, [r0, #8]
	protocol->ucFRAMEData[1] = ERRORServiceNotAvail;
 800644c:	7051      	strb	r1, [r2, #1]
	protocol->pSnd_Enable(protocol);
 800644e:	6843      	ldr	r3, [r0, #4]
 8006450:	4718      	bx	r3
 8006452:	bf00      	nop

08006454 <setTargetState>:
 */
static void setTargetState(tProtocol* protocol)
{
	uint8 error = ERRORSuccess;

	switch (protocol->ucFRAMEData[1])
 8006454:	68c3      	ldr	r3, [r0, #12]
 8006456:	785a      	ldrb	r2, [r3, #1]
 8006458:	2a05      	cmp	r2, #5
 800645a:	d827      	bhi.n	80064ac <setTargetState+0x58>
 800645c:	e8df f002 	tbb	[pc, r2]
 8006460:	1c17120d 	.word	0x1c17120d
 8006464:	0321      	.short	0x0321
		break;
	case 4:
		TableStruct->DSPState = RUN_STATE_POWER_OFF;
		break;
	case 5:
		TableStruct->DSPState = RUN_STATE_POWER_ON;
 8006466:	4a12      	ldr	r2, [pc, #72]	@ (80064b0 <setTargetState+0x5c>)
 8006468:	6812      	ldr	r2, [r2, #0]
 800646a:	2105      	movs	r1, #5
 800646c:	7311      	strb	r1, [r2, #12]
	uint8 error = ERRORSuccess;
 800646e:	2200      	movs	r2, #0
	default:
		error = SvErrorInvalidDspState;
		break;
	}

	protocol->ucFRAMEData[1] = error;
 8006470:	705a      	strb	r2, [r3, #1]
	protocol->ucFRAMESize = (uint8)2;
 8006472:	2202      	movs	r2, #2
	protocol->pSnd_Enable(protocol);
 8006474:	6843      	ldr	r3, [r0, #4]
	protocol->ucFRAMESize = (uint8)2;
 8006476:	8102      	strh	r2, [r0, #8]
	protocol->pSnd_Enable(protocol);
 8006478:	4718      	bx	r3
		TableStruct->DSPState = BOOTLOADER_STATE;
 800647a:	4a0d      	ldr	r2, [pc, #52]	@ (80064b0 <setTargetState+0x5c>)
 800647c:	6812      	ldr	r2, [r2, #0]
 800647e:	2100      	movs	r1, #0
 8006480:	7311      	strb	r1, [r2, #12]
		break;
 8006482:	e7f4      	b.n	800646e <setTargetState+0x1a>
		TableStruct->DSPState = PRG_LOADED_STATE;
 8006484:	4a0a      	ldr	r2, [pc, #40]	@ (80064b0 <setTargetState+0x5c>)
 8006486:	6812      	ldr	r2, [r2, #0]
 8006488:	2101      	movs	r1, #1
 800648a:	7311      	strb	r1, [r2, #12]
		break;
 800648c:	e7ef      	b.n	800646e <setTargetState+0x1a>
		TableStruct->DSPState = IDLE_STATE;
 800648e:	4a08      	ldr	r2, [pc, #32]	@ (80064b0 <setTargetState+0x5c>)
 8006490:	6812      	ldr	r2, [r2, #0]
 8006492:	2102      	movs	r1, #2
 8006494:	7311      	strb	r1, [r2, #12]
		break;
 8006496:	e7ea      	b.n	800646e <setTargetState+0x1a>
		TableStruct->DSPState = INIT_STATE;
 8006498:	4a05      	ldr	r2, [pc, #20]	@ (80064b0 <setTargetState+0x5c>)
 800649a:	6812      	ldr	r2, [r2, #0]
 800649c:	2103      	movs	r1, #3
 800649e:	7311      	strb	r1, [r2, #12]
		break;
 80064a0:	e7e5      	b.n	800646e <setTargetState+0x1a>
		TableStruct->DSPState = RUN_STATE_POWER_OFF;
 80064a2:	4a03      	ldr	r2, [pc, #12]	@ (80064b0 <setTargetState+0x5c>)
 80064a4:	6812      	ldr	r2, [r2, #0]
 80064a6:	2104      	movs	r1, #4
 80064a8:	7311      	strb	r1, [r2, #12]
		break;
 80064aa:	e7e0      	b.n	800646e <setTargetState+0x1a>
	switch (protocol->ucFRAMEData[1])
 80064ac:	2222      	movs	r2, #34	@ 0x22
 80064ae:	e7df      	b.n	8006470 <setTargetState+0x1c>
 80064b0:	20000024 	.word	0x20000024

080064b4 <getTargetState>:
/*
 * Returns target state.
 */
static void getTargetState(tProtocol* protocol)
{
	protocol->ucFRAMEData[1] = ERRORSuccess;
 80064b4:	68c1      	ldr	r1, [r0, #12]
	protocol->ucFRAMEData[2] = (uint8)(TableStruct->DSPState & 0xFF);
 80064b6:	4a06      	ldr	r2, [pc, #24]	@ (80064d0 <getTargetState+0x1c>)
	protocol->ucFRAMEData[1] = ERRORSuccess;
 80064b8:	f04f 0c00 	mov.w	ip, #0
 80064bc:	f881 c001 	strb.w	ip, [r1, #1]
	protocol->ucFRAMEData[2] = (uint8)(TableStruct->DSPState & 0xFF);
 80064c0:	6811      	ldr	r1, [r2, #0]
 80064c2:	68c2      	ldr	r2, [r0, #12]
 80064c4:	7b09      	ldrb	r1, [r1, #12]
 80064c6:	7091      	strb	r1, [r2, #2]
	protocol->ucFRAMESize = (uint8)3;
 80064c8:	2103      	movs	r1, #3
	protocol->pSnd_Enable(protocol);
 80064ca:	6842      	ldr	r2, [r0, #4]
	protocol->ucFRAMESize = (uint8)3;
 80064cc:	8101      	strh	r1, [r0, #8]
	protocol->pSnd_Enable(protocol);
 80064ce:	4710      	bx	r2
 80064d0:	20000024 	.word	0x20000024

080064d4 <loadMaskParameter>:
{
 80064d4:	b530      	push	{r4, r5, lr}
	if (protocol->ucFRAMESize != 3)
 80064d6:	8902      	ldrh	r2, [r0, #8]
	protocol->ucFRAMEData[1] = ucErrorNr;
 80064d8:	68c3      	ldr	r3, [r0, #12]
	if (protocol->ucFRAMESize != 3)
 80064da:	2a03      	cmp	r2, #3
{
 80064dc:	b083      	sub	sp, #12
 80064de:	4604      	mov	r4, r0
	if (protocol->ucFRAMESize != 3)
 80064e0:	d008      	beq.n	80064f4 <loadMaskParameter+0x20>
	protocol->ucFRAMESize = 2;
 80064e2:	2102      	movs	r1, #2
	protocol->ucFRAMEData[1] = ucErrorNr;
 80064e4:	2214      	movs	r2, #20
	protocol->ucFRAMESize = 2;
 80064e6:	8101      	strh	r1, [r0, #8]
	protocol->ucFRAMEData[1] = ucErrorNr;
 80064e8:	705a      	strb	r2, [r3, #1]
	protocol->pSnd_Enable(protocol);
 80064ea:	6843      	ldr	r3, [r0, #4]
}
 80064ec:	b003      	add	sp, #12
 80064ee:	e8bd 4030 	ldmia.w	sp!, {r4, r5, lr}
	protocol->pSnd_Enable(protocol);
 80064f2:	4718      	bx	r3
	error = getMaskParamIndex(TableStruct->maskParameterTable, paramId, &tblIndex);
 80064f4:	4d21      	ldr	r5, [pc, #132]	@ (800657c <loadMaskParameter+0xa8>)
 80064f6:	f8b3 1001 	ldrh.w	r1, [r3, #1]
 80064fa:	682b      	ldr	r3, [r5, #0]
 80064fc:	f10d 0206 	add.w	r2, sp, #6
 8006500:	6b98      	ldr	r0, [r3, #56]	@ 0x38
 8006502:	f7fe ff39 	bl	8005378 <getMaskParamIndex>
	if (error != ERROR_SUCCESS)
 8006506:	bb30      	cbnz	r0, 8006556 <loadMaskParameter+0x82>
	mpEntry = TableStruct->maskParameterTable[tblIndex];
 8006508:	682b      	ldr	r3, [r5, #0]
 800650a:	f8bd 1006 	ldrh.w	r1, [sp, #6]
 800650e:	6b9a      	ldr	r2, [r3, #56]	@ 0x38
	if (mpEntry.loadMaskParameter(mpEntry.maskParameter, &(protocol->ucFRAMEData[2]),
 8006510:	8963      	ldrh	r3, [r4, #10]
	mpEntry = TableStruct->maskParameterTable[tblIndex];
 8006512:	eb01 0181 	add.w	r1, r1, r1, lsl #2
 8006516:	eb02 0281 	add.w	r2, r2, r1, lsl #2
	if (mpEntry.loadMaskParameter(mpEntry.maskParameter, &(protocol->ucFRAMEData[2]),
 800651a:	68e1      	ldr	r1, [r4, #12]
 800651c:	6915      	ldr	r5, [r2, #16]
 800651e:	6890      	ldr	r0, [r2, #8]
 8006520:	3b02      	subs	r3, #2
 8006522:	b29b      	uxth	r3, r3
 8006524:	3102      	adds	r1, #2
 8006526:	f104 0208 	add.w	r2, r4, #8
 800652a:	47a8      	blx	r5
 800652c:	b148      	cbz	r0, 8006542 <loadMaskParameter+0x6e>
	protocol->ucFRAMEData[1] = ucErrorNr;
 800652e:	68e3      	ldr	r3, [r4, #12]
	protocol->ucFRAMESize = 2;
 8006530:	2102      	movs	r1, #2
	protocol->ucFRAMEData[1] = ucErrorNr;
 8006532:	2249      	movs	r2, #73	@ 0x49
	protocol->ucFRAMESize = 2;
 8006534:	8121      	strh	r1, [r4, #8]
	protocol->ucFRAMEData[1] = ucErrorNr;
 8006536:	705a      	strb	r2, [r3, #1]
	protocol->pSnd_Enable(protocol);
 8006538:	6863      	ldr	r3, [r4, #4]
 800653a:	4620      	mov	r0, r4
 800653c:	4798      	blx	r3
}
 800653e:	b003      	add	sp, #12
 8006540:	bd30      	pop	{r4, r5, pc}
		protocol->ucFRAMESize += 2; /* add overhead size */
 8006542:	8923      	ldrh	r3, [r4, #8]
		protocol->ucFRAMEData[1] = ERRORSuccess;
 8006544:	68e2      	ldr	r2, [r4, #12]
		protocol->ucFRAMESize += 2; /* add overhead size */
 8006546:	3302      	adds	r3, #2
 8006548:	8123      	strh	r3, [r4, #8]
		protocol->ucFRAMEData[1] = ERRORSuccess;
 800654a:	7050      	strb	r0, [r2, #1]
		protocol->pSnd_Enable(protocol);
 800654c:	6863      	ldr	r3, [r4, #4]
 800654e:	4620      	mov	r0, r4
 8006550:	4798      	blx	r3
}
 8006552:	b003      	add	sp, #12
 8006554:	bd30      	pop	{r4, r5, pc}
		switch (error)
 8006556:	2801      	cmp	r0, #1
	protocol->ucFRAMEData[1] = ucErrorNr;
 8006558:	68e3      	ldr	r3, [r4, #12]
		switch (error)
 800655a:	d00b      	beq.n	8006574 <loadMaskParameter+0xa0>
 800655c:	2802      	cmp	r0, #2
 800655e:	d002      	beq.n	8006566 <loadMaskParameter+0x92>
	protocol->ucFRAMESize = 2;
 8006560:	2102      	movs	r1, #2
	protocol->ucFRAMEData[1] = ucErrorNr;
 8006562:	22ff      	movs	r2, #255	@ 0xff
 8006564:	e7e6      	b.n	8006534 <loadMaskParameter+0x60>
 8006566:	2240      	movs	r2, #64	@ 0x40
	protocol->ucFRAMESize = 2;
 8006568:	8120      	strh	r0, [r4, #8]
	protocol->ucFRAMEData[1] = ucErrorNr;
 800656a:	705a      	strb	r2, [r3, #1]
	protocol->pSnd_Enable(protocol);
 800656c:	6863      	ldr	r3, [r4, #4]
 800656e:	4620      	mov	r0, r4
 8006570:	4798      	blx	r3
}
 8006572:	e7ee      	b.n	8006552 <loadMaskParameter+0x7e>
	protocol->ucFRAMESize = 2;
 8006574:	2102      	movs	r1, #2
	protocol->ucFRAMEData[1] = ucErrorNr;
 8006576:	2247      	movs	r2, #71	@ 0x47
 8006578:	e7dc      	b.n	8006534 <loadMaskParameter+0x60>
 800657a:	bf00      	nop
 800657c:	20000024 	.word	0x20000024

08006580 <saveMaskParameter>:
{
 8006580:	b530      	push	{r4, r5, lr}
	if (protocol->ucFRAMESize < 3)
 8006582:	8903      	ldrh	r3, [r0, #8]
	protocol->ucFRAMEData[1] = ucErrorNr;
 8006584:	68c2      	ldr	r2, [r0, #12]
	if (protocol->ucFRAMESize < 3)
 8006586:	2b02      	cmp	r3, #2
{
 8006588:	b083      	sub	sp, #12
 800658a:	4604      	mov	r4, r0
	if (protocol->ucFRAMESize < 3)
 800658c:	d808      	bhi.n	80065a0 <saveMaskParameter+0x20>
	protocol->ucFRAMESize = 2;
 800658e:	2102      	movs	r1, #2
	protocol->ucFRAMEData[1] = ucErrorNr;
 8006590:	2314      	movs	r3, #20
	protocol->ucFRAMESize = 2;
 8006592:	8101      	strh	r1, [r0, #8]
	protocol->ucFRAMEData[1] = ucErrorNr;
 8006594:	7053      	strb	r3, [r2, #1]
	protocol->pSnd_Enable(protocol);
 8006596:	6843      	ldr	r3, [r0, #4]
}
 8006598:	b003      	add	sp, #12
 800659a:	e8bd 4030 	ldmia.w	sp!, {r4, r5, lr}
	protocol->pSnd_Enable(protocol);
 800659e:	4718      	bx	r3
	error = getMaskParamIndex(TableStruct->maskParameterTable, paramId, &tblIndex);
 80065a0:	4d1f      	ldr	r5, [pc, #124]	@ (8006620 <saveMaskParameter+0xa0>)
 80065a2:	f8b2 1001 	ldrh.w	r1, [r2, #1]
 80065a6:	682b      	ldr	r3, [r5, #0]
 80065a8:	f10d 0206 	add.w	r2, sp, #6
 80065ac:	6b98      	ldr	r0, [r3, #56]	@ 0x38
 80065ae:	f7fe fee3 	bl	8005378 <getMaskParamIndex>
	if (error != ERROR_SUCCESS)
 80065b2:	bb18      	cbnz	r0, 80065fc <saveMaskParameter+0x7c>
	mpEntry = TableStruct->maskParameterTable[tblIndex];
 80065b4:	682b      	ldr	r3, [r5, #0]
 80065b6:	f8bd 2006 	ldrh.w	r2, [sp, #6]
 80065ba:	6b98      	ldr	r0, [r3, #56]	@ 0x38
	if (mpEntry.saveMaskParameter(mpEntry.block, mpEntry.maskParameter, &(protocol->ucFRAMEData[3]), protocol->ucFRAMESize-3))
 80065bc:	8923      	ldrh	r3, [r4, #8]
	mpEntry = TableStruct->maskParameterTable[tblIndex];
 80065be:	eb02 0282 	add.w	r2, r2, r2, lsl #2
 80065c2:	eb00 0082 	add.w	r0, r0, r2, lsl #2
	if (mpEntry.saveMaskParameter(mpEntry.block, mpEntry.maskParameter, &(protocol->ucFRAMEData[3]), protocol->ucFRAMESize-3))
 80065c6:	68e2      	ldr	r2, [r4, #12]
 80065c8:	68c5      	ldr	r5, [r0, #12]
 80065ca:	3b03      	subs	r3, #3
 80065cc:	b29b      	uxth	r3, r3
 80065ce:	e9d0 0101 	ldrd	r0, r1, [r0, #4]
 80065d2:	3203      	adds	r2, #3
 80065d4:	47a8      	blx	r5
	protocol->ucFRAMEData[1] = ucErrorNr;
 80065d6:	68e3      	ldr	r3, [r4, #12]
	if (mpEntry.saveMaskParameter(mpEntry.block, mpEntry.maskParameter, &(protocol->ucFRAMEData[3]), protocol->ucFRAMESize-3))
 80065d8:	b140      	cbz	r0, 80065ec <saveMaskParameter+0x6c>
	protocol->ucFRAMESize = 2;
 80065da:	2102      	movs	r1, #2
	protocol->ucFRAMEData[1] = ucErrorNr;
 80065dc:	2248      	movs	r2, #72	@ 0x48
	protocol->ucFRAMESize = 2;
 80065de:	8121      	strh	r1, [r4, #8]
	protocol->ucFRAMEData[1] = ucErrorNr;
 80065e0:	705a      	strb	r2, [r3, #1]
	protocol->pSnd_Enable(protocol);
 80065e2:	6863      	ldr	r3, [r4, #4]
 80065e4:	4620      	mov	r0, r4
 80065e6:	4798      	blx	r3
}
 80065e8:	b003      	add	sp, #12
 80065ea:	bd30      	pop	{r4, r5, pc}
		protocol->ucFRAMESize = 2;
 80065ec:	2202      	movs	r2, #2
 80065ee:	8122      	strh	r2, [r4, #8]
		protocol->ucFRAMEData[1] = ERRORSuccess;
 80065f0:	7058      	strb	r0, [r3, #1]
		protocol->pSnd_Enable(protocol);
 80065f2:	6863      	ldr	r3, [r4, #4]
 80065f4:	4620      	mov	r0, r4
 80065f6:	4798      	blx	r3
}
 80065f8:	b003      	add	sp, #12
 80065fa:	bd30      	pop	{r4, r5, pc}
		switch (error)
 80065fc:	2801      	cmp	r0, #1
	protocol->ucFRAMEData[1] = ucErrorNr;
 80065fe:	68e3      	ldr	r3, [r4, #12]
		switch (error)
 8006600:	d004      	beq.n	800660c <saveMaskParameter+0x8c>
 8006602:	2802      	cmp	r0, #2
 8006604:	d005      	beq.n	8006612 <saveMaskParameter+0x92>
	protocol->ucFRAMESize = 2;
 8006606:	2102      	movs	r1, #2
	protocol->ucFRAMEData[1] = ucErrorNr;
 8006608:	22ff      	movs	r2, #255	@ 0xff
 800660a:	e7e8      	b.n	80065de <saveMaskParameter+0x5e>
	protocol->ucFRAMESize = 2;
 800660c:	2102      	movs	r1, #2
	protocol->ucFRAMEData[1] = ucErrorNr;
 800660e:	2247      	movs	r2, #71	@ 0x47
 8006610:	e7e5      	b.n	80065de <saveMaskParameter+0x5e>
 8006612:	2240      	movs	r2, #64	@ 0x40
	protocol->ucFRAMESize = 2;
 8006614:	8120      	strh	r0, [r4, #8]
	protocol->ucFRAMEData[1] = ucErrorNr;
 8006616:	705a      	strb	r2, [r3, #1]
	protocol->pSnd_Enable(protocol);
 8006618:	6863      	ldr	r3, [r4, #4]
 800661a:	4620      	mov	r0, r4
 800661c:	4798      	blx	r3
}
 800661e:	e7eb      	b.n	80065f8 <saveMaskParameter+0x78>
 8006620:	20000024 	.word	0x20000024

08006624 <loadIoBlockData>:
{
 8006624:	b530      	push	{r4, r5, lr}
	if (protocol->ucFRAMESize != 4)
 8006626:	8902      	ldrh	r2, [r0, #8]
	protocol->ucFRAMEData[1] = ucErrorNr;
 8006628:	68c3      	ldr	r3, [r0, #12]
	if (protocol->ucFRAMESize != 4)
 800662a:	2a04      	cmp	r2, #4
{
 800662c:	b083      	sub	sp, #12
 800662e:	4604      	mov	r4, r0
	if (protocol->ucFRAMESize != 4)
 8006630:	d008      	beq.n	8006644 <loadIoBlockData+0x20>
	protocol->ucFRAMESize = 2;
 8006632:	2102      	movs	r1, #2
	protocol->ucFRAMEData[1] = ucErrorNr;
 8006634:	2214      	movs	r2, #20
	protocol->ucFRAMESize = 2;
 8006636:	8121      	strh	r1, [r4, #8]
	protocol->ucFRAMEData[1] = ucErrorNr;
 8006638:	705a      	strb	r2, [r3, #1]
	protocol->pSnd_Enable(protocol);
 800663a:	6863      	ldr	r3, [r4, #4]
}
 800663c:	b003      	add	sp, #12
 800663e:	e8bd 4030 	ldmia.w	sp!, {r4, r5, lr}
	protocol->pSnd_Enable(protocol);
 8006642:	4718      	bx	r3
		paramTbl = TableStruct->outportParamTable;
 8006644:	4a45      	ldr	r2, [pc, #276]	@ (800675c <loadIoBlockData+0x138>)
	if (isOutport)
 8006646:	78dd      	ldrb	r5, [r3, #3]
	id = (uint16)((protocol->ucFRAMEData[2] << 8) + protocol->ucFRAMEData[1]);
 8006648:	f8b3 1001 	ldrh.w	r1, [r3, #1]
		paramTbl = TableStruct->outportParamTable;
 800664c:	6812      	ldr	r2, [r2, #0]
	if (isOutport)
 800664e:	b17d      	cbz	r5, 8006670 <loadIoBlockData+0x4c>
		paramTbl = TableStruct->outportParamTable;
 8006650:	6b55      	ldr	r5, [r2, #52]	@ 0x34
		if (paramTbl == 0)
 8006652:	2d00      	cmp	r5, #0
 8006654:	d07e      	beq.n	8006754 <loadIoBlockData+0x130>
	error = getIoParamIndex(paramTbl, id, &tblIndex);
 8006656:	f10d 0206 	add.w	r2, sp, #6
 800665a:	4628      	mov	r0, r5
 800665c:	f7fe fe44 	bl	80052e8 <getIoParamIndex>
	if (error != ERROR_SUCCESS)
 8006660:	bb40      	cbnz	r0, 80066b4 <loadIoBlockData+0x90>
		addr = *(void**)paramTbl[tblIndex].data;
 8006662:	f8bd 3006 	ldrh.w	r3, [sp, #6]
 8006666:	eb05 05c3 	add.w	r5, r5, r3, lsl #3
 800666a:	686b      	ldr	r3, [r5, #4]
 800666c:	6818      	ldr	r0, [r3, #0]
 800666e:	e00d      	b.n	800668c <loadIoBlockData+0x68>
		paramTbl = TableStruct->inportParamTable;
 8006670:	6b15      	ldr	r5, [r2, #48]	@ 0x30
		if (paramTbl == 0)
 8006672:	2d00      	cmp	r5, #0
 8006674:	d06b      	beq.n	800674e <loadIoBlockData+0x12a>
	error = getIoParamIndex(paramTbl, id, &tblIndex);
 8006676:	f10d 0206 	add.w	r2, sp, #6
 800667a:	4628      	mov	r0, r5
 800667c:	f7fe fe34 	bl	80052e8 <getIoParamIndex>
	if (error != ERROR_SUCCESS)
 8006680:	b9c0      	cbnz	r0, 80066b4 <loadIoBlockData+0x90>
		addr = paramTbl[tblIndex].data;
 8006682:	f8bd 3006 	ldrh.w	r3, [sp, #6]
 8006686:	eb05 05c3 	add.w	r5, r5, r3, lsl #3
 800668a:	6868      	ldr	r0, [r5, #4]
	size = paramTbl[tblIndex].size;
 800668c:	78ab      	ldrb	r3, [r5, #2]
			protocol->ucFRAMEData[2] = data;
 800668e:	68e1      	ldr	r1, [r4, #12]
	switch (size)
 8006690:	1e5a      	subs	r2, r3, #1
 8006692:	2a07      	cmp	r2, #7
 8006694:	d805      	bhi.n	80066a2 <loadIoBlockData+0x7e>
 8006696:	e8df f002 	tbb	[pc, r2]
 800669a:	2f35      	.short	0x2f35
 800669c:	04041a04 	.word	0x04041a04
 80066a0:	3804      	.short	0x3804
	protocol->ucFRAMEData[1] = ucErrorNr;
 80066a2:	2323      	movs	r3, #35	@ 0x23
	protocol->ucFRAMESize = 2;
 80066a4:	2202      	movs	r2, #2
 80066a6:	8122      	strh	r2, [r4, #8]
	protocol->ucFRAMEData[1] = ucErrorNr;
 80066a8:	704b      	strb	r3, [r1, #1]
	protocol->pSnd_Enable(protocol);
 80066aa:	6863      	ldr	r3, [r4, #4]
 80066ac:	4620      	mov	r0, r4
 80066ae:	4798      	blx	r3
}
 80066b0:	b003      	add	sp, #12
 80066b2:	bd30      	pop	{r4, r5, pc}
		switch (error)
 80066b4:	2801      	cmp	r0, #1
	protocol->ucFRAMEData[1] = ucErrorNr;
 80066b6:	68e3      	ldr	r3, [r4, #12]
		switch (error)
 80066b8:	d046      	beq.n	8006748 <loadIoBlockData+0x124>
 80066ba:	2802      	cmp	r0, #2
 80066bc:	d03d      	beq.n	800673a <loadIoBlockData+0x116>
	protocol->ucFRAMESize = 2;
 80066be:	2102      	movs	r1, #2
	protocol->ucFRAMEData[1] = ucErrorNr;
 80066c0:	22ff      	movs	r2, #255	@ 0xff
	protocol->ucFRAMESize = 2;
 80066c2:	8121      	strh	r1, [r4, #8]
	protocol->ucFRAMEData[1] = ucErrorNr;
 80066c4:	705a      	strb	r2, [r3, #1]
	protocol->pSnd_Enable(protocol);
 80066c6:	6863      	ldr	r3, [r4, #4]
 80066c8:	4620      	mov	r0, r4
 80066ca:	4798      	blx	r3
}
 80066cc:	e7f0      	b.n	80066b0 <loadIoBlockData+0x8c>
			uint32 data = *(uint32*)addr;
 80066ce:	6802      	ldr	r2, [r0, #0]
			protocol->ucFRAMEData[2] = (uint8)(data & 0xFF);
 80066d0:	708a      	strb	r2, [r1, #2]
			protocol->ucFRAMEData[3] = (uint8)((data >> 8) & 0xFF);
 80066d2:	68e1      	ldr	r1, [r4, #12]
 80066d4:	0a10      	lsrs	r0, r2, #8
 80066d6:	70c8      	strb	r0, [r1, #3]
			protocol->ucFRAMEData[4] = (uint8)((data >> 16) & 0xFF);
 80066d8:	68e1      	ldr	r1, [r4, #12]
 80066da:	0c10      	lsrs	r0, r2, #16
 80066dc:	7108      	strb	r0, [r1, #4]
			protocol->ucFRAMEData[5] = (uint8)((data >> 24) & 0xFF);
 80066de:	68e1      	ldr	r1, [r4, #12]
 80066e0:	0e12      	lsrs	r2, r2, #24
 80066e2:	714a      	strb	r2, [r1, #5]
	protocol->ucFRAMEData[1] = ERRORSuccess;
 80066e4:	68e2      	ldr	r2, [r4, #12]
 80066e6:	2100      	movs	r1, #0
 80066e8:	7051      	strb	r1, [r2, #1]
	protocol->ucFRAMESize = 2 + size;
 80066ea:	3302      	adds	r3, #2
	protocol->pSnd_Enable(protocol);
 80066ec:	6862      	ldr	r2, [r4, #4]
	protocol->ucFRAMESize = 2 + size;
 80066ee:	8123      	strh	r3, [r4, #8]
	protocol->pSnd_Enable(protocol);
 80066f0:	4620      	mov	r0, r4
 80066f2:	4790      	blx	r2
}
 80066f4:	b003      	add	sp, #12
 80066f6:	bd30      	pop	{r4, r5, pc}
			uint16 data = *(uint16*)addr;
 80066f8:	8802      	ldrh	r2, [r0, #0]
			protocol->ucFRAMEData[2] = (uint8)(data & 0xFF);
 80066fa:	708a      	strb	r2, [r1, #2]
			protocol->ucFRAMEData[3] = (uint8)((data >> 8) & 0xFF);
 80066fc:	68e1      	ldr	r1, [r4, #12]
 80066fe:	0a12      	lsrs	r2, r2, #8
 8006700:	70ca      	strb	r2, [r1, #3]
			break;
 8006702:	e7ef      	b.n	80066e4 <loadIoBlockData+0xc0>
			uint8 data = *(uint8*)addr;
 8006704:	7802      	ldrb	r2, [r0, #0]
			protocol->ucFRAMEData[2] = data;
 8006706:	708a      	strb	r2, [r1, #2]
			break;
 8006708:	e7ec      	b.n	80066e4 <loadIoBlockData+0xc0>
			uint64 data = *(uint64*)addr;
 800670a:	e9d0 5200 	ldrd	r5, r2, [r0]
			protocol->ucFRAMEData[2] = (uint8)(data & 0xFF);
 800670e:	708d      	strb	r5, [r1, #2]
			protocol->ucFRAMEData[3] = (uint8)((data >> 8) & 0xFF);
 8006710:	68e1      	ldr	r1, [r4, #12]
 8006712:	0a28      	lsrs	r0, r5, #8
 8006714:	70c8      	strb	r0, [r1, #3]
			protocol->ucFRAMEData[4] = (uint8)((data >> 16) & 0xFF);
 8006716:	68e1      	ldr	r1, [r4, #12]
 8006718:	0c28      	lsrs	r0, r5, #16
 800671a:	7108      	strb	r0, [r1, #4]
			protocol->ucFRAMEData[5] = (uint8)((data >> 24) & 0xFF);
 800671c:	68e1      	ldr	r1, [r4, #12]
 800671e:	0e2d      	lsrs	r5, r5, #24
 8006720:	714d      	strb	r5, [r1, #5]
			protocol->ucFRAMEData[6] = (uint8)((data >> 32) & 0xFF);
 8006722:	68e1      	ldr	r1, [r4, #12]
 8006724:	718a      	strb	r2, [r1, #6]
			protocol->ucFRAMEData[7] = (uint8)((data >> 40) & 0xFF);
 8006726:	68e1      	ldr	r1, [r4, #12]
 8006728:	0a10      	lsrs	r0, r2, #8
 800672a:	71c8      	strb	r0, [r1, #7]
			protocol->ucFRAMEData[8] = (uint8)((data >> 48) & 0xFF);
 800672c:	68e1      	ldr	r1, [r4, #12]
 800672e:	0c10      	lsrs	r0, r2, #16
 8006730:	7208      	strb	r0, [r1, #8]
			protocol->ucFRAMEData[9] = (uint8)((data >> 56) & 0xFF);
 8006732:	68e1      	ldr	r1, [r4, #12]
 8006734:	0e12      	lsrs	r2, r2, #24
 8006736:	724a      	strb	r2, [r1, #9]
			break;
 8006738:	e7d4      	b.n	80066e4 <loadIoBlockData+0xc0>
	protocol->ucFRAMEData[1] = ucErrorNr;
 800673a:	2240      	movs	r2, #64	@ 0x40
	protocol->ucFRAMESize = 2;
 800673c:	8120      	strh	r0, [r4, #8]
	protocol->ucFRAMEData[1] = ucErrorNr;
 800673e:	705a      	strb	r2, [r3, #1]
	protocol->pSnd_Enable(protocol);
 8006740:	6863      	ldr	r3, [r4, #4]
 8006742:	4620      	mov	r0, r4
 8006744:	4798      	blx	r3
}
 8006746:	e7b3      	b.n	80066b0 <loadIoBlockData+0x8c>
	protocol->ucFRAMESize = 2;
 8006748:	2102      	movs	r1, #2
	protocol->ucFRAMEData[1] = ucErrorNr;
 800674a:	2243      	movs	r2, #67	@ 0x43
 800674c:	e7b9      	b.n	80066c2 <loadIoBlockData+0x9e>
	protocol->ucFRAMESize = 2;
 800674e:	2102      	movs	r1, #2
	protocol->ucFRAMEData[1] = ucErrorNr;
 8006750:	2245      	movs	r2, #69	@ 0x45
 8006752:	e770      	b.n	8006636 <loadIoBlockData+0x12>
	protocol->ucFRAMESize = 2;
 8006754:	2102      	movs	r1, #2
	protocol->ucFRAMEData[1] = ucErrorNr;
 8006756:	2246      	movs	r2, #70	@ 0x46
 8006758:	e76d      	b.n	8006636 <loadIoBlockData+0x12>
 800675a:	bf00      	nop
 800675c:	20000024 	.word	0x20000024

08006760 <loadParameter>:
{
 8006760:	b570      	push	{r4, r5, r6, lr}
	if (protocol->ucFRAMESize != 3)
 8006762:	8902      	ldrh	r2, [r0, #8]
	protocol->ucFRAMEData[1] = ucErrorNr;
 8006764:	68c3      	ldr	r3, [r0, #12]
	if (protocol->ucFRAMESize != 3)
 8006766:	2a03      	cmp	r2, #3
{
 8006768:	b082      	sub	sp, #8
 800676a:	4604      	mov	r4, r0
	if (protocol->ucFRAMESize != 3)
 800676c:	d008      	beq.n	8006780 <loadParameter+0x20>
	protocol->ucFRAMESize = 2;
 800676e:	2102      	movs	r1, #2
	protocol->ucFRAMEData[1] = ucErrorNr;
 8006770:	2214      	movs	r2, #20
	protocol->ucFRAMESize = 2;
 8006772:	8101      	strh	r1, [r0, #8]
	protocol->ucFRAMEData[1] = ucErrorNr;
 8006774:	705a      	strb	r2, [r3, #1]
	protocol->pSnd_Enable(protocol);
 8006776:	6843      	ldr	r3, [r0, #4]
}
 8006778:	b002      	add	sp, #8
 800677a:	e8bd 4070 	ldmia.w	sp!, {r4, r5, r6, lr}
	protocol->pSnd_Enable(protocol);
 800677e:	4718      	bx	r3
	error = getBlockParamIndex(TableStruct->TParamTable, paramId, &tblIndex);
 8006780:	4d2d      	ldr	r5, [pc, #180]	@ (8006838 <loadParameter+0xd8>)
 8006782:	f8b3 1001 	ldrh.w	r1, [r3, #1]
 8006786:	682a      	ldr	r2, [r5, #0]
 8006788:	6810      	ldr	r0, [r2, #0]
 800678a:	f10d 0206 	add.w	r2, sp, #6
 800678e:	f7fe fdcf 	bl	8005330 <getBlockParamIndex>
	if (error != ERROR_SUCCESS)
 8006792:	b160      	cbz	r0, 80067ae <loadParameter+0x4e>
		switch (error)
 8006794:	2801      	cmp	r0, #1
	protocol->ucFRAMEData[1] = ucErrorNr;
 8006796:	68e3      	ldr	r3, [r4, #12]
		switch (error)
 8006798:	d037      	beq.n	800680a <loadParameter+0xaa>
 800679a:	2802      	cmp	r0, #2
 800679c:	d132      	bne.n	8006804 <loadParameter+0xa4>
	protocol->ucFRAMEData[1] = ucErrorNr;
 800679e:	2240      	movs	r2, #64	@ 0x40
	protocol->ucFRAMESize = 2;
 80067a0:	8120      	strh	r0, [r4, #8]
	protocol->ucFRAMEData[1] = ucErrorNr;
 80067a2:	705a      	strb	r2, [r3, #1]
	protocol->pSnd_Enable(protocol);
 80067a4:	6863      	ldr	r3, [r4, #4]
 80067a6:	4620      	mov	r0, r4
 80067a8:	4798      	blx	r3
}
 80067aa:	b002      	add	sp, #8
 80067ac:	bd70      	pop	{r4, r5, r6, pc}
	blockAddr = TableStruct->TParamTable[tblIndex].pAdr;
 80067ae:	6829      	ldr	r1, [r5, #0]
 80067b0:	680b      	ldr	r3, [r1, #0]
	error = getBlockFunctionIndex(TableStruct->TFncTable, blockId, &tblIndex);
 80067b2:	6848      	ldr	r0, [r1, #4]
	blockAddr = TableStruct->TParamTable[tblIndex].pAdr;
 80067b4:	f8bd 1006 	ldrh.w	r1, [sp, #6]
 80067b8:	eb03 03c1 	add.w	r3, r3, r1, lsl #3
	error = getBlockFunctionIndex(TableStruct->TFncTable, blockId, &tblIndex);
 80067bc:	f10d 0206 	add.w	r2, sp, #6
	blockAddr = TableStruct->TParamTable[tblIndex].pAdr;
 80067c0:	685e      	ldr	r6, [r3, #4]
	error = getBlockFunctionIndex(TableStruct->TFncTable, blockId, &tblIndex);
 80067c2:	8831      	ldrh	r1, [r6, #0]
 80067c4:	f7fe fdfe 	bl	80053c4 <getBlockFunctionIndex>
	if (error != ERROR_SUCCESS)
 80067c8:	bb10      	cbnz	r0, 8006810 <loadParameter+0xb0>
	if ((TableStruct->TFncTable)[tblIndex].pFLoad(blockAddr,
 80067ca:	682a      	ldr	r2, [r5, #0]
 80067cc:	8963      	ldrh	r3, [r4, #10]
 80067ce:	6855      	ldr	r5, [r2, #4]
 80067d0:	f8bd 2006 	ldrh.w	r2, [sp, #6]
 80067d4:	68e1      	ldr	r1, [r4, #12]
 80067d6:	eb02 0242 	add.w	r2, r2, r2, lsl #1
 80067da:	eb05 05c2 	add.w	r5, r5, r2, lsl #3
 80067de:	3b02      	subs	r3, #2
 80067e0:	68ed      	ldr	r5, [r5, #12]
 80067e2:	b29b      	uxth	r3, r3
 80067e4:	3102      	adds	r1, #2
 80067e6:	4630      	mov	r0, r6
 80067e8:	f104 0208 	add.w	r2, r4, #8
 80067ec:	47a8      	blx	r5
 80067ee:	b1b0      	cbz	r0, 800681e <loadParameter+0xbe>
	protocol->ucFRAMEData[1] = ucErrorNr;
 80067f0:	68e3      	ldr	r3, [r4, #12]
	protocol->ucFRAMESize = 2;
 80067f2:	2102      	movs	r1, #2
	protocol->ucFRAMEData[1] = ucErrorNr;
 80067f4:	2214      	movs	r2, #20
	protocol->ucFRAMESize = 2;
 80067f6:	8121      	strh	r1, [r4, #8]
	protocol->ucFRAMEData[1] = ucErrorNr;
 80067f8:	705a      	strb	r2, [r3, #1]
	protocol->pSnd_Enable(protocol);
 80067fa:	6863      	ldr	r3, [r4, #4]
 80067fc:	4620      	mov	r0, r4
 80067fe:	4798      	blx	r3
}
 8006800:	b002      	add	sp, #8
 8006802:	bd70      	pop	{r4, r5, r6, pc}
	protocol->ucFRAMESize = 2;
 8006804:	2102      	movs	r1, #2
	protocol->ucFRAMEData[1] = ucErrorNr;
 8006806:	22ff      	movs	r2, #255	@ 0xff
 8006808:	e7f5      	b.n	80067f6 <loadParameter+0x96>
	protocol->ucFRAMESize = 2;
 800680a:	2102      	movs	r1, #2
	protocol->ucFRAMEData[1] = ucErrorNr;
 800680c:	2243      	movs	r2, #67	@ 0x43
 800680e:	e7f2      	b.n	80067f6 <loadParameter+0x96>
		switch (error)
 8006810:	2801      	cmp	r0, #1
	protocol->ucFRAMEData[1] = ucErrorNr;
 8006812:	68e3      	ldr	r3, [r4, #12]
		switch (error)
 8006814:	d00c      	beq.n	8006830 <loadParameter+0xd0>
 8006816:	2802      	cmp	r0, #2
 8006818:	d1f4      	bne.n	8006804 <loadParameter+0xa4>
	protocol->ucFRAMEData[1] = ucErrorNr;
 800681a:	2241      	movs	r2, #65	@ 0x41
 800681c:	e7c0      	b.n	80067a0 <loadParameter+0x40>
		protocol->ucFRAMESize += 2; /* add overhead size */
 800681e:	8923      	ldrh	r3, [r4, #8]
		protocol->ucFRAMEData[1] = ERRORSuccess;
 8006820:	68e2      	ldr	r2, [r4, #12]
		protocol->ucFRAMESize += 2; /* add overhead size */
 8006822:	3302      	adds	r3, #2
 8006824:	8123      	strh	r3, [r4, #8]
		protocol->ucFRAMEData[1] = ERRORSuccess;
 8006826:	7050      	strb	r0, [r2, #1]
		protocol->pSnd_Enable(protocol);
 8006828:	6863      	ldr	r3, [r4, #4]
 800682a:	4620      	mov	r0, r4
 800682c:	4798      	blx	r3
 800682e:	e7bc      	b.n	80067aa <loadParameter+0x4a>
	protocol->ucFRAMESize = 2;
 8006830:	2102      	movs	r1, #2
	protocol->ucFRAMEData[1] = ucErrorNr;
 8006832:	2244      	movs	r2, #68	@ 0x44
 8006834:	e7df      	b.n	80067f6 <loadParameter+0x96>
 8006836:	bf00      	nop
 8006838:	20000024 	.word	0x20000024

0800683c <saveParameter>:
{
 800683c:	b5f0      	push	{r4, r5, r6, r7, lr}
	if (protocol->ucFRAMESize < 3)
 800683e:	8902      	ldrh	r2, [r0, #8]
	protocol->ucFRAMEData[1] = ucErrorNr;
 8006840:	68c3      	ldr	r3, [r0, #12]
	if (protocol->ucFRAMESize < 3)
 8006842:	2a02      	cmp	r2, #2
{
 8006844:	b083      	sub	sp, #12
 8006846:	4604      	mov	r4, r0
	if (protocol->ucFRAMESize < 3)
 8006848:	d808      	bhi.n	800685c <saveParameter+0x20>
	protocol->ucFRAMESize = 2;
 800684a:	2102      	movs	r1, #2
	protocol->ucFRAMEData[1] = ucErrorNr;
 800684c:	2214      	movs	r2, #20
	protocol->ucFRAMESize = 2;
 800684e:	8101      	strh	r1, [r0, #8]
	protocol->ucFRAMEData[1] = ucErrorNr;
 8006850:	705a      	strb	r2, [r3, #1]
	protocol->pSnd_Enable(protocol);
 8006852:	6843      	ldr	r3, [r0, #4]
}
 8006854:	b003      	add	sp, #12
 8006856:	e8bd 40f0 	ldmia.w	sp!, {r4, r5, r6, r7, lr}
	protocol->pSnd_Enable(protocol);
 800685a:	4718      	bx	r3
	error = getBlockParamIndex(TableStruct->TParamTable, paramId, &tblIndex);
 800685c:	4e48      	ldr	r6, [pc, #288]	@ (8006980 <saveParameter+0x144>)
	paramId = (uint16)((protocol->ucFRAMEData[2]<<8) + protocol->ucFRAMEData[1]);
 800685e:	f8b3 5001 	ldrh.w	r5, [r3, #1]
	error = getBlockParamIndex(TableStruct->TParamTable, paramId, &tblIndex);
 8006862:	6833      	ldr	r3, [r6, #0]
 8006864:	f10d 0206 	add.w	r2, sp, #6
 8006868:	6818      	ldr	r0, [r3, #0]
 800686a:	4629      	mov	r1, r5
 800686c:	f7fe fd60 	bl	8005330 <getBlockParamIndex>
	if (error != ERROR_SUCCESS)
 8006870:	4603      	mov	r3, r0
 8006872:	2800      	cmp	r0, #0
 8006874:	d15a      	bne.n	800692c <saveParameter+0xf0>
	blockAddr = TableStruct->TParamTable[tblIndex].pAdr;
 8006876:	6832      	ldr	r2, [r6, #0]
 8006878:	f8bd 0006 	ldrh.w	r0, [sp, #6]
 800687c:	6811      	ldr	r1, [r2, #0]
 800687e:	eb01 01c0 	add.w	r1, r1, r0, lsl #3
 8006882:	684f      	ldr	r7, [r1, #4]
	if (TableStruct->TLimitSaveFncTable != 0)
 8006884:	6891      	ldr	r1, [r2, #8]
 8006886:	b1a9      	cbz	r1, 80068b4 <saveParameter+0x78>
		while ((paramId != (TableStruct->TLimitSaveFncTable)[i].uiParID) && \
 8006888:	6891      	ldr	r1, [r2, #8]
 800688a:	8809      	ldrh	r1, [r1, #0]
 800688c:	42a9      	cmp	r1, r5
 800688e:	4618      	mov	r0, r3
 8006890:	d107      	bne.n	80068a2 <saveParameter+0x66>
 8006892:	e00c      	b.n	80068ae <saveParameter+0x72>
 8006894:	6891      	ldr	r1, [r2, #8]
 8006896:	f831 1033 	ldrh.w	r1, [r1, r3, lsl #3]
 800689a:	42a9      	cmp	r1, r5
 800689c:	ea4f 00c3 	mov.w	r0, r3, lsl #3
 80068a0:	d005      	beq.n	80068ae <saveParameter+0x72>
				((TableStruct->TLimitSaveFncTable)[i].uiParID != 0))
 80068a2:	6891      	ldr	r1, [r2, #8]
		while ((paramId != (TableStruct->TLimitSaveFncTable)[i].uiParID) && \
 80068a4:	5a09      	ldrh	r1, [r1, r0]
			i++;
 80068a6:	3301      	adds	r3, #1
 80068a8:	b29b      	uxth	r3, r3
		while ((paramId != (TableStruct->TLimitSaveFncTable)[i].uiParID) && \
 80068aa:	2900      	cmp	r1, #0
 80068ac:	d1f2      	bne.n	8006894 <saveParameter+0x58>
		if ((TableStruct->TLimitSaveFncTable)[i].uiParID != 0)
 80068ae:	6893      	ldr	r3, [r2, #8]
 80068b0:	5a1b      	ldrh	r3, [r3, r0]
 80068b2:	bb1b      	cbnz	r3, 80068fc <saveParameter+0xc0>
	error = getBlockFunctionIndex(TableStruct->TFncTable, blockId, &tblIndex);
 80068b4:	6850      	ldr	r0, [r2, #4]
 80068b6:	8839      	ldrh	r1, [r7, #0]
 80068b8:	f10d 0206 	add.w	r2, sp, #6
 80068bc:	f7fe fd82 	bl	80053c4 <getBlockFunctionIndex>
	if (error != ERROR_SUCCESS)
 80068c0:	2800      	cmp	r0, #0
 80068c2:	d12b      	bne.n	800691c <saveParameter+0xe0>
	if ((TableStruct->TFncTable)[tblIndex].pFSave(blockAddr, &(protocol->ucFRAMEData[3]), protocol->ucFRAMESize-3))
 80068c4:	6833      	ldr	r3, [r6, #0]
 80068c6:	8922      	ldrh	r2, [r4, #8]
 80068c8:	685d      	ldr	r5, [r3, #4]
 80068ca:	f8bd 3006 	ldrh.w	r3, [sp, #6]
 80068ce:	68e1      	ldr	r1, [r4, #12]
 80068d0:	eb03 0343 	add.w	r3, r3, r3, lsl #1
 80068d4:	eb05 05c3 	add.w	r5, r5, r3, lsl #3
 80068d8:	3a03      	subs	r2, #3
 80068da:	692b      	ldr	r3, [r5, #16]
 80068dc:	b292      	uxth	r2, r2
 80068de:	3103      	adds	r1, #3
 80068e0:	4638      	mov	r0, r7
 80068e2:	4798      	blx	r3
	protocol->ucFRAMEData[1] = ucErrorNr;
 80068e4:	68e3      	ldr	r3, [r4, #12]
	if ((TableStruct->TFncTable)[tblIndex].pFSave(blockAddr, &(protocol->ucFRAMEData[3]), protocol->ucFRAMESize-3))
 80068e6:	2800      	cmp	r0, #0
 80068e8:	d02e      	beq.n	8006948 <saveParameter+0x10c>
	protocol->ucFRAMESize = 2;
 80068ea:	2102      	movs	r1, #2
	protocol->ucFRAMEData[1] = ucErrorNr;
 80068ec:	2214      	movs	r2, #20
	protocol->ucFRAMESize = 2;
 80068ee:	8121      	strh	r1, [r4, #8]
	protocol->ucFRAMEData[1] = ucErrorNr;
 80068f0:	705a      	strb	r2, [r3, #1]
	protocol->pSnd_Enable(protocol);
 80068f2:	6863      	ldr	r3, [r4, #4]
 80068f4:	4620      	mov	r0, r4
 80068f6:	4798      	blx	r3
}
 80068f8:	b003      	add	sp, #12
 80068fa:	bdf0      	pop	{r4, r5, r6, r7, pc}
			if ((TableStruct->TLimitSaveFncTable)[i].pFLimitSave(blockAddr, &(protocol->ucFRAMEData[3]), protocol->ucFRAMESize-3))
 80068fc:	6893      	ldr	r3, [r2, #8]
 80068fe:	8922      	ldrh	r2, [r4, #8]
 8006900:	68e1      	ldr	r1, [r4, #12]
 8006902:	4403      	add	r3, r0
 8006904:	3a03      	subs	r2, #3
 8006906:	685b      	ldr	r3, [r3, #4]
 8006908:	b292      	uxth	r2, r2
 800690a:	3103      	adds	r1, #3
 800690c:	4638      	mov	r0, r7
 800690e:	4798      	blx	r3
 8006910:	2800      	cmp	r0, #0
 8006912:	d0f1      	beq.n	80068f8 <saveParameter+0xbc>
	protocol->ucFRAMEData[1] = ucErrorNr;
 8006914:	68e3      	ldr	r3, [r4, #12]
	protocol->ucFRAMESize = 2;
 8006916:	2102      	movs	r1, #2
	protocol->ucFRAMEData[1] = ucErrorNr;
 8006918:	2242      	movs	r2, #66	@ 0x42
 800691a:	e7e8      	b.n	80068ee <saveParameter+0xb2>
		switch (error)
 800691c:	2801      	cmp	r0, #1
	protocol->ucFRAMEData[1] = ucErrorNr;
 800691e:	68e3      	ldr	r3, [r4, #12]
		switch (error)
 8006920:	d02a      	beq.n	8006978 <saveParameter+0x13c>
 8006922:	2802      	cmp	r0, #2
 8006924:	d021      	beq.n	800696a <saveParameter+0x12e>
	protocol->ucFRAMESize = 2;
 8006926:	2102      	movs	r1, #2
	protocol->ucFRAMEData[1] = ucErrorNr;
 8006928:	22ff      	movs	r2, #255	@ 0xff
 800692a:	e7e0      	b.n	80068ee <saveParameter+0xb2>
		switch (error)
 800692c:	2801      	cmp	r0, #1
	protocol->ucFRAMEData[1] = ucErrorNr;
 800692e:	68e2      	ldr	r2, [r4, #12]
		switch (error)
 8006930:	d018      	beq.n	8006964 <saveParameter+0x128>
 8006932:	2802      	cmp	r0, #2
 8006934:	d00f      	beq.n	8006956 <saveParameter+0x11a>
	protocol->ucFRAMESize = 2;
 8006936:	2102      	movs	r1, #2
	protocol->ucFRAMEData[1] = ucErrorNr;
 8006938:	23ff      	movs	r3, #255	@ 0xff
	protocol->ucFRAMESize = 2;
 800693a:	8121      	strh	r1, [r4, #8]
	protocol->ucFRAMEData[1] = ucErrorNr;
 800693c:	7053      	strb	r3, [r2, #1]
	protocol->pSnd_Enable(protocol);
 800693e:	6863      	ldr	r3, [r4, #4]
 8006940:	4620      	mov	r0, r4
 8006942:	4798      	blx	r3
}
 8006944:	b003      	add	sp, #12
 8006946:	bdf0      	pop	{r4, r5, r6, r7, pc}
		protocol->ucFRAMESize = 2;
 8006948:	2202      	movs	r2, #2
 800694a:	8122      	strh	r2, [r4, #8]
		protocol->ucFRAMEData[1] = ERRORSuccess;
 800694c:	7058      	strb	r0, [r3, #1]
		protocol->pSnd_Enable(protocol);
 800694e:	6863      	ldr	r3, [r4, #4]
 8006950:	4620      	mov	r0, r4
 8006952:	4798      	blx	r3
 8006954:	e7d0      	b.n	80068f8 <saveParameter+0xbc>
	protocol->ucFRAMEData[1] = ucErrorNr;
 8006956:	2140      	movs	r1, #64	@ 0x40
	protocol->ucFRAMESize = 2;
 8006958:	8120      	strh	r0, [r4, #8]
	protocol->ucFRAMEData[1] = ucErrorNr;
 800695a:	7051      	strb	r1, [r2, #1]
	protocol->pSnd_Enable(protocol);
 800695c:	6863      	ldr	r3, [r4, #4]
 800695e:	4620      	mov	r0, r4
 8006960:	4798      	blx	r3
}
 8006962:	e7c9      	b.n	80068f8 <saveParameter+0xbc>
	protocol->ucFRAMESize = 2;
 8006964:	2102      	movs	r1, #2
	protocol->ucFRAMEData[1] = ucErrorNr;
 8006966:	2343      	movs	r3, #67	@ 0x43
 8006968:	e7e7      	b.n	800693a <saveParameter+0xfe>
 800696a:	2241      	movs	r2, #65	@ 0x41
	protocol->ucFRAMESize = 2;
 800696c:	8120      	strh	r0, [r4, #8]
	protocol->ucFRAMEData[1] = ucErrorNr;
 800696e:	705a      	strb	r2, [r3, #1]
	protocol->pSnd_Enable(protocol);
 8006970:	6863      	ldr	r3, [r4, #4]
 8006972:	4620      	mov	r0, r4
 8006974:	4798      	blx	r3
}
 8006976:	e7bf      	b.n	80068f8 <saveParameter+0xbc>
	protocol->ucFRAMESize = 2;
 8006978:	2102      	movs	r1, #2
	protocol->ucFRAMEData[1] = ucErrorNr;
 800697a:	2244      	movs	r2, #68	@ 0x44
 800697c:	e7b7      	b.n	80068ee <saveParameter+0xb2>
 800697e:	bf00      	nop
 8006980:	20000024 	.word	0x20000024

08006984 <getDeviceInfo>:
	if (protocol->ucMaxCommSize < 47)
 8006984:	8941      	ldrh	r1, [r0, #10]
	protocol->ucFRAMEData[1] = ucErrorNr;
 8006986:	68c2      	ldr	r2, [r0, #12]
	if (protocol->ucMaxCommSize < 47)
 8006988:	292e      	cmp	r1, #46	@ 0x2e
{
 800698a:	b530      	push	{r4, r5, lr}
 800698c:	4603      	mov	r3, r0
	if (protocol->ucMaxCommSize < 47)
 800698e:	f240 80b9 	bls.w	8006b04 <getDeviceInfo+0x180>
	protocol->ucFRAMEData[1] = ERRORSuccess;
 8006992:	2100      	movs	r1, #0
	protocol->ucFRAMESize = 47;
 8006994:	202f      	movs	r0, #47	@ 0x2f
 8006996:	8118      	strh	r0, [r3, #8]
	protocol->ucFRAMEData[1] = ERRORSuccess;
 8006998:	7051      	strb	r1, [r2, #1]
	protocol->ucFRAMEData[2] = (uint8)(DEVINFO_BOOTLOADER_VERSION & 0x00FF);
 800699a:	68da      	ldr	r2, [r3, #12]
			(uint8)(TableStruct->framePrgVersion & (uint16)0x00FF);
 800699c:	4c62      	ldr	r4, [pc, #392]	@ (8006b28 <getDeviceInfo+0x1a4>)
	protocol->ucFRAMEData[2] = (uint8)(DEVINFO_BOOTLOADER_VERSION & 0x00FF);
 800699e:	2006      	movs	r0, #6
 80069a0:	7090      	strb	r0, [r2, #2]
	protocol->ucFRAMEData[3] = (uint8)(DEVINFO_BOOTLOADER_VERSION >> 8);
 80069a2:	68da      	ldr	r2, [r3, #12]
 80069a4:	70d1      	strb	r1, [r2, #3]
			(uint8)(TableStruct->framePrgVersion & (uint16)0x00FF);
 80069a6:	6822      	ldr	r2, [r4, #0]
	protocol->ucFRAMEData[4] = \
 80069a8:	68d9      	ldr	r1, [r3, #12]
			(uint8)(TableStruct->framePrgVersion & (uint16)0x00FF);
 80069aa:	8c10      	ldrh	r0, [r2, #32]
 80069ac:	7108      	strb	r0, [r1, #4]
	protocol->ucFRAMEData[5] = (uint8)(TableStruct->framePrgVersion >> 8);
 80069ae:	8c11      	ldrh	r1, [r2, #32]
 80069b0:	68d8      	ldr	r0, [r3, #12]
 80069b2:	f3c1 2107 	ubfx	r1, r1, #8, #8
 80069b6:	7141      	strb	r1, [r0, #5]
	protocol->ucFRAMEData[6] = (uint8)(protocol->ucMaxCommSize & 0xFF);
 80069b8:	68d9      	ldr	r1, [r3, #12]
 80069ba:	8958      	ldrh	r0, [r3, #10]
 80069bc:	7188      	strb	r0, [r1, #6]
	protocol->ucFRAMEData[7] = (uint8)(protocol->ucMaxCommSize >> 8);
 80069be:	8959      	ldrh	r1, [r3, #10]
 80069c0:	68d8      	ldr	r0, [r3, #12]
 80069c2:	0a09      	lsrs	r1, r1, #8
 80069c4:	71c1      	strb	r1, [r0, #7]
	protocol->ucFRAMEData[8] = (uint8)(DEVINFO_PROCESSOR_ID & 0x00FF);
 80069c6:	68d9      	ldr	r1, [r3, #12]
 80069c8:	2081      	movs	r0, #129	@ 0x81
 80069ca:	7208      	strb	r0, [r1, #8]
	protocol->ucFRAMEData[9] = (uint8)(DEVINFO_PROCESSOR_ID >> 8);
 80069cc:	68d9      	ldr	r1, [r3, #12]
 80069ce:	2003      	movs	r0, #3
 80069d0:	7248      	strb	r0, [r1, #9]
	protocol->ucFRAMEData[10] = __DATE__[0];
 80069d2:	68d9      	ldr	r1, [r3, #12]
 80069d4:	204d      	movs	r0, #77	@ 0x4d
 80069d6:	7288      	strb	r0, [r1, #10]
	protocol->ucFRAMEData[11] = __DATE__[1];
 80069d8:	68d9      	ldr	r1, [r3, #12]
 80069da:	2061      	movs	r0, #97	@ 0x61
 80069dc:	72c8      	strb	r0, [r1, #11]
	protocol->ucFRAMEData[12] = __DATE__[2];
 80069de:	68d9      	ldr	r1, [r3, #12]
 80069e0:	2072      	movs	r0, #114	@ 0x72
 80069e2:	7308      	strb	r0, [r1, #12]
	protocol->ucFRAMEData[13] = __DATE__[4];
 80069e4:	68d8      	ldr	r0, [r3, #12]
 80069e6:	2132      	movs	r1, #50	@ 0x32
 80069e8:	7341      	strb	r1, [r0, #13]
	protocol->ucFRAMEData[14] = __DATE__[5];
 80069ea:	68d8      	ldr	r0, [r3, #12]
 80069ec:	f04f 0c34 	mov.w	ip, #52	@ 0x34
 80069f0:	f880 c00e 	strb.w	ip, [r0, #14]
	protocol->ucFRAMEData[15] = __DATE__[7];
 80069f4:	68d8      	ldr	r0, [r3, #12]
 80069f6:	73c1      	strb	r1, [r0, #15]
	protocol->ucFRAMEData[16] = __DATE__[8];
 80069f8:	68dd      	ldr	r5, [r3, #12]
 80069fa:	2030      	movs	r0, #48	@ 0x30
 80069fc:	7428      	strb	r0, [r5, #16]
	protocol->ucFRAMEData[17] = __DATE__[9];
 80069fe:	68dd      	ldr	r5, [r3, #12]
 8006a00:	7469      	strb	r1, [r5, #17]
	protocol->ucFRAMEData[18] = __DATE__[10];
 8006a02:	68dd      	ldr	r5, [r3, #12]
 8006a04:	f04f 0c36 	mov.w	ip, #54	@ 0x36
 8006a08:	f885 c012 	strb.w	ip, [r5, #18]
	protocol->ucFRAMEData[19] = __TIME__[0];
 8006a0c:	68dd      	ldr	r5, [r3, #12]
 8006a0e:	f04f 0e31 	mov.w	lr, #49	@ 0x31
 8006a12:	f885 e013 	strb.w	lr, [r5, #19]
	protocol->ucFRAMEData[20] = __TIME__[1];
 8006a16:	68dd      	ldr	r5, [r3, #12]
 8006a18:	f885 c014 	strb.w	ip, [r5, #20]
	protocol->ucFRAMEData[21] = __TIME__[3];
 8006a1c:	68dd      	ldr	r5, [r3, #12]
 8006a1e:	7569      	strb	r1, [r5, #21]
	protocol->ucFRAMEData[22] = __TIME__[4];
 8006a20:	68d9      	ldr	r1, [r3, #12]
 8006a22:	7588      	strb	r0, [r1, #22]
	if (TableStruct->framePrgCompDateTime == 0)
 8006a24:	6a51      	ldr	r1, [r2, #36]	@ 0x24
 8006a26:	2900      	cmp	r1, #0
 8006a28:	d074      	beq.n	8006b14 <getDeviceInfo+0x190>
		protocol->ucFRAMEData[23] = TableStruct->framePrgCompDateTime[0];
 8006a2a:	6a50      	ldr	r0, [r2, #36]	@ 0x24
 8006a2c:	68d9      	ldr	r1, [r3, #12]
 8006a2e:	7800      	ldrb	r0, [r0, #0]
 8006a30:	75c8      	strb	r0, [r1, #23]
		protocol->ucFRAMEData[24] = TableStruct->framePrgCompDateTime[1];
 8006a32:	6a50      	ldr	r0, [r2, #36]	@ 0x24
 8006a34:	68d9      	ldr	r1, [r3, #12]
 8006a36:	7840      	ldrb	r0, [r0, #1]
 8006a38:	7608      	strb	r0, [r1, #24]
		protocol->ucFRAMEData[25] = TableStruct->framePrgCompDateTime[2];
 8006a3a:	6a50      	ldr	r0, [r2, #36]	@ 0x24
 8006a3c:	68d9      	ldr	r1, [r3, #12]
 8006a3e:	7880      	ldrb	r0, [r0, #2]
 8006a40:	7648      	strb	r0, [r1, #25]
		protocol->ucFRAMEData[26] = TableStruct->framePrgCompDateTime[4];
 8006a42:	6a50      	ldr	r0, [r2, #36]	@ 0x24
 8006a44:	68d9      	ldr	r1, [r3, #12]
 8006a46:	7900      	ldrb	r0, [r0, #4]
 8006a48:	7688      	strb	r0, [r1, #26]
		protocol->ucFRAMEData[27] = TableStruct->framePrgCompDateTime[5];
 8006a4a:	6a50      	ldr	r0, [r2, #36]	@ 0x24
 8006a4c:	68d9      	ldr	r1, [r3, #12]
 8006a4e:	7940      	ldrb	r0, [r0, #5]
 8006a50:	76c8      	strb	r0, [r1, #27]
		protocol->ucFRAMEData[28] = TableStruct->framePrgCompDateTime[7];
 8006a52:	6a50      	ldr	r0, [r2, #36]	@ 0x24
 8006a54:	68d9      	ldr	r1, [r3, #12]
 8006a56:	79c0      	ldrb	r0, [r0, #7]
 8006a58:	7708      	strb	r0, [r1, #28]
		protocol->ucFRAMEData[29] = TableStruct->framePrgCompDateTime[8];
 8006a5a:	6a50      	ldr	r0, [r2, #36]	@ 0x24
 8006a5c:	68d9      	ldr	r1, [r3, #12]
 8006a5e:	7a00      	ldrb	r0, [r0, #8]
 8006a60:	7748      	strb	r0, [r1, #29]
		protocol->ucFRAMEData[30] = TableStruct->framePrgCompDateTime[9];
 8006a62:	6a50      	ldr	r0, [r2, #36]	@ 0x24
 8006a64:	68d9      	ldr	r1, [r3, #12]
 8006a66:	7a40      	ldrb	r0, [r0, #9]
 8006a68:	7788      	strb	r0, [r1, #30]
		protocol->ucFRAMEData[31] = TableStruct->framePrgCompDateTime[10];
 8006a6a:	6a50      	ldr	r0, [r2, #36]	@ 0x24
 8006a6c:	68d9      	ldr	r1, [r3, #12]
 8006a6e:	7a80      	ldrb	r0, [r0, #10]
 8006a70:	77c8      	strb	r0, [r1, #31]
		protocol->ucFRAMEData[32] = TableStruct->framePrgCompDateTime[11];
 8006a72:	6a50      	ldr	r0, [r2, #36]	@ 0x24
 8006a74:	68d9      	ldr	r1, [r3, #12]
 8006a76:	7ac0      	ldrb	r0, [r0, #11]
 8006a78:	f881 0020 	strb.w	r0, [r1, #32]
		protocol->ucFRAMEData[33] = TableStruct->framePrgCompDateTime[12];
 8006a7c:	6a50      	ldr	r0, [r2, #36]	@ 0x24
 8006a7e:	68d9      	ldr	r1, [r3, #12]
 8006a80:	7b00      	ldrb	r0, [r0, #12]
 8006a82:	f881 0021 	strb.w	r0, [r1, #33]	@ 0x21
		protocol->ucFRAMEData[34] = TableStruct->framePrgCompDateTime[14];
 8006a86:	6a50      	ldr	r0, [r2, #36]	@ 0x24
 8006a88:	68d9      	ldr	r1, [r3, #12]
 8006a8a:	7b80      	ldrb	r0, [r0, #14]
 8006a8c:	f881 0022 	strb.w	r0, [r1, #34]	@ 0x22
		protocol->ucFRAMEData[35] = TableStruct->framePrgCompDateTime[15];
 8006a90:	6a50      	ldr	r0, [r2, #36]	@ 0x24
 8006a92:	68d9      	ldr	r1, [r3, #12]
 8006a94:	7bc0      	ldrb	r0, [r0, #15]
 8006a96:	f881 0023 	strb.w	r0, [r1, #35]	@ 0x23
	protocol->ucFRAMEData[36] = (uint8)(TableStruct->DSPState & 0x00FF);
 8006a9a:	68d9      	ldr	r1, [r3, #12]
 8006a9c:	7b10      	ldrb	r0, [r2, #12]
 8006a9e:	f881 0024 	strb.w	r0, [r1, #36]	@ 0x24
	protocol->ucFRAMEData[37] = (uint8)(TableStruct->eventType & 0x00FF);
 8006aa2:	68d9      	ldr	r1, [r3, #12]
 8006aa4:	89d0      	ldrh	r0, [r2, #14]
 8006aa6:	f881 0025 	strb.w	r0, [r1, #37]	@ 0x25
	protocol->ucFRAMEData[38] = (uint8)(TableStruct->eventType >> 8);
 8006aaa:	89d1      	ldrh	r1, [r2, #14]
 8006aac:	68d8      	ldr	r0, [r3, #12]
 8006aae:	f3c1 2107 	ubfx	r1, r1, #8, #8
 8006ab2:	f880 1026 	strb.w	r1, [r0, #38]	@ 0x26
	protocol->ucFRAMEData[39] = (uint8)(TableStruct->eventId & 0x00FF);
 8006ab6:	68d9      	ldr	r1, [r3, #12]
 8006ab8:	6910      	ldr	r0, [r2, #16]
 8006aba:	f881 0027 	strb.w	r0, [r1, #39]	@ 0x27
	protocol->ucFRAMEData[40] = (uint8)(TableStruct->eventId >> 8);
 8006abe:	6911      	ldr	r1, [r2, #16]
 8006ac0:	68d8      	ldr	r0, [r3, #12]
 8006ac2:	0a09      	lsrs	r1, r1, #8
 8006ac4:	f880 1028 	strb.w	r1, [r0, #40]	@ 0x28
	protocol->ucFRAMEData[41] = (uint8)(TableStruct->eventId >> 16);
 8006ac8:	6911      	ldr	r1, [r2, #16]
 8006aca:	68d8      	ldr	r0, [r3, #12]
 8006acc:	0c09      	lsrs	r1, r1, #16
 8006ace:	f880 1029 	strb.w	r1, [r0, #41]	@ 0x29
	protocol->ucFRAMEData[42] = (uint8)(TableStruct->eventId >> 24);
 8006ad2:	6911      	ldr	r1, [r2, #16]
 8006ad4:	68d8      	ldr	r0, [r3, #12]
 8006ad6:	0e09      	lsrs	r1, r1, #24
 8006ad8:	f880 102a 	strb.w	r1, [r0, #42]	@ 0x2a
	protocol->ucFRAMEData[43] = (uint8)(tableStructAddr & 0xFF);
 8006adc:	68d9      	ldr	r1, [r3, #12]
 8006ade:	f881 202b 	strb.w	r2, [r1, #43]	@ 0x2b
	protocol->ucFRAMEData[44] = (uint8)((tableStructAddr >> 8) & 0xFF);
 8006ae2:	68d9      	ldr	r1, [r3, #12]
 8006ae4:	0a14      	lsrs	r4, r2, #8
 8006ae6:	f881 402c 	strb.w	r4, [r1, #44]	@ 0x2c
	protocol->ucFRAMEData[45] = (uint8)((tableStructAddr >> 16) & 0xFF);
 8006aea:	68d9      	ldr	r1, [r3, #12]
 8006aec:	0c10      	lsrs	r0, r2, #16
 8006aee:	f881 002d 	strb.w	r0, [r1, #45]	@ 0x2d
	protocol->ucFRAMEData[46] = (uint8)((tableStructAddr >> 24) & 0xFF);
 8006af2:	68d9      	ldr	r1, [r3, #12]
 8006af4:	0e12      	lsrs	r2, r2, #24
 8006af6:	f881 202e 	strb.w	r2, [r1, #46]	@ 0x2e
	protocol->pSnd_Enable(protocol);
 8006afa:	4618      	mov	r0, r3
 8006afc:	685b      	ldr	r3, [r3, #4]
}
 8006afe:	e8bd 4030 	ldmia.w	sp!, {r4, r5, lr}
	protocol->pSnd_Enable(protocol);
 8006b02:	4718      	bx	r3
	protocol->ucFRAMESize = 2;
 8006b04:	2402      	movs	r4, #2
	protocol->ucFRAMEData[1] = ucErrorNr;
 8006b06:	2115      	movs	r1, #21
	protocol->ucFRAMESize = 2;
 8006b08:	8104      	strh	r4, [r0, #8]
	protocol->ucFRAMEData[1] = ucErrorNr;
 8006b0a:	7051      	strb	r1, [r2, #1]
}
 8006b0c:	e8bd 4030 	ldmia.w	sp!, {r4, r5, lr}
	protocol->pSnd_Enable(protocol);
 8006b10:	6843      	ldr	r3, [r0, #4]
 8006b12:	4718      	bx	r3
 8006b14:	2223      	movs	r2, #35	@ 0x23
			protocol->ucFRAMEData[23+i] = '-';
 8006b16:	202d      	movs	r0, #45	@ 0x2d
 8006b18:	68d9      	ldr	r1, [r3, #12]
 8006b1a:	5488      	strb	r0, [r1, r2]
		} while (i-- > 0);
 8006b1c:	3a01      	subs	r2, #1
 8006b1e:	2a16      	cmp	r2, #22
 8006b20:	d1fa      	bne.n	8006b18 <getDeviceInfo+0x194>
	protocol->ucFRAMEData[36] = (uint8)(TableStruct->DSPState & 0x00FF);
 8006b22:	6822      	ldr	r2, [r4, #0]
 8006b24:	e7b9      	b.n	8006a9a <getDeviceInfo+0x116>
 8006b26:	bf00      	nop
 8006b28:	20000024 	.word	0x20000024

08006b2c <sendError>:
	protocol->ucFRAMEData[1] = ucErrorNr;
 8006b2c:	68c2      	ldr	r2, [r0, #12]
	protocol->ucFRAMESize = 2;
 8006b2e:	f04f 0c02 	mov.w	ip, #2
 8006b32:	f8a0 c008 	strh.w	ip, [r0, #8]
	protocol->ucFRAMEData[1] = ucErrorNr;
 8006b36:	7051      	strb	r1, [r2, #1]
	protocol->pSnd_Enable(protocol);
 8006b38:	6843      	ldr	r3, [r0, #4]
 8006b3a:	4718      	bx	r3

08006b3c <initServiceTable>:
 */
void initServiceTable(tProtocol* protocol)
{
	uint16 i;

	for (i = 0; i <= MAX_SERVICE_ID; i++)
 8006b3c:	4b05      	ldr	r3, [pc, #20]	@ (8006b54 <initServiceTable+0x18>)
 8006b3e:	4906      	ldr	r1, [pc, #24]	@ (8006b58 <initServiceTable+0x1c>)
 8006b40:	f103 026c 	add.w	r2, r3, #108	@ 0x6c
	{
		serviceTable[i] = sendSvNotAvailable;
 8006b44:	f843 1f04 	str.w	r1, [r3, #4]!
	for (i = 0; i <= MAX_SERVICE_ID; i++)
 8006b48:	4293      	cmp	r3, r2
 8006b4a:	d1fb      	bne.n	8006b44 <initServiceTable+0x8>
	}

	/* adds service table pointer to protocol structure */
	protocol->pServiceTable = (void*)serviceTable;
 8006b4c:	4b03      	ldr	r3, [pc, #12]	@ (8006b5c <initServiceTable+0x20>)
 8006b4e:	6103      	str	r3, [r0, #16]
}
 8006b50:	4770      	bx	lr
 8006b52:	bf00      	nop
 8006b54:	20008200 	.word	0x20008200
 8006b58:	08006441 	.word	0x08006441
 8006b5c:	20008204 	.word	0x20008204

08006b60 <addCoreServices>:

/*
 * Adds core services to service table.
 */
void addCoreServices(tProtocol* protocol)
{
 8006b60:	b410      	push	{r4}
	tSERVICEFunction* svTable = (tSERVICEFunction*)protocol->pServiceTable;
 8006b62:	6903      	ldr	r3, [r0, #16]
	svTable[SV_ID_SVDEVICEINFO] = getDeviceInfo;
 8006b64:	4c09      	ldr	r4, [pc, #36]	@ (8006b8c <addCoreServices+0x2c>)
	svTable[SV_ID_GETTARGETSTATE] = getTargetState;
 8006b66:	480a      	ldr	r0, [pc, #40]	@ (8006b90 <addCoreServices+0x30>)
	svTable[SV_ID_SETTARGETSTATE] = setTargetState;
 8006b68:	490a      	ldr	r1, [pc, #40]	@ (8006b94 <addCoreServices+0x34>)
	svTable[SV_ID_SVSAVEPARAM] = saveParameter;
 8006b6a:	4a0b      	ldr	r2, [pc, #44]	@ (8006b98 <addCoreServices+0x38>)
	svTable[SV_ID_SETTARGETSTATE] = setTargetState;
 8006b6c:	6099      	str	r1, [r3, #8]
	svTable[SV_ID_GETTARGETSTATE] = getTargetState;
 8006b6e:	e9c3 4000 	strd	r4, r0, [r3]
	svTable[SV_ID_SVLOADPARAM] = loadParameter;
	svTable[SV_ID_LOAD_IO_PARAM] = loadIoBlockData;
	svTable[SV_ID_SAVEMASKPARAM] = saveMaskParameter;
 8006b72:	490a      	ldr	r1, [pc, #40]	@ (8006b9c <addCoreServices+0x3c>)
	svTable[SV_ID_LOAD_IO_PARAM] = loadIoBlockData;
 8006b74:	480a      	ldr	r0, [pc, #40]	@ (8006ba0 <addCoreServices+0x40>)
	svTable[SV_ID_SVLOADPARAM] = loadParameter;
 8006b76:	4c0b      	ldr	r4, [pc, #44]	@ (8006ba4 <addCoreServices+0x44>)
	svTable[SV_ID_SVSAVEPARAM] = saveParameter;
 8006b78:	649a      	str	r2, [r3, #72]	@ 0x48
	svTable[SV_ID_LOADMASKPARAM] = loadMaskParameter;
 8006b7a:	4a0b      	ldr	r2, [pc, #44]	@ (8006ba8 <addCoreServices+0x48>)
	svTable[SV_ID_SVLOADPARAM] = loadParameter;
 8006b7c:	645c      	str	r4, [r3, #68]	@ 0x44
	svTable[SV_ID_SAVEMASKPARAM] = saveMaskParameter;
 8006b7e:	e9c3 0113 	strd	r0, r1, [r3, #76]	@ 0x4c
}
 8006b82:	f85d 4b04 	ldr.w	r4, [sp], #4
	svTable[SV_ID_LOADMASKPARAM] = loadMaskParameter;
 8006b86:	655a      	str	r2, [r3, #84]	@ 0x54
}
 8006b88:	4770      	bx	lr
 8006b8a:	bf00      	nop
 8006b8c:	08006985 	.word	0x08006985
 8006b90:	080064b5 	.word	0x080064b5
 8006b94:	08006455 	.word	0x08006455
 8006b98:	0800683d 	.word	0x0800683d
 8006b9c:	08006581 	.word	0x08006581
 8006ba0:	08006625 	.word	0x08006625
 8006ba4:	08006761 	.word	0x08006761
 8006ba8:	080064d5 	.word	0x080064d5

08006bac <initTableStruct>:
/* init tablestruct */
void initTableStruct(void)
{
	uint8 i;

	TableStruct->TParamTable = (tParameterTable*)0;
 8006bac:	4b09      	ldr	r3, [pc, #36]	@ (8006bd4 <initTableStruct+0x28>)
 8006bae:	681b      	ldr	r3, [r3, #0]
 8006bb0:	2200      	movs	r2, #0
 8006bb2:	601a      	str	r2, [r3, #0]
	TableStruct->TFncTable = (tBlockFunctions*)0;
 8006bb4:	605a      	str	r2, [r3, #4]
	TableStruct->TLimitSaveFncTable = (tLimitSaveFunctionTable*)0;
 8006bb6:	609a      	str	r2, [r3, #8]

	TableStruct->DSPState = BOOTLOADER_STATE;
 8006bb8:	731a      	strb	r2, [r3, #12]
	TableStruct->eventType = (uint16)0x0000;
 8006bba:	81da      	strh	r2, [r3, #14]
	TableStruct->eventId = (uint32)0x00000000;
 8006bbc:	611a      	str	r2, [r3, #16]

	TableStruct->protocolCount = (uint16)0;
 8006bbe:	829a      	strh	r2, [r3, #20]
	for (i = 0; i < MAX_PROTOCOLS; i++)
	{
		TableStruct->protocols[i] = (tProtocol*)0;
 8006bc0:	619a      	str	r2, [r3, #24]
 8006bc2:	61da      	str	r2, [r3, #28]
	}

	TableStruct->framePrgVersion = (uint16)0x0000;
 8006bc4:	841a      	strh	r2, [r3, #32]
	TableStruct->framePrgCompDateTime = (uint8*)0;
 8006bc6:	625a      	str	r2, [r3, #36]	@ 0x24

	TableStruct->piScope = (SCOPE_MAIN*)0;
 8006bc8:	629a      	str	r2, [r3, #40]	@ 0x28
	TableStruct->dynamicCodeData = (tDynamicCodeData*)0;
 8006bca:	62da      	str	r2, [r3, #44]	@ 0x2c

	TableStruct->inportParamTable = (tIoParamIdEntry*)0;
 8006bcc:	631a      	str	r2, [r3, #48]	@ 0x30
	TableStruct->outportParamTable = (tIoParamIdEntry*)0;
 8006bce:	635a      	str	r2, [r3, #52]	@ 0x34
	TableStruct->maskParameterTable = (tMaskParameterEntry*)0;
 8006bd0:	639a      	str	r2, [r3, #56]	@ 0x38
}
 8006bd2:	4770      	bx	lr
 8006bd4:	20000024 	.word	0x20000024

08006bd8 <addTableStructProtocol>:


/* add tProtocol to TableStruct */
void addTableStructProtocol(tProtocol* linkProtocol)
{
	if (TableStruct->protocolCount < MAX_PROTOCOLS)
 8006bd8:	4b07      	ldr	r3, [pc, #28]	@ (8006bf8 <addTableStructProtocol+0x20>)
 8006bda:	681a      	ldr	r2, [r3, #0]
 8006bdc:	8a93      	ldrh	r3, [r2, #20]
 8006bde:	b29b      	uxth	r3, r3
 8006be0:	2b01      	cmp	r3, #1
 8006be2:	d807      	bhi.n	8006bf4 <addTableStructProtocol+0x1c>
	{
		TableStruct->protocols[TableStruct->protocolCount++] = linkProtocol;
 8006be4:	8a93      	ldrh	r3, [r2, #20]
 8006be6:	b29b      	uxth	r3, r3
 8006be8:	1c59      	adds	r1, r3, #1
 8006bea:	3306      	adds	r3, #6
 8006bec:	b289      	uxth	r1, r1
 8006bee:	8291      	strh	r1, [r2, #20]
 8006bf0:	f842 0023 	str.w	r0, [r2, r3, lsl #2]
	}
}
 8006bf4:	4770      	bx	lr
 8006bf6:	bf00      	nop
 8006bf8:	20000024 	.word	0x20000024

08006bfc <initVersionInfo>:
} compilationDate = { __DATE__, __TIME__ };

void initVersionInfo(volatile tTableStruct* tblStruct, uint16 appVersion)
{
	tblStruct->framePrgVersion = appVersion;
	tblStruct->framePrgCompDateTime = (uint8*)&compilationDate;
 8006bfc:	4b01      	ldr	r3, [pc, #4]	@ (8006c04 <initVersionInfo+0x8>)
	tblStruct->framePrgVersion = appVersion;
 8006bfe:	8401      	strh	r1, [r0, #32]
	tblStruct->framePrgCompDateTime = (uint8*)&compilationDate;
 8006c00:	6243      	str	r3, [r0, #36]	@ 0x24
}
 8006c02:	4770      	bx	lr
 8006c04:	080080cc 	.word	0x080080cc

08006c08 <initRamTables>:
{
    uint16 i;

    for (i = 0; i < 1; i++)
    {
        RamTable_float32[i] = RamTable_float32_init[i];
 8006c08:	4b01      	ldr	r3, [pc, #4]	@ (8006c10 <initRamTables+0x8>)
 8006c0a:	2200      	movs	r2, #0
 8006c0c:	601a      	str	r2, [r3, #0]
    }
}
 8006c0e:	4770      	bx	lr
 8006c10:	20008270 	.word	0x20008270

08006c14 <X2C_Init>:

/**********************************************************************************************************************/
/**                                                  Initialization                                                  **/
/**********************************************************************************************************************/
void X2C_Init(void)
{
 8006c14:	b5f8      	push	{r3, r4, r5, r6, r7, lr}
    /* Block: And                                                                                                     */

    /* Block: AutoSwitch                                                                                              */
    /* Thresh_up = 0.01                                                                                               */
    /* Thresh_down = -0.01                                                                                            */
    x2cModel.blocks.bAutoSwitch.Thresh_up = 0.01;
 8006c16:	4cee      	ldr	r4, [pc, #952]	@ (8006fd0 <X2C_Init+0x3bc>)
    /* Block: CurrentPI_D                                                                                             */
    /* Kp = 8.05815552317738                                                                                          */
    /* Ki = 5562.155714954871                                                                                         */
    /* ts_fact = 1.0                                                                                                  */
    x2cModel.blocks.bCurrentPI_D.b0 = 0.27810778574774353;
    x2cModel.blocks.bCurrentPI_D.b1 = 8.05815552317738;
 8006c18:	49ee      	ldr	r1, [pc, #952]	@ (8006fd4 <X2C_Init+0x3c0>)
    x2cModel.blocks.bCurrentPI_D.b0 = 0.27810778574774353;
 8006c1a:	4bef      	ldr	r3, [pc, #956]	@ (8006fd8 <X2C_Init+0x3c4>)
    x2cModel.blocks.bCurrentPI_D.b1 = 8.05815552317738;
 8006c1c:	f8c4 1088 	str.w	r1, [r4, #136]	@ 0x88
    /* Block: CurrentPI_Q                                                                                             */
    /* Kp = 8.05815552317738                                                                                          */
    /* Ki = 5562.155714954871                                                                                         */
    /* ts_fact = 1.0                                                                                                  */
    x2cModel.blocks.bCurrentPI_Q.b0 = 0.27810778574774353;
    x2cModel.blocks.bCurrentPI_Q.b1 = 8.05815552317738;
 8006c20:	f8c4 10b4 	str.w	r1, [r4, #180]	@ 0xb4
    /* Toggle = 1.0                                                                                                   */
    x2cModel.blocks.bManualSwitch4.Toggle = 1;

    /* Block: Max                                                                                                     */
    /* Value = 19.106019993708788                                                                                     */
    x2cModel.blocks.bMax.K = 19.106019993708788;
 8006c24:	49ed      	ldr	r1, [pc, #948]	@ (8006fdc <X2C_Init+0x3c8>)
    x2cModel.blocks.bCurrentPI_D.b0 = 0.27810778574774353;
 8006c26:	f8c4 3084 	str.w	r3, [r4, #132]	@ 0x84
    x2cModel.blocks.bCurrentPI_Q.b0 = 0.27810778574774353;
 8006c2a:	f8c4 30b0 	str.w	r3, [r4, #176]	@ 0xb0
    x2cModel.blocks.bMax.K = 19.106019993708788;
 8006c2e:	f8c4 116c 	str.w	r1, [r4, #364]	@ 0x16c
    x2cModel.blocks.bEna2.K = 1;
 8006c32:	2301      	movs	r3, #1

    /* Block: Min                                                                                                     */
    /* Value = -19.106019993708788                                                                                    */
    x2cModel.blocks.bMin.K = -19.106019993708788;
 8006c34:	49ea      	ldr	r1, [pc, #936]	@ (8006fe0 <X2C_Init+0x3cc>)
    x2cModel.blocks.bEna2.K = 1;
 8006c36:	f884 30c3 	strb.w	r3, [r4, #195]	@ 0xc3
    x2cModel.blocks.bEna4.K = 1;
 8006c3a:	f884 30cb 	strb.w	r3, [r4, #203]	@ 0xcb
    x2cModel.blocks.bEna6.K = 1;
 8006c3e:	f884 30d3 	strb.w	r3, [r4, #211]	@ 0xd3
    x2cModel.blocks.bEnable.K = 1;
 8006c42:	f884 30d7 	strb.w	r3, [r4, #215]	@ 0xd7
    x2cModel.blocks.bManualSwitch1.Toggle = 1;
 8006c46:	f884 3129 	strb.w	r3, [r4, #297]	@ 0x129
    x2cModel.blocks.bManualSwitch4.Toggle = 1;
 8006c4a:	f884 3161 	strb.w	r3, [r4, #353]	@ 0x161
    x2cModel.blocks.bMin.K = -19.106019993708788;
 8006c4e:	f8c4 1178 	str.w	r1, [r4, #376]	@ 0x178
    /* characteristic = Chebyshev II                                                                                  */
    /* fc = 200.0                                                                                                     */
    /* rp = 1.0                                                                                                       */
    /* rs = 20.0                                                                                                      */
    /* ts_fact = 20.0                                                                                                 */
    x2cModel.blocks.bOmegaFilter.b0 = 0.1333590867787395;
 8006c52:	4be4      	ldr	r3, [pc, #912]	@ (8006fe4 <X2C_Init+0x3d0>)
    x2cModel.blocks.bOmegaFilter.b1 = 0.00723037956876145;
    x2cModel.blocks.bOmegaFilter.b2 = 0.1333590867787395;
    x2cModel.blocks.bOmegaFilter.a1 = -1.160464693380468;
    x2cModel.blocks.bOmegaFilter.a2 = 0.43441324650670854;
 8006c54:	49e4      	ldr	r1, [pc, #912]	@ (8006fe8 <X2C_Init+0x3d4>)
    /* Block: PulseGenSin                                                                                             */
    /* fmax = 1000.0                                                                                                  */
    /* Offset = 0.0                                                                                                   */
    /* Phase = 0.0                                                                                                    */
    /* ts_fact = 20.0                                                                                                 */
    x2cModel.blocks.bPulseGenSin.delta_phi = 0.00628318530717959;
 8006c56:	eddf 5ae5 	vldr	s11, [pc, #916]	@ 8006fec <X2C_Init+0x3d8>
    /* fc = 10.0                                                                                                      */
    /* rp = 1.0                                                                                                       */
    /* rs = 20.0                                                                                                      */
    /* ts_fact = 1.0                                                                                                  */
    x2cModel.blocks.bVdcFilter.b0 = 0.09990628464676408;
    x2cModel.blocks.bVdcFilter.b1 = -0.1998105972290027;
 8006c5a:	ed9f 6ae5 	vldr	s12, [pc, #916]	@ 8006ff0 <X2C_Init+0x3dc>
    x2cModel.blocks.bVdcFilter.b2 = 0.09990628464676408;
    x2cModel.blocks.bVdcFilter.a1 = -1.9981148465803924;
 8006c5e:	eddf 6ae5 	vldr	s13, [pc, #916]	@ 8006ff4 <X2C_Init+0x3e0>
    x2cModel.blocks.bVdcFilter.a2 = 0.9981168186449179;
 8006c62:	ed9f 7ae5 	vldr	s14, [pc, #916]	@ 8006ff8 <X2C_Init+0x3e4>
    x2cModel.blocks.bVdcFilter.out_veryold = 0;

    /* Block: VdcSaturation                                                                                           */
    /* max = 60.0                                                                                                     */
    /* min = 10.0                                                                                                     */
    x2cModel.blocks.bVdcSaturation.max = 60;
 8006c66:	eddf 7ae5 	vldr	s15, [pc, #916]	@ 8006ffc <X2C_Init+0x3e8>
    x2cModel.blocks.bAutoSwitch.Thresh_down = -0.01;
 8006c6a:	48e5      	ldr	r0, [pc, #916]	@ (8007000 <X2C_Init+0x3ec>)
    x2cModel.blocks.bOmegaFilter.b0 = 0.1333590867787395;
 8006c6c:	f8c4 31c8 	str.w	r3, [r4, #456]	@ 0x1c8
    x2cModel.blocks.bOmegaFilter.b2 = 0.1333590867787395;
 8006c70:	f8c4 31d0 	str.w	r3, [r4, #464]	@ 0x1d0
    x2cModel.blocks.bOmegaFilter.a2 = 0.43441324650670854;
 8006c74:	f8c4 11d8 	str.w	r1, [r4, #472]	@ 0x1d8
    x2cModel.blocks.bOmegaFilter.a1 = -1.160464693380468;
 8006c78:	4be2      	ldr	r3, [pc, #904]	@ (8007004 <X2C_Init+0x3f0>)
    x2cModel.blocks.bOmegaFilter.b1 = 0.00723037956876145;
 8006c7a:	49e3      	ldr	r1, [pc, #908]	@ (8007008 <X2C_Init+0x3f4>)

    /* Block: VectorNormLimit                                                                                         */

    /* Block: Vphase                                                                                                  */
    /* Gain = 0.5773502691896258                                                                                      */
    x2cModel.blocks.bVphase.V = 0.5773502691896258;
 8006c7c:	f8df e39c 	ldr.w	lr, [pc, #924]	@ 800701c <X2C_Init+0x408>
    x2cModel.blocks.bpp.V = 0;

    /* Block: uI1                                                                                                     */
    /* Ki = 1.0                                                                                                       */
    /* ts_fact = 1.0                                                                                                  */
    x2cModel.blocks.buI1.b0 = 0.00005;
 8006c80:	f8df c39c 	ldr.w	ip, [pc, #924]	@ 8007020 <X2C_Init+0x40c>
    x2cModel.blocks.bAutoSwitch.Thresh_up = 0.01;
 8006c84:	4ae1      	ldr	r2, [pc, #900]	@ (800700c <X2C_Init+0x3f8>)
    x2cModel.blocks.bAutoSwitch.Thresh_down = -0.01;
 8006c86:	63a0      	str	r0, [r4, #56]	@ 0x38
    x2cModel.blocks.bConst6.K = 0;
 8006c88:	2500      	movs	r5, #0
    x2cModel.blocks.bCurrentPI_D.enable_old = 0;
 8006c8a:	2600      	movs	r6, #0
    x2cModel.blocks.bVdcFilter.b0 = 0.09990628464676408;
 8006c8c:	48e0      	ldr	r0, [pc, #896]	@ (8007010 <X2C_Init+0x3fc>)
    x2cModel.blocks.bOmegaFilter.a1 = -1.160464693380468;
 8006c8e:	f8c4 31d4 	str.w	r3, [r4, #468]	@ 0x1d4
    x2cModel.blocks.bOmegaFilter.b1 = 0.00723037956876145;
 8006c92:	f8c4 11cc 	str.w	r1, [r4, #460]	@ 0x1cc
    x2cModel.blocks.bPulseGenConst1.K = 1;
 8006c96:	f04f 537e 	mov.w	r3, #1065353216	@ 0x3f800000
    x2cModel.blocks.bPulseGenFreq.K = 10;
 8006c9a:	49de      	ldr	r1, [pc, #888]	@ (8007014 <X2C_Init+0x400>)
    x2cModel.blocks.bAutoSwitch.Status = &RamTable_float32[0];
 8006c9c:	4fde      	ldr	r7, [pc, #888]	@ (8007018 <X2C_Init+0x404>)
    x2cModel.blocks.bAutoSwitch.Thresh_up = 0.01;
 8006c9e:	6362      	str	r2, [r4, #52]	@ 0x34
    x2cModel.blocks.bConst6.K = 0;
 8006ca0:	6665      	str	r5, [r4, #100]	@ 0x64
    x2cModel.blocks.bCurrentPI_D.i_old = 0;
 8006ca2:	f8c4 508c 	str.w	r5, [r4, #140]	@ 0x8c
    x2cModel.blocks.bCurrentPI_Q.i_old = 0;
 8006ca6:	f8c4 50b8 	str.w	r5, [r4, #184]	@ 0xb8
    x2cModel.blocks.bInit.K = 0;
 8006caa:	f8c4 50e0 	str.w	r5, [r4, #224]	@ 0xe0
    x2cModel.blocks.bInitCurr.K = 0;
 8006cae:	f8c4 50ec 	str.w	r5, [r4, #236]	@ 0xec
    x2cModel.blocks.bCurrentPI_D.enable_old = 0;
 8006cb2:	f884 6090 	strb.w	r6, [r4, #144]	@ 0x90
    x2cModel.blocks.bCurrentPI_Q.enable_old = 0;
 8006cb6:	f884 60bc 	strb.w	r6, [r4, #188]	@ 0xbc
    x2cModel.blocks.bEna3.K = 0;
 8006cba:	f884 60c7 	strb.w	r6, [r4, #199]	@ 0xc7
    x2cModel.blocks.bEna5.K = 0;
 8006cbe:	f884 60cf 	strb.w	r6, [r4, #207]	@ 0xcf
    x2cModel.blocks.bManualSwitch.Toggle = 0;
 8006cc2:	f884 6118 	strb.w	r6, [r4, #280]	@ 0x118
    x2cModel.blocks.bManualSwitch2.Toggle = 0;
 8006cc6:	f884 613c 	strb.w	r6, [r4, #316]	@ 0x13c
    x2cModel.blocks.bManualSwitch3.Toggle = 0;
 8006cca:	f884 6150 	strb.w	r6, [r4, #336]	@ 0x150
    x2cModel.blocks.bPulseGenSin.delta_phi = 0.00628318530717959;
 8006cce:	edc4 5a97 	vstr	s11, [r4, #604]	@ 0x25c
    x2cModel.blocks.bVdcFilter.b1 = -0.1998105972290027;
 8006cd2:	ed84 6acb 	vstr	s12, [r4, #812]	@ 0x32c
    x2cModel.blocks.bVdcFilter.a1 = -1.9981148465803924;
 8006cd6:	edc4 6acd 	vstr	s13, [r4, #820]	@ 0x334
    x2cModel.blocks.bVdcFilter.a2 = 0.9981168186449179;
 8006cda:	ed84 7ace 	vstr	s14, [r4, #824]	@ 0x338
    x2cModel.blocks.bVdcSaturation.max = 60;
 8006cde:	edc4 7ad6 	vstr	s15, [r4, #856]	@ 0x358
    x2cModel.blocks.bPulseGenConst1.K = 1;
 8006ce2:	f8c4 3204 	str.w	r3, [r4, #516]	@ 0x204
    x2cModel.blocks.bPulseGenFreq.K = 10;
 8006ce6:	f8c4 121c 	str.w	r1, [r4, #540]	@ 0x21c
    x2cModel.blocks.bPulseGenHi.K = 1;
 8006cea:	f8c4 3228 	str.w	r3, [r4, #552]	@ 0x228
    x2cModel.blocks.bRateLimiter.RateUp = 0.01;
 8006cee:	f8c4 2280 	str.w	r2, [r4, #640]	@ 0x280
    x2cModel.blocks.bRateLimiter.RateDown = 0.01;
 8006cf2:	f8c4 2284 	str.w	r2, [r4, #644]	@ 0x284
    x2cModel.blocks.bVdcFilter.b0 = 0.09990628464676408;
 8006cf6:	f8c4 0328 	str.w	r0, [r4, #808]	@ 0x328
    x2cModel.blocks.bVdcFilter.b2 = 0.09990628464676408;
 8006cfa:	f8c4 0330 	str.w	r0, [r4, #816]	@ 0x330
    x2cModel.blocks.bOmegaFilter.in_old = 0;
 8006cfe:	f8c4 51dc 	str.w	r5, [r4, #476]	@ 0x1dc
    x2cModel.blocks.bOmegaFilter.in_veryold = 0;
 8006d02:	f8c4 51e0 	str.w	r5, [r4, #480]	@ 0x1e0
    x2cModel.blocks.bOmegaFilter.out_old = 0;
 8006d06:	f8c4 51e4 	str.w	r5, [r4, #484]	@ 0x1e4
    x2cModel.blocks.bOmegaFilter.out_veryold = 0;
 8006d0a:	f8c4 51e8 	str.w	r5, [r4, #488]	@ 0x1e8
    x2cModel.blocks.bPulseGenDCVal.K = 0;
 8006d0e:	f8c4 5210 	str.w	r5, [r4, #528]	@ 0x210
    x2cModel.blocks.bPulseGenLo.K = 0;
 8006d12:	f8c4 5234 	str.w	r5, [r4, #564]	@ 0x234
    x2cModel.blocks.bPulseGenSin.phase = 0;
 8006d16:	f8c4 5260 	str.w	r5, [r4, #608]	@ 0x260
    x2cModel.blocks.bPulseGenSin.offset = 0;
 8006d1a:	f8c4 5264 	str.w	r5, [r4, #612]	@ 0x264
    x2cModel.blocks.bPulseGenSin.phi = 0;
 8006d1e:	f8c4 5268 	str.w	r5, [r4, #616]	@ 0x268
    x2cModel.blocks.bSkluzovaOme.K = 0;
 8006d22:	f8c4 5294 	str.w	r5, [r4, #660]	@ 0x294
    x2cModel.blocks.bSkluzovaOme1.K = 0;
 8006d26:	f8c4 52a0 	str.w	r5, [r4, #672]	@ 0x2a0
    x2cModel.blocks.bSkluzovaOme2.K = 0;
 8006d2a:	f8c4 52ac 	str.w	r5, [r4, #684]	@ 0x2ac
    x2cModel.blocks.bSkluzovaOme3.K = 0;
 8006d2e:	f8c4 52b8 	str.w	r5, [r4, #696]	@ 0x2b8
    x2cModel.blocks.bVdcFilter.in_old = 0;
 8006d32:	f8c4 533c 	str.w	r5, [r4, #828]	@ 0x33c
    x2cModel.blocks.bVdcFilter.in_veryold = 0;
 8006d36:	f8c4 5340 	str.w	r5, [r4, #832]	@ 0x340
    x2cModel.blocks.bAutoSwitch.Status = &RamTable_float32[0];
 8006d3a:	63e7      	str	r7, [r4, #60]	@ 0x3c
    x2cModel.blocks.bPulseGenOutput.Toggle = 0;
 8006d3c:	f884 6248 	strb.w	r6, [r4, #584]	@ 0x248
    x2cModel.blocks.bRateLimiter.enable_old = 0;
 8006d40:	f884 6288 	strb.w	r6, [r4, #648]	@ 0x288
    x2cModel.blocks.bSpaceVectorMod.method = 0;
 8006d44:	f884 62ec 	strb.w	r6, [r4, #748]	@ 0x2ec
    x2cModel.blocks.bTFlipFlop.toggle_old = 0;
 8006d48:	f884 631a 	strb.w	r6, [r4, #794]	@ 0x31a
    x2cModel.blocks.bVdcFilter.out_old = 0;
 8006d4c:	f8c4 5344 	str.w	r5, [r4, #836]	@ 0x344
    x2cModel.blocks.bVphase.V = 0.5773502691896258;
 8006d50:	f8c4 e390 	str.w	lr, [r4, #912]	@ 0x390
    x2cModel.blocks.buI1.b0 = 0.00005;
 8006d54:	f8c4 c3b8 	str.w	ip, [r4, #952]	@ 0x3b8
    x2cModel.blocks.bVdcFilter.out_veryold = 0;
 8006d58:	f8c4 5348 	str.w	r5, [r4, #840]	@ 0x348
    x2cModel.blocks.bVdcSaturation.min = 10;
 8006d5c:	f8c4 135c 	str.w	r1, [r4, #860]	@ 0x35c
    x2cModel.blocks.bVectorLimit.K = 1;
 8006d60:	f8c4 3368 	str.w	r3, [r4, #872]	@ 0x368
    x2cModel.blocks.bpp.V = 0;
 8006d64:	f8c4 53a0 	str.w	r5, [r4, #928]	@ 0x3a0
    x2cModel.blocks.buI1.i_old = 0;
 8006d68:	f8c4 53bc 	str.w	r5, [r4, #956]	@ 0x3bc
    x2cModel.blocks.buI1.enable_old = 0;
 8006d6c:	f884 63c0 	strb.w	r6, [r4, #960]	@ 0x3c0


    /* Initialize RAM table content */
    initRamTables();
 8006d70:	f7ff ff4a 	bl	8006c08 <initRamTables>
    /******************************************************************************************************************/
    /**                                              Initialize Inports                                              **/
    /******************************************************************************************************************/
    x2cModel.inports.bInButton = false;
    x2cModel.inports.bInEnable = false;
    x2cModel.inports.bInIa = (float32)0;
 8006d74:	f8c4 53c8 	str.w	r5, [r4, #968]	@ 0x3c8
    x2cModel.inports.bInIb = (float32)0;
 8006d78:	f8c4 53cc 	str.w	r5, [r4, #972]	@ 0x3cc
    x2cModel.inports.bInIc = (float32)0;
 8006d7c:	f8c4 53d0 	str.w	r5, [r4, #976]	@ 0x3d0
    x2cModel.inports.bInPosition1 = (float32)0;
 8006d80:	f8c4 53d4 	str.w	r5, [r4, #980]	@ 0x3d4
    x2cModel.inports.bInPosition2 = (float32)0;
 8006d84:	f8c4 53d8 	str.w	r5, [r4, #984]	@ 0x3d8
    x2cModel.inports.bInPwmFault = false;
    x2cModel.inports.bInVdc = (float32)0;
 8006d88:	f8c4 53e0 	str.w	r5, [r4, #992]	@ 0x3e0
    x2cModel.inports.bInVelocity1_radps = (float32)0;
 8006d8c:	f8c4 53e4 	str.w	r5, [r4, #996]	@ 0x3e4
    x2cModel.inports.bInVelocity1_rpm = (float32)0;
 8006d90:	f8c4 53e8 	str.w	r5, [r4, #1000]	@ 0x3e8
        &x2cModel.inports.bInIa;
    x2cModel.blocks.bAdd.In2 =
        &x2cModel.inports.bInIc;

    /* Block And                                                                                                      */
    x2cModel.blocks.bAnd.In1 =
 8006d94:	f504 75fc 	add.w	r5, r4, #504	@ 0x1f8
 8006d98:	6165      	str	r5, [r4, #20]
        &x2cModel.blocks.bOr.Out;
    x2cModel.blocks.bAnd.In2 =
 8006d9a:	f104 05d6 	add.w	r5, r4, #214	@ 0xd6
 8006d9e:	61a5      	str	r5, [r4, #24]
        &x2cModel.blocks.bEnable.Out;

    /* Block AutoSwitch                                                                                               */
    x2cModel.blocks.bAutoSwitch.In1 =
 8006da0:	f504 7509 	add.w	r5, r4, #548	@ 0x224
    x2cModel.blocks.bAdd.In1 =
 8006da4:	f504 7372 	add.w	r3, r4, #968	@ 0x3c8
    x2cModel.blocks.bAutoSwitch.In1 =
 8006da8:	6265      	str	r5, [r4, #36]	@ 0x24
        &x2cModel.blocks.bPulseGenHi.Out;
    x2cModel.blocks.bAutoSwitch.Switch =
 8006daa:	f504 7516 	add.w	r5, r4, #600	@ 0x258
    x2cModel.blocks.bAdd.In1 =
 8006dae:	6063      	str	r3, [r4, #4]
        &x2cModel.blocks.bPulseGenSin.u;
    x2cModel.blocks.bAutoSwitch.In3 =
        &x2cModel.blocks.bPulseGenLo.Out;

    /* Block ClarkeNPark                                                                                              */
    x2cModel.blocks.bClarkeNPark.A =
 8006db0:	6463      	str	r3, [r4, #68]	@ 0x44
    x2cModel.blocks.bAutoSwitch.Switch =
 8006db2:	62a5      	str	r5, [r4, #40]	@ 0x28
        &x2cModel.inports.bInIa;
    x2cModel.blocks.bClarkeNPark.B =
 8006db4:	f504 73c2 	add.w	r3, r4, #388	@ 0x184
    x2cModel.blocks.bAutoSwitch.In3 =
 8006db8:	f504 750c 	add.w	r5, r4, #560	@ 0x230
    x2cModel.blocks.bClarkeNPark.B =
 8006dbc:	64a3      	str	r3, [r4, #72]	@ 0x48
    x2cModel.blocks.bAutoSwitch.In3 =
 8006dbe:	62e5      	str	r5, [r4, #44]	@ 0x2c
    /* Block Const6                                                                                                   */

    /* Block CurrentPI_D                                                                                              */
    x2cModel.blocks.bCurrentPI_D.In =
        &x2cModel.blocks.bSub.Out;
    x2cModel.blocks.bCurrentPI_D.Init =
 8006dc0:	f104 03e8 	add.w	r3, r4, #232	@ 0xe8
        &x2cModel.blocks.bInitCurr.Out;
    x2cModel.blocks.bCurrentPI_D.max =
        &x2cModel.blocks.bMax.Out;
    x2cModel.blocks.bCurrentPI_D.min =
        &x2cModel.blocks.bMin.Out;
    x2cModel.blocks.bCurrentPI_D.Enable =
 8006dc4:	f504 7594 	add.w	r5, r4, #296	@ 0x128
    x2cModel.blocks.bCurrentPI_D.Init =
 8006dc8:	6723      	str	r3, [r4, #112]	@ 0x70
        &x2cModel.blocks.bManualSwitch1.Out;

    /* Block CurrentPI_Q                                                                                              */
    x2cModel.blocks.bCurrentPI_Q.In =
        &x2cModel.blocks.bSub1.Out;
    x2cModel.blocks.bCurrentPI_Q.Init =
 8006dca:	f8c4 309c 	str.w	r3, [r4, #156]	@ 0x9c
    x2cModel.blocks.bCurrentPI_D.Enable =
 8006dce:	67e5      	str	r5, [r4, #124]	@ 0x7c
        &x2cModel.blocks.bInitCurr.Out;
    x2cModel.blocks.bCurrentPI_Q.max =
        &x2cModel.blocks.bMax.Out;
    x2cModel.blocks.bCurrentPI_Q.min =
        &x2cModel.blocks.bMin.Out;
    x2cModel.blocks.bCurrentPI_Q.Enable =
 8006dd0:	f504 73b0 	add.w	r3, r4, #352	@ 0x160
    x2cModel.blocks.bCurrentPI_Q.In =
 8006dd4:	f504 7543 	add.w	r5, r4, #780	@ 0x30c
    x2cModel.blocks.bCurrentPI_D.In =
 8006dd8:	f504 713f 	add.w	r1, r4, #764	@ 0x2fc
    x2cModel.blocks.bCurrentPI_Q.Enable =
 8006ddc:	f8c4 30a8 	str.w	r3, [r4, #168]	@ 0xa8
    x2cModel.blocks.bCurrentPI_Q.In =
 8006de0:	f8c4 5098 	str.w	r5, [r4, #152]	@ 0x98
    x2cModel.blocks.bCurrentPI_D.max =
 8006de4:	f504 73b4 	add.w	r3, r4, #360	@ 0x168
    /* Block Init                                                                                                     */

    /* Block InitCurr                                                                                                 */

    /* Block InvPark                                                                                                  */
    x2cModel.blocks.bInvPark.d =
 8006de8:	f504 755f 	add.w	r5, r4, #892	@ 0x37c
    x2cModel.blocks.bAdd.In2 =
 8006dec:	f504 7274 	add.w	r2, r4, #976	@ 0x3d0
    x2cModel.blocks.bClarkeNPark.phi =
 8006df0:	f504 706d 	add.w	r0, r4, #948	@ 0x3b4
    x2cModel.blocks.bCurrentPI_D.In =
 8006df4:	66e1      	str	r1, [r4, #108]	@ 0x6c
    x2cModel.blocks.bCurrentPI_D.max =
 8006df6:	6763      	str	r3, [r4, #116]	@ 0x74
        &x2cModel.blocks.bEna4.Out;
    x2cModel.blocks.bManualSwitch1.In2 =
        &x2cModel.blocks.bEna3.Out;

    /* Block ManualSwitch2                                                                                            */
    x2cModel.blocks.bManualSwitch2.In1 =
 8006df8:	f504 7111 	add.w	r1, r4, #580	@ 0x244
    x2cModel.blocks.bCurrentPI_Q.max =
 8006dfc:	f8c4 30a0 	str.w	r3, [r4, #160]	@ 0xa0
    x2cModel.blocks.bInvPark.d =
 8006e00:	f8c4 50f4 	str.w	r5, [r4, #244]	@ 0xf4
    x2cModel.blocks.bCurrentPI_D.min =
 8006e04:	f504 73ba 	add.w	r3, r4, #372	@ 0x174
    x2cModel.blocks.bInvPark.q =
 8006e08:	f504 7560 	add.w	r5, r4, #896	@ 0x380
    x2cModel.blocks.bClarkeNPark.phi =
 8006e0c:	e9c4 2013 	strd	r2, r0, [r4, #76]	@ 0x4c
    x2cModel.blocks.bAdd.In2 =
 8006e10:	60a2      	str	r2, [r4, #8]
    x2cModel.blocks.bCurrentPI_D.min =
 8006e12:	67a3      	str	r3, [r4, #120]	@ 0x78
    x2cModel.blocks.bCurrentPI_Q.min =
 8006e14:	f8c4 30a4 	str.w	r3, [r4, #164]	@ 0xa4
    x2cModel.inports.bInButton = false;
 8006e18:	f8a4 63c4 	strh.w	r6, [r4, #964]	@ 0x3c4
    x2cModel.inports.bInPwmFault = false;
 8006e1c:	f884 63dc 	strb.w	r6, [r4, #988]	@ 0x3dc
    x2cModel.blocks.bInvPark.phi =
 8006e20:	e9c4 503e 	strd	r5, r0, [r4, #248]	@ 0xf8
    x2cModel.blocks.bManualSwitch2.In1 =
 8006e24:	f8c4 1130 	str.w	r1, [r4, #304]	@ 0x130
        &x2cModel.blocks.bPulseGenOutput.Out;
    x2cModel.blocks.bManualSwitch2.In2 =
        &x2cModel.blocks.bSkluzovaOme2.Out;

    /* Block ManualSwitch3                                                                                            */
    x2cModel.blocks.bManualSwitch3.In1 =
 8006e28:	f8c4 1144 	str.w	r1, [r4, #324]	@ 0x144
        &x2cModel.blocks.bPulseGenOutput.Out;
    x2cModel.blocks.bManualSwitch3.In2 =
 8006e2c:	f504 712d 	add.w	r1, r4, #692	@ 0x2b4
 8006e30:	f8c4 1148 	str.w	r1, [r4, #328]	@ 0x148
        &x2cModel.blocks.bSkluzovaOme3.Out;

    /* Block ManualSwitch4                                                                                            */
    x2cModel.blocks.bManualSwitch4.In1 =
 8006e34:	f104 01d2 	add.w	r1, r4, #210	@ 0xd2
 8006e38:	f8c4 1158 	str.w	r1, [r4, #344]	@ 0x158
        &x2cModel.blocks.bEna6.Out;
    x2cModel.blocks.bManualSwitch4.In2 =
 8006e3c:	f104 01ce 	add.w	r1, r4, #206	@ 0xce
 8006e40:	f8c4 115c 	str.w	r1, [r4, #348]	@ 0x15c
    /* Block Max                                                                                                      */

    /* Block Min                                                                                                      */

    /* Block Negation                                                                                                 */
    x2cModel.blocks.bNegation.In =
 8006e44:	f104 010c 	add.w	r1, r4, #12
 8006e48:	f8c4 1180 	str.w	r1, [r4, #384]	@ 0x180
        &x2cModel.blocks.bAdd.Out;

    /* Block Negation1                                                                                                */
    x2cModel.blocks.bNegation1.In =
 8006e4c:	f504 7175 	add.w	r1, r4, #980	@ 0x3d4
 8006e50:	f8c4 118c 	str.w	r1, [r4, #396]	@ 0x18c
        &x2cModel.inports.bInPosition1;

    /* Block Negation2                                                                                                */
    x2cModel.blocks.bNegation2.In =
 8006e54:	f504 7179 	add.w	r1, r4, #996	@ 0x3e4
 8006e58:	f8c4 1198 	str.w	r1, [r4, #408]	@ 0x198
        &x2cModel.inports.bInVelocity1_radps;

    /* Block Not                                                                                                      */
    x2cModel.blocks.bNot.In =
 8006e5c:	f504 7177 	add.w	r1, r4, #988	@ 0x3dc
 8006e60:	f8c4 11a4 	str.w	r1, [r4, #420]	@ 0x1a4
        &x2cModel.inports.bInPwmFault;

    /* Block Ome_s                                                                                                    */
    x2cModel.blocks.bOme_s.In1 =
 8006e64:	f504 718a 	add.w	r1, r4, #276	@ 0x114
 8006e68:	f8c4 11b0 	str.w	r1, [r4, #432]	@ 0x1b0
        &x2cModel.blocks.bManualSwitch.Out;
    x2cModel.blocks.bOme_s.In2 =
 8006e6c:	f504 7167 	add.w	r1, r4, #924	@ 0x39c
 8006e70:	f8c4 11b4 	str.w	r1, [r4, #436]	@ 0x1b4
        &x2cModel.blocks.bpp.Out;

    /* Block OmegaFilter                                                                                              */
    x2cModel.blocks.bOmegaFilter.In =
 8006e74:	f504 71ce 	add.w	r1, r4, #412	@ 0x19c
 8006e78:	f8c4 11c0 	str.w	r1, [r4, #448]	@ 0x1c0
        &x2cModel.blocks.bNegation2.Out;

    /* Block Or                                                                                                       */
    x2cModel.blocks.bOr.In1 =
 8006e7c:	f204 31c5 	addw	r1, r4, #965	@ 0x3c5
 8006e80:	f8c4 11f0 	str.w	r1, [r4, #496]	@ 0x1f0
        &x2cModel.inports.bInEnable;
    x2cModel.blocks.bOr.In2 =
 8006e84:	f504 71d4 	add.w	r1, r4, #424	@ 0x1a8
 8006e88:	f8c4 11f4 	str.w	r1, [r4, #500]	@ 0x1f4
    /* Block PulseGenHi                                                                                               */

    /* Block PulseGenLo                                                                                               */

    /* Block PulseGenOutput                                                                                           */
    x2cModel.blocks.bPulseGenOutput.In1 =
 8006e8c:	f104 0130 	add.w	r1, r4, #48	@ 0x30
 8006e90:	f8c4 123c 	str.w	r1, [r4, #572]	@ 0x23c
        &x2cModel.blocks.bAutoSwitch.Out;
    x2cModel.blocks.bPulseGenOutput.In2 =
 8006e94:	f504 711f 	add.w	r1, r4, #636	@ 0x27c
 8006e98:	f8c4 1240 	str.w	r1, [r4, #576]	@ 0x240
        &x2cModel.blocks.bRateLimiter.Out;

    /* Block PulseGenSin                                                                                              */
    x2cModel.blocks.bPulseGenSin.A =
 8006e9c:	f504 7100 	add.w	r1, r4, #512	@ 0x200
 8006ea0:	f8c4 1250 	str.w	r1, [r4, #592]	@ 0x250
        &x2cModel.blocks.bPulseGenConst1.Out;
    x2cModel.blocks.bPulseGenSin.f =
 8006ea4:	f504 7106 	add.w	r1, r4, #536	@ 0x218
 8006ea8:	f8c4 1254 	str.w	r1, [r4, #596]	@ 0x254
        &x2cModel.blocks.bPulseGenFreq.Out;

    /* Block RateLimiter                                                                                              */
    x2cModel.blocks.bRateLimiter.In =
 8006eac:	f504 7103 	add.w	r1, r4, #524	@ 0x20c
 8006eb0:	f8c4 1270 	str.w	r1, [r4, #624]	@ 0x270
        &x2cModel.blocks.bPulseGenDCVal.Out;
    x2cModel.blocks.bRateLimiter.Init =
 8006eb4:	f104 0160 	add.w	r1, r4, #96	@ 0x60
 8006eb8:	f8c4 1274 	str.w	r1, [r4, #628]	@ 0x274
        &x2cModel.blocks.bConst6.Out;
    x2cModel.blocks.bRateLimiter.Enable =
 8006ebc:	f104 01c2 	add.w	r1, r4, #194	@ 0xc2
 8006ec0:	f8c4 1278 	str.w	r1, [r4, #632]	@ 0x278
    /* Block SkluzovaOme2                                                                                             */

    /* Block SkluzovaOme3                                                                                             */

    /* Block SpaceVectorAdjust                                                                                        */
    x2cModel.blocks.bSpaceVectorAdjust.d =
 8006ec4:	f104 0180 	add.w	r1, r4, #128	@ 0x80
 8006ec8:	f8c4 12c0 	str.w	r1, [r4, #704]	@ 0x2c0
    x2cModel.blocks.bManualSwitch.In1 =
 8006ecc:	f504 7027 	add.w	r0, r4, #668	@ 0x29c
        &x2cModel.blocks.bCurrentPI_D.Out;
    x2cModel.blocks.bSpaceVectorAdjust.q =
 8006ed0:	f104 01ac 	add.w	r1, r4, #172	@ 0xac
 8006ed4:	f8c4 12c4 	str.w	r1, [r4, #708]	@ 0x2c4
    x2cModel.blocks.bManualSwitch.In1 =
 8006ed8:	f8c4 010c 	str.w	r0, [r4, #268]	@ 0x10c
        &x2cModel.blocks.bCurrentPI_Q.Out;
    x2cModel.blocks.bSpaceVectorAdjust.U_DClink =
 8006edc:	f504 7163 	add.w	r1, r4, #908	@ 0x38c
    x2cModel.blocks.bManualSwitch.In2 =
 8006ee0:	f504 7024 	add.w	r0, r4, #656	@ 0x290
    x2cModel.blocks.bSpaceVectorAdjust.U_DClink =
 8006ee4:	f8c4 12c8 	str.w	r1, [r4, #712]	@ 0x2c8
    x2cModel.blocks.bManualSwitch.In2 =
 8006ee8:	f8c4 0110 	str.w	r0, [r4, #272]	@ 0x110
        &x2cModel.blocks.bVphase.Out;

    /* Block SpaceVectorMod                                                                                           */
    x2cModel.blocks.bSpaceVectorMod.D =
 8006eec:	f504 7180 	add.w	r1, r4, #256	@ 0x100
    x2cModel.blocks.bManualSwitch1.In1 =
 8006ef0:	f104 00ca 	add.w	r0, r4, #202	@ 0xca
    x2cModel.blocks.bSpaceVectorMod.D =
 8006ef4:	f8c4 12d8 	str.w	r1, [r4, #728]	@ 0x2d8
    x2cModel.blocks.bManualSwitch1.In1 =
 8006ef8:	f8c4 0120 	str.w	r0, [r4, #288]	@ 0x120
        &x2cModel.blocks.bInvPark.D;
    x2cModel.blocks.bSpaceVectorMod.Q =
 8006efc:	f504 7182 	add.w	r1, r4, #260	@ 0x104
    x2cModel.blocks.bManualSwitch1.In2 =
 8006f00:	f104 00c6 	add.w	r0, r4, #198	@ 0xc6
    x2cModel.blocks.bSpaceVectorMod.Q =
 8006f04:	f8c4 12dc 	str.w	r1, [r4, #732]	@ 0x2dc
    x2cModel.blocks.bManualSwitch1.In2 =
 8006f08:	f8c4 0124 	str.w	r0, [r4, #292]	@ 0x124
        &x2cModel.blocks.bInvPark.Q;

    /* Block Sub                                                                                                      */
    x2cModel.blocks.bSub.Plus =
 8006f0c:	f504 719c 	add.w	r1, r4, #312	@ 0x138
    x2cModel.blocks.bManualSwitch2.In2 =
 8006f10:	f504 702a 	add.w	r0, r4, #680	@ 0x2a8
 8006f14:	f8c4 0134 	str.w	r0, [r4, #308]	@ 0x134
    x2cModel.blocks.bSub.Plus =
 8006f18:	f8c4 12f4 	str.w	r1, [r4, #756]	@ 0x2f4
        &x2cModel.blocks.bManualSwitch2.Out;
    x2cModel.blocks.bSub.Minus =
 8006f1c:	f104 0154 	add.w	r1, r4, #84	@ 0x54
 8006f20:	f8c4 12f8 	str.w	r1, [r4, #760]	@ 0x2f8
        &x2cModel.blocks.bClarkeNPark.d;

    /* Block Sub1                                                                                                     */
    x2cModel.blocks.bSub1.Plus =
 8006f24:	f504 71a6 	add.w	r1, r4, #332	@ 0x14c
 8006f28:	f8c4 1304 	str.w	r1, [r4, #772]	@ 0x304
        &x2cModel.blocks.bManualSwitch3.Out;
    x2cModel.blocks.bSub1.Minus =
 8006f2c:	f104 0158 	add.w	r1, r4, #88	@ 0x58
 8006f30:	f8c4 1308 	str.w	r1, [r4, #776]	@ 0x308
    /* Block TFlipFlop                                                                                                */
    x2cModel.blocks.bTFlipFlop.T =
        &x2cModel.inports.bInButton;

    /* Block VdcFilter                                                                                                */
    x2cModel.blocks.bVdcFilter.In =
 8006f34:	f504 7178 	add.w	r1, r4, #992	@ 0x3e0
 8006f38:	f8c4 1320 	str.w	r1, [r4, #800]	@ 0x320
        &x2cModel.inports.bInVdc;

    /* Block VdcSaturation                                                                                            */
    x2cModel.blocks.bVdcSaturation.In =
 8006f3c:	f504 7149 	add.w	r1, r4, #804	@ 0x324
 8006f40:	f8c4 1350 	str.w	r1, [r4, #848]	@ 0x350
        &x2cModel.blocks.bVdcFilter.Out;

    /* Block VectorLimit                                                                                              */

    /* Block VectorNormLimit                                                                                          */
    x2cModel.blocks.bVectorNormLimit.d =
 8006f44:	f504 7133 	add.w	r1, r4, #716	@ 0x2cc
 8006f48:	f8c4 1370 	str.w	r1, [r4, #880]	@ 0x370
        &x2cModel.blocks.bSpaceVectorAdjust.d_adj;
    x2cModel.blocks.bVectorNormLimit.q =
 8006f4c:	f504 7134 	add.w	r1, r4, #720	@ 0x2d0
 8006f50:	f8c4 1374 	str.w	r1, [r4, #884]	@ 0x374
        &x2cModel.blocks.bSpaceVectorAdjust.q_adj;
    x2cModel.blocks.bVectorNormLimit.Limit =
 8006f54:	f504 7159 	add.w	r1, r4, #868	@ 0x364
 8006f58:	f8c4 1378 	str.w	r1, [r4, #888]	@ 0x378
        &x2cModel.blocks.bVectorLimit.Out;

    /* Block Vphase                                                                                                   */
    x2cModel.blocks.bVphase.In =
 8006f5c:	f504 7155 	add.w	r1, r4, #852	@ 0x354
 8006f60:	f8c4 1388 	str.w	r1, [r4, #904]	@ 0x388
        &x2cModel.blocks.bVdcSaturation.Out;

    /* Block pp                                                                                                       */
    x2cModel.blocks.bpp.In =
 8006f64:	f504 71e2 	add.w	r1, r4, #452	@ 0x1c4
 8006f68:	f8c4 1398 	str.w	r1, [r4, #920]	@ 0x398
        &x2cModel.blocks.bOmegaFilter.Out;

    /* Block uI1                                                                                                      */
    x2cModel.blocks.buI1.In =
 8006f6c:	f504 71dc 	add.w	r1, r4, #440	@ 0x1b8
    x2cModel.blocks.bTFlipFlop.T =
 8006f70:	f504 7271 	add.w	r2, r4, #964	@ 0x3c4
        &x2cModel.blocks.bOme_s.Out;
    x2cModel.blocks.buI1.Init =
        &x2cModel.blocks.bInit.Out;
    x2cModel.blocks.buI1.Enable =
 8006f74:	f104 031c 	add.w	r3, r4, #28
    x2cModel.blocks.buI1.In =
 8006f78:	f8c4 13a8 	str.w	r1, [r4, #936]	@ 0x3a8
    x2cModel.blocks.buI1.Init =
 8006f7c:	f104 01dc 	add.w	r1, r4, #220	@ 0xdc
    /******************************************************************************************************************/
    /**                                                 Link Outports                                                **/
    /******************************************************************************************************************/
    x2cModel.outports.bOutErrClear =
        &x2cModel.inports.bInButton;
    x2cModel.outports.bOutPWMEnable =
 8006f80:	e9c4 23fb 	strd	r2, r3, [r4, #1004]	@ 0x3ec
    x2cModel.blocks.bTFlipFlop.T =
 8006f84:	f8c4 2314 	str.w	r2, [r4, #788]	@ 0x314
    x2cModel.blocks.buI1.Init =
 8006f88:	f8c4 13ac 	str.w	r1, [r4, #940]	@ 0x3ac
        &x2cModel.blocks.bAnd.Out;
    x2cModel.outports.bOutPWMa =
        &x2cModel.blocks.bSpaceVectorMod.A;
    x2cModel.outports.bOutPWMb =
 8006f8c:	f504 7239 	add.w	r2, r4, #740	@ 0x2e4
    x2cModel.outports.bOutPWMa =
 8006f90:	f504 7138 	add.w	r1, r4, #736	@ 0x2e0
    x2cModel.blocks.buI1.Enable =
 8006f94:	f8c4 33b0 	str.w	r3, [r4, #944]	@ 0x3b0
        &x2cModel.blocks.bSpaceVectorMod.C;

    /******************************************************************************************************************/
    /**                                           Run Block Init Functions                                           **/
    /******************************************************************************************************************/
    Add_Float32_Init(&x2cModel.blocks.bAdd);
 8006f98:	4620      	mov	r0, r4
    x2cModel.outports.bOutPWMc =
 8006f9a:	f504 733a 	add.w	r3, r4, #744	@ 0x2e8
    x2cModel.outports.bOutPWMb =
 8006f9e:	e9c4 12fd 	strd	r1, r2, [r4, #1012]	@ 0x3f4
    x2cModel.outports.bOutPWMc =
 8006fa2:	f8c4 33fc 	str.w	r3, [r4, #1020]	@ 0x3fc
    Add_Float32_Init(&x2cModel.blocks.bAdd);
 8006fa6:	f7fd fb49 	bl	800463c <Add_Float32_Init>
    And_Bool_Init(&x2cModel.blocks.bAnd);
 8006faa:	f104 0010 	add.w	r0, r4, #16
 8006fae:	f7fd fb61 	bl	8004674 <And_Bool_Init>
    AutoSwitch_Float32_Init(&x2cModel.blocks.bAutoSwitch);
 8006fb2:	f104 0020 	add.w	r0, r4, #32
 8006fb6:	f7fd fb8d 	bl	80046d4 <AutoSwitch_Float32_Init>
    ClarkeNPark_Float32_Init(&x2cModel.blocks.bClarkeNPark);
 8006fba:	f104 0040 	add.w	r0, r4, #64	@ 0x40
 8006fbe:	f7f9 f96b 	bl	8000298 <ClarkeNPark_Float32_Init>
    Constant_Float32_Init(&x2cModel.blocks.bConst6);
 8006fc2:	f104 005c 	add.w	r0, r4, #92	@ 0x5c
 8006fc6:	f7fd fbf1 	bl	80047ac <Constant_Float32_Init>
    PILimit_Float32_Init(&x2cModel.blocks.bCurrentPI_D);
 8006fca:	f104 0068 	add.w	r0, r4, #104	@ 0x68
 8006fce:	e029      	b.n	8007024 <X2C_Init+0x410>
 8006fd0:	200082f0 	.word	0x200082f0
 8006fd4:	4100ee34 	.word	0x4100ee34
 8006fd8:	3e8e6425 	.word	0x3e8e6425
 8006fdc:	4198d921 	.word	0x4198d921
 8006fe0:	c198d921 	.word	0xc198d921
 8006fe4:	3e088f49 	.word	0x3e088f49
 8006fe8:	3ede6b6a 	.word	0x3ede6b6a
 8006fec:	3bcde32e 	.word	0x3bcde32e
 8006ff0:	be4c9b26 	.word	0xbe4c9b26
 8006ff4:	bfffc23a 	.word	0xbfffc23a
 8006ff8:	3f7f8495 	.word	0x3f7f8495
 8006ffc:	42700000 	.word	0x42700000
 8007000:	bc23d70a 	.word	0xbc23d70a
 8007004:	bf948a1b 	.word	0xbf948a1b
 8007008:	3bececd2 	.word	0x3bececd2
 800700c:	3c23d70a 	.word	0x3c23d70a
 8007010:	3dcc9bab 	.word	0x3dcc9bab
 8007014:	41200000 	.word	0x41200000
 8007018:	20008270 	.word	0x20008270
 800701c:	3f13cd3a 	.word	0x3f13cd3a
 8007020:	3851b717 	.word	0x3851b717
 8007024:	f7fd fd9e 	bl	8004b64 <PILimit_Float32_Init>
    PILimit_Float32_Init(&x2cModel.blocks.bCurrentPI_Q);
 8007028:	f104 0094 	add.w	r0, r4, #148	@ 0x94
 800702c:	f7fd fd9a 	bl	8004b64 <PILimit_Float32_Init>
    Constant_Bool_Init(&x2cModel.blocks.bEna2);
 8007030:	f104 00c0 	add.w	r0, r4, #192	@ 0xc0
 8007034:	f7fd fb92 	bl	800475c <Constant_Bool_Init>
    Constant_Bool_Init(&x2cModel.blocks.bEna3);
 8007038:	f104 00c4 	add.w	r0, r4, #196	@ 0xc4
 800703c:	f7fd fb8e 	bl	800475c <Constant_Bool_Init>
    Constant_Bool_Init(&x2cModel.blocks.bEna4);
 8007040:	f104 00c8 	add.w	r0, r4, #200	@ 0xc8
 8007044:	f7fd fb8a 	bl	800475c <Constant_Bool_Init>
    Constant_Bool_Init(&x2cModel.blocks.bEna5);
 8007048:	f104 00cc 	add.w	r0, r4, #204	@ 0xcc
 800704c:	f7fd fb86 	bl	800475c <Constant_Bool_Init>
    Constant_Bool_Init(&x2cModel.blocks.bEna6);
 8007050:	f104 00d0 	add.w	r0, r4, #208	@ 0xd0
 8007054:	f7fd fb82 	bl	800475c <Constant_Bool_Init>
    Constant_Bool_Init(&x2cModel.blocks.bEnable);
 8007058:	f104 00d4 	add.w	r0, r4, #212	@ 0xd4
 800705c:	f7fd fb7e 	bl	800475c <Constant_Bool_Init>
    Constant_Float32_Init(&x2cModel.blocks.bInit);
 8007060:	f104 00d8 	add.w	r0, r4, #216	@ 0xd8
 8007064:	f7fd fba2 	bl	80047ac <Constant_Float32_Init>
    Constant_Float32_Init(&x2cModel.blocks.bInitCurr);
 8007068:	f104 00e4 	add.w	r0, r4, #228	@ 0xe4
 800706c:	f7fd fb9e 	bl	80047ac <Constant_Float32_Init>
    InvPark_Float32_Init(&x2cModel.blocks.bInvPark);
 8007070:	f104 00f0 	add.w	r0, r4, #240	@ 0xf0
 8007074:	f7f9 f954 	bl	8000320 <InvPark_Float32_Init>
    ManualSwitch_Float32_Init(&x2cModel.blocks.bManualSwitch);
 8007078:	f504 7084 	add.w	r0, r4, #264	@ 0x108
 800707c:	f7fd fcb8 	bl	80049f0 <ManualSwitch_Float32_Init>
    ManualSwitch_Bool_Init(&x2cModel.blocks.bManualSwitch1);
 8007080:	f504 708e 	add.w	r0, r4, #284	@ 0x11c
 8007084:	f7fd fc84 	bl	8004990 <ManualSwitch_Bool_Init>
    ManualSwitch_Float32_Init(&x2cModel.blocks.bManualSwitch2);
 8007088:	f504 7096 	add.w	r0, r4, #300	@ 0x12c
 800708c:	f7fd fcb0 	bl	80049f0 <ManualSwitch_Float32_Init>
    ManualSwitch_Float32_Init(&x2cModel.blocks.bManualSwitch3);
 8007090:	f504 70a0 	add.w	r0, r4, #320	@ 0x140
 8007094:	f7fd fcac 	bl	80049f0 <ManualSwitch_Float32_Init>
    ManualSwitch_Bool_Init(&x2cModel.blocks.bManualSwitch4);
 8007098:	f504 70aa 	add.w	r0, r4, #340	@ 0x154
 800709c:	f7fd fc78 	bl	8004990 <ManualSwitch_Bool_Init>
    Constant_Float32_Init(&x2cModel.blocks.bMax);
 80070a0:	f504 70b2 	add.w	r0, r4, #356	@ 0x164
 80070a4:	f7fd fb82 	bl	80047ac <Constant_Float32_Init>
    Constant_Float32_Init(&x2cModel.blocks.bMin);
 80070a8:	f504 70b8 	add.w	r0, r4, #368	@ 0x170
 80070ac:	f7fd fb7e 	bl	80047ac <Constant_Float32_Init>
    Negation_Float32_Init(&x2cModel.blocks.bNegation);
 80070b0:	f504 70be 	add.w	r0, r4, #380	@ 0x17c
 80070b4:	f7fd fcca 	bl	8004a4c <Negation_Float32_Init>
    Negation_Float32_Init(&x2cModel.blocks.bNegation1);
 80070b8:	f504 70c4 	add.w	r0, r4, #392	@ 0x188
 80070bc:	f7fd fcc6 	bl	8004a4c <Negation_Float32_Init>
    Negation_Float32_Init(&x2cModel.blocks.bNegation2);
 80070c0:	f504 70ca 	add.w	r0, r4, #404	@ 0x194
 80070c4:	f7fd fcc2 	bl	8004a4c <Negation_Float32_Init>
    Not_Bool_Init(&x2cModel.blocks.bNot);
 80070c8:	f504 70d0 	add.w	r0, r4, #416	@ 0x1a0
 80070cc:	f7fd fcd4 	bl	8004a78 <Not_Bool_Init>
    Add_Float32_Init(&x2cModel.blocks.bOme_s);
 80070d0:	f504 70d6 	add.w	r0, r4, #428	@ 0x1ac
 80070d4:	f7fd fab2 	bl	800463c <Add_Float32_Init>
    LowpassBiQ_Float32_Init(&x2cModel.blocks.bOmegaFilter);
 80070d8:	f504 70de 	add.w	r0, r4, #444	@ 0x1bc
 80070dc:	f7fd fbf0 	bl	80048c0 <LowpassBiQ_Float32_Init>
    Or_Bool_Init(&x2cModel.blocks.bOr);
 80070e0:	f504 70f6 	add.w	r0, r4, #492	@ 0x1ec
 80070e4:	f7fd fce0 	bl	8004aa8 <Or_Bool_Init>
    Constant_Float32_Init(&x2cModel.blocks.bPulseGenConst1);
 80070e8:	f504 70fe 	add.w	r0, r4, #508	@ 0x1fc
 80070ec:	f7fd fb5e 	bl	80047ac <Constant_Float32_Init>
    Constant_Float32_Init(&x2cModel.blocks.bPulseGenDCVal);
 80070f0:	f504 7002 	add.w	r0, r4, #520	@ 0x208
 80070f4:	f7fd fb5a 	bl	80047ac <Constant_Float32_Init>
    Constant_Float32_Init(&x2cModel.blocks.bPulseGenFreq);
 80070f8:	f504 7005 	add.w	r0, r4, #532	@ 0x214
 80070fc:	f7fd fb56 	bl	80047ac <Constant_Float32_Init>
    Constant_Float32_Init(&x2cModel.blocks.bPulseGenHi);
 8007100:	f504 7008 	add.w	r0, r4, #544	@ 0x220
 8007104:	f7fd fb52 	bl	80047ac <Constant_Float32_Init>
    Constant_Float32_Init(&x2cModel.blocks.bPulseGenLo);
 8007108:	f504 700b 	add.w	r0, r4, #556	@ 0x22c
 800710c:	f7fd fb4e 	bl	80047ac <Constant_Float32_Init>
    ManualSwitch_Float32_Init(&x2cModel.blocks.bPulseGenOutput);
 8007110:	f504 700e 	add.w	r0, r4, #568	@ 0x238
 8007114:	f7fd fc6c 	bl	80049f0 <ManualSwitch_Float32_Init>
    SinGen_Float32_Init(&x2cModel.blocks.bPulseGenSin);
 8007118:	f504 7013 	add.w	r0, r4, #588	@ 0x24c
 800711c:	f7fd fe78 	bl	8004e10 <SinGen_Float32_Init>
    RateLimiter_Float32_Init(&x2cModel.blocks.bRateLimiter);
 8007120:	f504 701b 	add.w	r0, r4, #620	@ 0x26c
 8007124:	f7fd fda6 	bl	8004c74 <RateLimiter_Float32_Init>
    Constant_Float32_Init(&x2cModel.blocks.bSkluzovaOme);
 8007128:	f504 7023 	add.w	r0, r4, #652	@ 0x28c
 800712c:	f7fd fb3e 	bl	80047ac <Constant_Float32_Init>
    Constant_Float32_Init(&x2cModel.blocks.bSkluzovaOme1);
 8007130:	f504 7026 	add.w	r0, r4, #664	@ 0x298
 8007134:	f7fd fb3a 	bl	80047ac <Constant_Float32_Init>
    Constant_Float32_Init(&x2cModel.blocks.bSkluzovaOme2);
 8007138:	f504 7029 	add.w	r0, r4, #676	@ 0x2a4
 800713c:	f7fd fb36 	bl	80047ac <Constant_Float32_Init>
    Constant_Float32_Init(&x2cModel.blocks.bSkluzovaOme3);
 8007140:	f504 702c 	add.w	r0, r4, #688	@ 0x2b0
 8007144:	f7fd fb32 	bl	80047ac <Constant_Float32_Init>
    SpaceVectorAdjust_Float32_Init(&x2cModel.blocks.bSpaceVectorAdjust);
 8007148:	f504 702f 	add.w	r0, r4, #700	@ 0x2bc
 800714c:	f7f9 f922 	bl	8000394 <SpaceVectorAdjust_Float32_Init>
    SpaceVectorMod_Float32_Init(&x2cModel.blocks.bSpaceVectorMod);
 8007150:	f504 7035 	add.w	r0, r4, #724	@ 0x2d4
 8007154:	f7f9 f9f6 	bl	8000544 <SpaceVectorMod_Float32_Init>
    Sub_Float32_Init(&x2cModel.blocks.bSub);
 8007158:	f504 703c 	add.w	r0, r4, #752	@ 0x2f0
 800715c:	f7fd feae 	bl	8004ebc <Sub_Float32_Init>
    Sub_Float32_Init(&x2cModel.blocks.bSub1);
 8007160:	f504 7040 	add.w	r0, r4, #768	@ 0x300
 8007164:	f7fd feaa 	bl	8004ebc <Sub_Float32_Init>
    TFlipFlop_Bool_Init(&x2cModel.blocks.bTFlipFlop);
 8007168:	f504 7044 	add.w	r0, r4, #784	@ 0x310
 800716c:	f7f9 fa6c 	bl	8000648 <TFlipFlop_Bool_Init>
    LowpassBiQ_Float32_Init(&x2cModel.blocks.bVdcFilter);
 8007170:	f504 7047 	add.w	r0, r4, #796	@ 0x31c
 8007174:	f7fd fba4 	bl	80048c0 <LowpassBiQ_Float32_Init>
    Saturation_Float32_Init(&x2cModel.blocks.bVdcSaturation);
 8007178:	f504 7053 	add.w	r0, r4, #844	@ 0x34c
 800717c:	f7fd fdd4 	bl	8004d28 <Saturation_Float32_Init>
    Constant_Float32_Init(&x2cModel.blocks.bVectorLimit);
 8007180:	f504 7058 	add.w	r0, r4, #864	@ 0x360
 8007184:	f7fd fb12 	bl	80047ac <Constant_Float32_Init>
    VectorNormLimit_Float32_Init(&x2cModel.blocks.bVectorNormLimit);
 8007188:	f504 705b 	add.w	r0, r4, #876	@ 0x36c
 800718c:	f7f9 fa32 	bl	80005f4 <VectorNormLimit_Float32_Init>
    Gain_Float32_Init(&x2cModel.blocks.bVphase);
 8007190:	f504 7061 	add.w	r0, r4, #900	@ 0x384
 8007194:	f7fd fb3e 	bl	8004814 <Gain_Float32_Init>
    Gain_Float32_Init(&x2cModel.blocks.bpp);
 8007198:	f504 7065 	add.w	r0, r4, #916	@ 0x394
 800719c:	f7fd fb3a 	bl	8004814 <Gain_Float32_Init>
    uI_Float32_Init(&x2cModel.blocks.buI1);
 80071a0:	f504 7069 	add.w	r0, r4, #932	@ 0x3a4
 80071a4:	f7fd fee6 	bl	8004f74 <uI_Float32_Init>
    Scope_Main_Init(&x2cScope);
 80071a8:	4807      	ldr	r0, [pc, #28]	@ (80071c8 <X2C_Init+0x5b4>)
 80071aa:	f7fe fd33 	bl	8005c14 <Scope_Main_Init>

    /* Initialize TableStruct tables                                                                                  */
    TableStruct->TFncTable = blockFunctionTable;
 80071ae:	4b07      	ldr	r3, [pc, #28]	@ (80071cc <X2C_Init+0x5b8>)
    TableStruct->TParamTable = parameterIdTable;
 80071b0:	4a07      	ldr	r2, [pc, #28]	@ (80071d0 <X2C_Init+0x5bc>)
    TableStruct->TFncTable = blockFunctionTable;
 80071b2:	681b      	ldr	r3, [r3, #0]
 80071b4:	4807      	ldr	r0, [pc, #28]	@ (80071d4 <X2C_Init+0x5c0>)
 80071b6:	6058      	str	r0, [r3, #4]
    TableStruct->inportParamTable = inportParamIdTable;
 80071b8:	4907      	ldr	r1, [pc, #28]	@ (80071d8 <X2C_Init+0x5c4>)
    TableStruct->TParamTable = parameterIdTable;
 80071ba:	601a      	str	r2, [r3, #0]
    TableStruct->outportParamTable = outportParamIdTable;
 80071bc:	4a07      	ldr	r2, [pc, #28]	@ (80071dc <X2C_Init+0x5c8>)
    TableStruct->inportParamTable = inportParamIdTable;
 80071be:	6319      	str	r1, [r3, #48]	@ 0x30
    TableStruct->outportParamTable = outportParamIdTable;
 80071c0:	635a      	str	r2, [r3, #52]	@ 0x34
    /* Conversion-on-Target feature not used                                                                          */
    TableStruct->maskParameterTable = (tMaskParameterEntry*)0;
 80071c2:	639e      	str	r6, [r3, #56]	@ 0x38
}
 80071c4:	bdf8      	pop	{r3, r4, r5, r6, r7, pc}
 80071c6:	bf00      	nop
 80071c8:	20008278 	.word	0x20008278
 80071cc:	20000024 	.word	0x20000024
 80071d0:	08008170 	.word	0x08008170
 80071d4:	08008330 	.word	0x08008330
 80071d8:	08008110 	.word	0x08008110
 80071dc:	080080e0 	.word	0x080080e0

080071e0 <X2C_Update_1>:
/**********************************************************************************************************************/
/**                                            Run Block Update Functions                                            **/
/**********************************************************************************************************************/
/* X2C_Update for blocks with 1*Ts                                                                                    */
void X2C_Update_1(void)
{
 80071e0:	b510      	push	{r4, lr}
    ManualSwitch_Float32_Update(&x2cModel.blocks.bManualSwitch);
 80071e2:	4c36      	ldr	r4, [pc, #216]	@ (80072bc <X2C_Update_1+0xdc>)
 80071e4:	4620      	mov	r0, r4
 80071e6:	f7fd fbf9 	bl	80049dc <ManualSwitch_Float32_Update>
    AutoSwitch_Float32_Update(&x2cModel.blocks.bAutoSwitch);
 80071ea:	f1a4 00e8 	sub.w	r0, r4, #232	@ 0xe8
 80071ee:	f7fd fa55 	bl	800469c <AutoSwitch_Float32_Update>
    Add_Float32_Update(&x2cModel.blocks.bOme_s);
 80071f2:	f104 00a4 	add.w	r0, r4, #164	@ 0xa4
 80071f6:	f7fd fa15 	bl	8004624 <Add_Float32_Update>
    ManualSwitch_Float32_Update(&x2cModel.blocks.bPulseGenOutput);
 80071fa:	f504 7098 	add.w	r0, r4, #304	@ 0x130
 80071fe:	f7fd fbed 	bl	80049dc <ManualSwitch_Float32_Update>
    Add_Float32_Update(&x2cModel.blocks.bAdd);
 8007202:	f5a4 7084 	sub.w	r0, r4, #264	@ 0x108
 8007206:	f7fd fa0d 	bl	8004624 <Add_Float32_Update>
    ManualSwitch_Float32_Update(&x2cModel.blocks.bManualSwitch2);
 800720a:	f104 0024 	add.w	r0, r4, #36	@ 0x24
 800720e:	f7fd fbe5 	bl	80049dc <ManualSwitch_Float32_Update>
    ManualSwitch_Float32_Update(&x2cModel.blocks.bManualSwitch3);
 8007212:	f104 0038 	add.w	r0, r4, #56	@ 0x38
 8007216:	f7fd fbe1 	bl	80049dc <ManualSwitch_Float32_Update>
    LowpassBiQ_Float32_Update(&x2cModel.blocks.bVdcFilter);
 800721a:	f504 7005 	add.w	r0, r4, #532	@ 0x214
 800721e:	f7fd fb25 	bl	800486c <LowpassBiQ_Float32_Update>
    ManualSwitch_Bool_Update(&x2cModel.blocks.bManualSwitch1);
 8007222:	f104 0014 	add.w	r0, r4, #20
 8007226:	f7fd fba9 	bl	800497c <ManualSwitch_Bool_Update>
    ManualSwitch_Bool_Update(&x2cModel.blocks.bManualSwitch4);
 800722a:	f104 004c 	add.w	r0, r4, #76	@ 0x4c
 800722e:	f7fd fba5 	bl	800497c <ManualSwitch_Bool_Update>
    Negation_Float32_Update(&x2cModel.blocks.bNegation);
 8007232:	f104 0074 	add.w	r0, r4, #116	@ 0x74
 8007236:	f7fd fc01 	bl	8004a3c <Negation_Float32_Update>
    Saturation_Float32_Update(&x2cModel.blocks.bVdcSaturation);
 800723a:	f504 7011 	add.w	r0, r4, #580	@ 0x244
 800723e:	f7fd fd5d 	bl	8004cfc <Saturation_Float32_Update>
    Gain_Float32_Update(&x2cModel.blocks.bVphase);
 8007242:	f504 701f 	add.w	r0, r4, #636	@ 0x27c
 8007246:	f7fd fadb 	bl	8004800 <Gain_Float32_Update>
    Not_Bool_Update(&x2cModel.blocks.bNot);
 800724a:	f104 0098 	add.w	r0, r4, #152	@ 0x98
 800724e:	f7fd fc0d 	bl	8004a6c <Not_Bool_Update>
    Or_Bool_Update(&x2cModel.blocks.bOr);
 8007252:	f104 00e4 	add.w	r0, r4, #228	@ 0xe4
 8007256:	f7fd fc1f 	bl	8004a98 <Or_Bool_Update>
    And_Bool_Update(&x2cModel.blocks.bAnd);
 800725a:	f1a4 00f8 	sub.w	r0, r4, #248	@ 0xf8
 800725e:	f7fd fa01 	bl	8004664 <And_Bool_Update>
    uI_Float32_Update(&x2cModel.blocks.buI1);
 8007262:	f504 7027 	add.w	r0, r4, #668	@ 0x29c
 8007266:	f7fd fe3d 	bl	8004ee4 <uI_Float32_Update>
    ClarkeNPark_Float32_Update(&x2cModel.blocks.bClarkeNPark);
 800726a:	f1a4 00c8 	sub.w	r0, r4, #200	@ 0xc8
 800726e:	f7f8 ffd3 	bl	8000218 <ClarkeNPark_Float32_Update>
    Sub_Float32_Update(&x2cModel.blocks.bSub);
 8007272:	f504 70f4 	add.w	r0, r4, #488	@ 0x1e8
 8007276:	f7fd fe15 	bl	8004ea4 <Sub_Float32_Update>
    Sub_Float32_Update(&x2cModel.blocks.bSub1);
 800727a:	f504 70fc 	add.w	r0, r4, #504	@ 0x1f8
 800727e:	f7fd fe11 	bl	8004ea4 <Sub_Float32_Update>
    PILimit_Float32_Update(&x2cModel.blocks.bCurrentPI_D);
 8007282:	f1a4 00a0 	sub.w	r0, r4, #160	@ 0xa0
 8007286:	f7fd fc23 	bl	8004ad0 <PILimit_Float32_Update>
    PILimit_Float32_Update(&x2cModel.blocks.bCurrentPI_Q);
 800728a:	f1a4 0074 	sub.w	r0, r4, #116	@ 0x74
 800728e:	f7fd fc1f 	bl	8004ad0 <PILimit_Float32_Update>
    SpaceVectorAdjust_Float32_Update(&x2cModel.blocks.bSpaceVectorAdjust);
 8007292:	f504 70da 	add.w	r0, r4, #436	@ 0x1b4
 8007296:	f7f9 f85f 	bl	8000358 <SpaceVectorAdjust_Float32_Update>
    VectorNormLimit_Float32_Update(&x2cModel.blocks.bVectorNormLimit);
 800729a:	f504 7019 	add.w	r0, r4, #612	@ 0x264
 800729e:	f7f9 f97f 	bl	80005a0 <VectorNormLimit_Float32_Update>
    InvPark_Float32_Update(&x2cModel.blocks.bInvPark);
 80072a2:	f1a4 0018 	sub.w	r0, r4, #24
 80072a6:	f7f9 f815 	bl	80002d4 <InvPark_Float32_Update>
    SpaceVectorMod_Float32_Update(&x2cModel.blocks.bSpaceVectorMod);
 80072aa:	f504 70e6 	add.w	r0, r4, #460	@ 0x1cc
 80072ae:	f7f9 f88d 	bl	80003cc <SpaceVectorMod_Float32_Update>
    Scope_Main_Update(&x2cScope);
}
 80072b2:	e8bd 4010 	ldmia.w	sp!, {r4, lr}
    Scope_Main_Update(&x2cScope);
 80072b6:	4802      	ldr	r0, [pc, #8]	@ (80072c0 <X2C_Update_1+0xe0>)
 80072b8:	f7fe bcdc 	b.w	8005c74 <Scope_Main_Update>
 80072bc:	200083f8 	.word	0x200083f8
 80072c0:	20008278 	.word	0x20008278

080072c4 <X2C_Update_20>:

/* X2C_Update for blocks with 20*Ts                                                                                   */
void X2C_Update_20(void)
{
 80072c4:	b510      	push	{r4, lr}
    Negation_Float32_Update(&x2cModel.blocks.bNegation2);
 80072c6:	4c0f      	ldr	r4, [pc, #60]	@ (8007304 <X2C_Update_20+0x40>)
 80072c8:	4620      	mov	r0, r4
 80072ca:	f7fd fbb7 	bl	8004a3c <Negation_Float32_Update>
    LowpassBiQ_Float32_Update(&x2cModel.blocks.bOmegaFilter);
 80072ce:	f104 0028 	add.w	r0, r4, #40	@ 0x28
 80072d2:	f7fd facb 	bl	800486c <LowpassBiQ_Float32_Update>
    SinGen_Float32_Update(&x2cModel.blocks.bPulseGenSin);
 80072d6:	f104 00b8 	add.w	r0, r4, #184	@ 0xb8
 80072da:	f7fd fd5f 	bl	8004d9c <SinGen_Float32_Update>
    Gain_Float32_Update(&x2cModel.blocks.bpp);
 80072de:	f504 7000 	add.w	r0, r4, #512	@ 0x200
 80072e2:	f7fd fa8d 	bl	8004800 <Gain_Float32_Update>
    RateLimiter_Float32_Update(&x2cModel.blocks.bRateLimiter);
 80072e6:	f104 00d8 	add.w	r0, r4, #216	@ 0xd8
 80072ea:	f7fd fc89 	bl	8004c00 <RateLimiter_Float32_Update>
    Negation_Float32_Update(&x2cModel.blocks.bNegation1);
 80072ee:	f1a4 000c 	sub.w	r0, r4, #12
 80072f2:	f7fd fba3 	bl	8004a3c <Negation_Float32_Update>
    TFlipFlop_Bool_Update(&x2cModel.blocks.bTFlipFlop);
 80072f6:	f504 70be 	add.w	r0, r4, #380	@ 0x17c
}
 80072fa:	e8bd 4010 	ldmia.w	sp!, {r4, lr}
    TFlipFlop_Bool_Update(&x2cModel.blocks.bTFlipFlop);
 80072fe:	f7f9 b995 	b.w	800062c <TFlipFlop_Bool_Update>
 8007302:	bf00      	nop
 8007304:	20008484 	.word	0x20008484

08007308 <memset>:
 8007308:	4402      	add	r2, r0
 800730a:	4603      	mov	r3, r0
 800730c:	4293      	cmp	r3, r2
 800730e:	d100      	bne.n	8007312 <memset+0xa>
 8007310:	4770      	bx	lr
 8007312:	f803 1b01 	strb.w	r1, [r3], #1
 8007316:	e7f9      	b.n	800730c <memset+0x4>

08007318 <__libc_init_array>:
 8007318:	b570      	push	{r4, r5, r6, lr}
 800731a:	4d0d      	ldr	r5, [pc, #52]	@ (8007350 <__libc_init_array+0x38>)
 800731c:	4c0d      	ldr	r4, [pc, #52]	@ (8007354 <__libc_init_array+0x3c>)
 800731e:	1b64      	subs	r4, r4, r5
 8007320:	10a4      	asrs	r4, r4, #2
 8007322:	2600      	movs	r6, #0
 8007324:	42a6      	cmp	r6, r4
 8007326:	d109      	bne.n	800733c <__libc_init_array+0x24>
 8007328:	4d0b      	ldr	r5, [pc, #44]	@ (8007358 <__libc_init_array+0x40>)
 800732a:	4c0c      	ldr	r4, [pc, #48]	@ (800735c <__libc_init_array+0x44>)
 800732c:	f000 fd8c 	bl	8007e48 <_init>
 8007330:	1b64      	subs	r4, r4, r5
 8007332:	10a4      	asrs	r4, r4, #2
 8007334:	2600      	movs	r6, #0
 8007336:	42a6      	cmp	r6, r4
 8007338:	d105      	bne.n	8007346 <__libc_init_array+0x2e>
 800733a:	bd70      	pop	{r4, r5, r6, pc}
 800733c:	f855 3b04 	ldr.w	r3, [r5], #4
 8007340:	4798      	blx	r3
 8007342:	3601      	adds	r6, #1
 8007344:	e7ee      	b.n	8007324 <__libc_init_array+0xc>
 8007346:	f855 3b04 	ldr.w	r3, [r5], #4
 800734a:	4798      	blx	r3
 800734c:	3601      	adds	r6, #1
 800734e:	e7f2      	b.n	8007336 <__libc_init_array+0x1e>
 8007350:	08008978 	.word	0x08008978
 8007354:	08008978 	.word	0x08008978
 8007358:	08008978 	.word	0x08008978
 800735c:	0800897c 	.word	0x0800897c

08007360 <cosf>:
 8007360:	ee10 3a10 	vmov	r3, s0
 8007364:	b507      	push	{r0, r1, r2, lr}
 8007366:	4a1e      	ldr	r2, [pc, #120]	@ (80073e0 <cosf+0x80>)
 8007368:	f023 4300 	bic.w	r3, r3, #2147483648	@ 0x80000000
 800736c:	4293      	cmp	r3, r2
 800736e:	d806      	bhi.n	800737e <cosf+0x1e>
 8007370:	eddf 0a1c 	vldr	s1, [pc, #112]	@ 80073e4 <cosf+0x84>
 8007374:	b003      	add	sp, #12
 8007376:	f85d eb04 	ldr.w	lr, [sp], #4
 800737a:	f000 b87b 	b.w	8007474 <__kernel_cosf>
 800737e:	f1b3 4fff 	cmp.w	r3, #2139095040	@ 0x7f800000
 8007382:	d304      	bcc.n	800738e <cosf+0x2e>
 8007384:	ee30 0a40 	vsub.f32	s0, s0, s0
 8007388:	b003      	add	sp, #12
 800738a:	f85d fb04 	ldr.w	pc, [sp], #4
 800738e:	4668      	mov	r0, sp
 8007390:	f000 f910 	bl	80075b4 <__ieee754_rem_pio2f>
 8007394:	f000 0003 	and.w	r0, r0, #3
 8007398:	2801      	cmp	r0, #1
 800739a:	d009      	beq.n	80073b0 <cosf+0x50>
 800739c:	2802      	cmp	r0, #2
 800739e:	d010      	beq.n	80073c2 <cosf+0x62>
 80073a0:	b9b0      	cbnz	r0, 80073d0 <cosf+0x70>
 80073a2:	eddd 0a01 	vldr	s1, [sp, #4]
 80073a6:	ed9d 0a00 	vldr	s0, [sp]
 80073aa:	f000 f863 	bl	8007474 <__kernel_cosf>
 80073ae:	e7eb      	b.n	8007388 <cosf+0x28>
 80073b0:	eddd 0a01 	vldr	s1, [sp, #4]
 80073b4:	ed9d 0a00 	vldr	s0, [sp]
 80073b8:	f000 f8b4 	bl	8007524 <__kernel_sinf>
 80073bc:	eeb1 0a40 	vneg.f32	s0, s0
 80073c0:	e7e2      	b.n	8007388 <cosf+0x28>
 80073c2:	eddd 0a01 	vldr	s1, [sp, #4]
 80073c6:	ed9d 0a00 	vldr	s0, [sp]
 80073ca:	f000 f853 	bl	8007474 <__kernel_cosf>
 80073ce:	e7f5      	b.n	80073bc <cosf+0x5c>
 80073d0:	eddd 0a01 	vldr	s1, [sp, #4]
 80073d4:	ed9d 0a00 	vldr	s0, [sp]
 80073d8:	2001      	movs	r0, #1
 80073da:	f000 f8a3 	bl	8007524 <__kernel_sinf>
 80073de:	e7d3      	b.n	8007388 <cosf+0x28>
 80073e0:	3f490fd8 	.word	0x3f490fd8
 80073e4:	00000000 	.word	0x00000000

080073e8 <sinf>:
 80073e8:	ee10 3a10 	vmov	r3, s0
 80073ec:	b507      	push	{r0, r1, r2, lr}
 80073ee:	4a1f      	ldr	r2, [pc, #124]	@ (800746c <sinf+0x84>)
 80073f0:	f023 4300 	bic.w	r3, r3, #2147483648	@ 0x80000000
 80073f4:	4293      	cmp	r3, r2
 80073f6:	d807      	bhi.n	8007408 <sinf+0x20>
 80073f8:	eddf 0a1d 	vldr	s1, [pc, #116]	@ 8007470 <sinf+0x88>
 80073fc:	2000      	movs	r0, #0
 80073fe:	b003      	add	sp, #12
 8007400:	f85d eb04 	ldr.w	lr, [sp], #4
 8007404:	f000 b88e 	b.w	8007524 <__kernel_sinf>
 8007408:	f1b3 4fff 	cmp.w	r3, #2139095040	@ 0x7f800000
 800740c:	d304      	bcc.n	8007418 <sinf+0x30>
 800740e:	ee30 0a40 	vsub.f32	s0, s0, s0
 8007412:	b003      	add	sp, #12
 8007414:	f85d fb04 	ldr.w	pc, [sp], #4
 8007418:	4668      	mov	r0, sp
 800741a:	f000 f8cb 	bl	80075b4 <__ieee754_rem_pio2f>
 800741e:	f000 0003 	and.w	r0, r0, #3
 8007422:	2801      	cmp	r0, #1
 8007424:	d00a      	beq.n	800743c <sinf+0x54>
 8007426:	2802      	cmp	r0, #2
 8007428:	d00f      	beq.n	800744a <sinf+0x62>
 800742a:	b9c0      	cbnz	r0, 800745e <sinf+0x76>
 800742c:	eddd 0a01 	vldr	s1, [sp, #4]
 8007430:	ed9d 0a00 	vldr	s0, [sp]
 8007434:	2001      	movs	r0, #1
 8007436:	f000 f875 	bl	8007524 <__kernel_sinf>
 800743a:	e7ea      	b.n	8007412 <sinf+0x2a>
 800743c:	eddd 0a01 	vldr	s1, [sp, #4]
 8007440:	ed9d 0a00 	vldr	s0, [sp]
 8007444:	f000 f816 	bl	8007474 <__kernel_cosf>
 8007448:	e7e3      	b.n	8007412 <sinf+0x2a>
 800744a:	eddd 0a01 	vldr	s1, [sp, #4]
 800744e:	ed9d 0a00 	vldr	s0, [sp]
 8007452:	2001      	movs	r0, #1
 8007454:	f000 f866 	bl	8007524 <__kernel_sinf>
 8007458:	eeb1 0a40 	vneg.f32	s0, s0
 800745c:	e7d9      	b.n	8007412 <sinf+0x2a>
 800745e:	eddd 0a01 	vldr	s1, [sp, #4]
 8007462:	ed9d 0a00 	vldr	s0, [sp]
 8007466:	f000 f805 	bl	8007474 <__kernel_cosf>
 800746a:	e7f5      	b.n	8007458 <sinf+0x70>
 800746c:	3f490fd8 	.word	0x3f490fd8
 8007470:	00000000 	.word	0x00000000

08007474 <__kernel_cosf>:
 8007474:	ee10 3a10 	vmov	r3, s0
 8007478:	f023 4300 	bic.w	r3, r3, #2147483648	@ 0x80000000
 800747c:	f1b3 5f48 	cmp.w	r3, #838860800	@ 0x32000000
 8007480:	eef0 6a40 	vmov.f32	s13, s0
 8007484:	eeb7 0a00 	vmov.f32	s0, #112	@ 0x3f800000  1.0
 8007488:	d204      	bcs.n	8007494 <__kernel_cosf+0x20>
 800748a:	eefd 7ae6 	vcvt.s32.f32	s15, s13
 800748e:	ee17 2a90 	vmov	r2, s15
 8007492:	b342      	cbz	r2, 80074e6 <__kernel_cosf+0x72>
 8007494:	ee26 7aa6 	vmul.f32	s14, s13, s13
 8007498:	eddf 7a1a 	vldr	s15, [pc, #104]	@ 8007504 <__kernel_cosf+0x90>
 800749c:	ed9f 6a1a 	vldr	s12, [pc, #104]	@ 8007508 <__kernel_cosf+0x94>
 80074a0:	4a1a      	ldr	r2, [pc, #104]	@ (800750c <__kernel_cosf+0x98>)
 80074a2:	eea7 6a27 	vfma.f32	s12, s14, s15
 80074a6:	4293      	cmp	r3, r2
 80074a8:	eddf 7a19 	vldr	s15, [pc, #100]	@ 8007510 <__kernel_cosf+0x9c>
 80074ac:	eee6 7a07 	vfma.f32	s15, s12, s14
 80074b0:	ed9f 6a18 	vldr	s12, [pc, #96]	@ 8007514 <__kernel_cosf+0xa0>
 80074b4:	eea7 6a87 	vfma.f32	s12, s15, s14
 80074b8:	eddf 7a17 	vldr	s15, [pc, #92]	@ 8007518 <__kernel_cosf+0xa4>
 80074bc:	eee6 7a07 	vfma.f32	s15, s12, s14
 80074c0:	ed9f 6a16 	vldr	s12, [pc, #88]	@ 800751c <__kernel_cosf+0xa8>
 80074c4:	eea7 6a87 	vfma.f32	s12, s15, s14
 80074c8:	ee60 0ae6 	vnmul.f32	s1, s1, s13
 80074cc:	ee26 6a07 	vmul.f32	s12, s12, s14
 80074d0:	eef6 7a00 	vmov.f32	s15, #96	@ 0x3f000000  0.5
 80074d4:	eee7 0a06 	vfma.f32	s1, s14, s12
 80074d8:	ee67 7a27 	vmul.f32	s15, s14, s15
 80074dc:	d804      	bhi.n	80074e8 <__kernel_cosf+0x74>
 80074de:	ee77 7ae0 	vsub.f32	s15, s15, s1
 80074e2:	ee30 0a67 	vsub.f32	s0, s0, s15
 80074e6:	4770      	bx	lr
 80074e8:	4a0d      	ldr	r2, [pc, #52]	@ (8007520 <__kernel_cosf+0xac>)
 80074ea:	4293      	cmp	r3, r2
 80074ec:	bf9a      	itte	ls
 80074ee:	f103 437f 	addls.w	r3, r3, #4278190080	@ 0xff000000
 80074f2:	ee07 3a10 	vmovls	s14, r3
 80074f6:	eeb5 7a02 	vmovhi.f32	s14, #82	@ 0x3e900000  0.2812500
 80074fa:	ee30 0a47 	vsub.f32	s0, s0, s14
 80074fe:	ee77 7ac7 	vsub.f32	s15, s15, s14
 8007502:	e7ec      	b.n	80074de <__kernel_cosf+0x6a>
 8007504:	ad47d74e 	.word	0xad47d74e
 8007508:	310f74f6 	.word	0x310f74f6
 800750c:	3e999999 	.word	0x3e999999
 8007510:	b493f27c 	.word	0xb493f27c
 8007514:	37d00d01 	.word	0x37d00d01
 8007518:	bab60b61 	.word	0xbab60b61
 800751c:	3d2aaaab 	.word	0x3d2aaaab
 8007520:	3f480000 	.word	0x3f480000

08007524 <__kernel_sinf>:
 8007524:	ee10 3a10 	vmov	r3, s0
 8007528:	f023 4300 	bic.w	r3, r3, #2147483648	@ 0x80000000
 800752c:	f1b3 5f48 	cmp.w	r3, #838860800	@ 0x32000000
 8007530:	d204      	bcs.n	800753c <__kernel_sinf+0x18>
 8007532:	eefd 7ac0 	vcvt.s32.f32	s15, s0
 8007536:	ee17 3a90 	vmov	r3, s15
 800753a:	b35b      	cbz	r3, 8007594 <__kernel_sinf+0x70>
 800753c:	ee20 7a00 	vmul.f32	s14, s0, s0
 8007540:	eddf 7a15 	vldr	s15, [pc, #84]	@ 8007598 <__kernel_sinf+0x74>
 8007544:	ed9f 6a15 	vldr	s12, [pc, #84]	@ 800759c <__kernel_sinf+0x78>
 8007548:	eea7 6a27 	vfma.f32	s12, s14, s15
 800754c:	eddf 7a14 	vldr	s15, [pc, #80]	@ 80075a0 <__kernel_sinf+0x7c>
 8007550:	eee6 7a07 	vfma.f32	s15, s12, s14
 8007554:	ed9f 6a13 	vldr	s12, [pc, #76]	@ 80075a4 <__kernel_sinf+0x80>
 8007558:	eea7 6a87 	vfma.f32	s12, s15, s14
 800755c:	eddf 7a12 	vldr	s15, [pc, #72]	@ 80075a8 <__kernel_sinf+0x84>
 8007560:	ee60 6a07 	vmul.f32	s13, s0, s14
 8007564:	eee6 7a07 	vfma.f32	s15, s12, s14
 8007568:	b930      	cbnz	r0, 8007578 <__kernel_sinf+0x54>
 800756a:	ed9f 6a10 	vldr	s12, [pc, #64]	@ 80075ac <__kernel_sinf+0x88>
 800756e:	eea7 6a27 	vfma.f32	s12, s14, s15
 8007572:	eea6 0a26 	vfma.f32	s0, s12, s13
 8007576:	4770      	bx	lr
 8007578:	ee67 7ae6 	vnmul.f32	s15, s15, s13
 800757c:	eeb6 6a00 	vmov.f32	s12, #96	@ 0x3f000000  0.5
 8007580:	eee0 7a86 	vfma.f32	s15, s1, s12
 8007584:	eed7 0a87 	vfnms.f32	s1, s15, s14
 8007588:	eddf 7a09 	vldr	s15, [pc, #36]	@ 80075b0 <__kernel_sinf+0x8c>
 800758c:	eee6 0aa7 	vfma.f32	s1, s13, s15
 8007590:	ee30 0a60 	vsub.f32	s0, s0, s1
 8007594:	4770      	bx	lr
 8007596:	bf00      	nop
 8007598:	2f2ec9d3 	.word	0x2f2ec9d3
 800759c:	b2d72f34 	.word	0xb2d72f34
 80075a0:	3638ef1b 	.word	0x3638ef1b
 80075a4:	b9500d01 	.word	0xb9500d01
 80075a8:	3c088889 	.word	0x3c088889
 80075ac:	be2aaaab 	.word	0xbe2aaaab
 80075b0:	3e2aaaab 	.word	0x3e2aaaab

080075b4 <__ieee754_rem_pio2f>:
 80075b4:	b5f0      	push	{r4, r5, r6, r7, lr}
 80075b6:	ee10 6a10 	vmov	r6, s0
 80075ba:	4b88      	ldr	r3, [pc, #544]	@ (80077dc <__ieee754_rem_pio2f+0x228>)
 80075bc:	f026 4500 	bic.w	r5, r6, #2147483648	@ 0x80000000
 80075c0:	429d      	cmp	r5, r3
 80075c2:	b087      	sub	sp, #28
 80075c4:	4604      	mov	r4, r0
 80075c6:	d805      	bhi.n	80075d4 <__ieee754_rem_pio2f+0x20>
 80075c8:	2300      	movs	r3, #0
 80075ca:	ed80 0a00 	vstr	s0, [r0]
 80075ce:	6043      	str	r3, [r0, #4]
 80075d0:	2000      	movs	r0, #0
 80075d2:	e022      	b.n	800761a <__ieee754_rem_pio2f+0x66>
 80075d4:	4b82      	ldr	r3, [pc, #520]	@ (80077e0 <__ieee754_rem_pio2f+0x22c>)
 80075d6:	429d      	cmp	r5, r3
 80075d8:	d83a      	bhi.n	8007650 <__ieee754_rem_pio2f+0x9c>
 80075da:	f026 4300 	bic.w	r3, r6, #2147483648	@ 0x80000000
 80075de:	2e00      	cmp	r6, #0
 80075e0:	ed9f 7a80 	vldr	s14, [pc, #512]	@ 80077e4 <__ieee754_rem_pio2f+0x230>
 80075e4:	4a80      	ldr	r2, [pc, #512]	@ (80077e8 <__ieee754_rem_pio2f+0x234>)
 80075e6:	f023 030f 	bic.w	r3, r3, #15
 80075ea:	dd18      	ble.n	800761e <__ieee754_rem_pio2f+0x6a>
 80075ec:	4293      	cmp	r3, r2
 80075ee:	ee70 7a47 	vsub.f32	s15, s0, s14
 80075f2:	bf09      	itett	eq
 80075f4:	ed9f 7a7d 	vldreq	s14, [pc, #500]	@ 80077ec <__ieee754_rem_pio2f+0x238>
 80075f8:	eddf 6a7d 	vldrne	s13, [pc, #500]	@ 80077f0 <__ieee754_rem_pio2f+0x23c>
 80075fc:	eddf 6a7d 	vldreq	s13, [pc, #500]	@ 80077f4 <__ieee754_rem_pio2f+0x240>
 8007600:	ee77 7ac7 	vsubeq.f32	s15, s15, s14
 8007604:	ee37 7ae6 	vsub.f32	s14, s15, s13
 8007608:	ee77 7ac7 	vsub.f32	s15, s15, s14
 800760c:	ed80 7a00 	vstr	s14, [r0]
 8007610:	ee77 7ae6 	vsub.f32	s15, s15, s13
 8007614:	edc0 7a01 	vstr	s15, [r0, #4]
 8007618:	2001      	movs	r0, #1
 800761a:	b007      	add	sp, #28
 800761c:	bdf0      	pop	{r4, r5, r6, r7, pc}
 800761e:	4293      	cmp	r3, r2
 8007620:	ee70 7a07 	vadd.f32	s15, s0, s14
 8007624:	bf09      	itett	eq
 8007626:	ed9f 7a71 	vldreq	s14, [pc, #452]	@ 80077ec <__ieee754_rem_pio2f+0x238>
 800762a:	eddf 6a71 	vldrne	s13, [pc, #452]	@ 80077f0 <__ieee754_rem_pio2f+0x23c>
 800762e:	eddf 6a71 	vldreq	s13, [pc, #452]	@ 80077f4 <__ieee754_rem_pio2f+0x240>
 8007632:	ee77 7a87 	vaddeq.f32	s15, s15, s14
 8007636:	ee37 7aa6 	vadd.f32	s14, s15, s13
 800763a:	ee77 7ac7 	vsub.f32	s15, s15, s14
 800763e:	ed80 7a00 	vstr	s14, [r0]
 8007642:	ee77 7aa6 	vadd.f32	s15, s15, s13
 8007646:	edc0 7a01 	vstr	s15, [r0, #4]
 800764a:	f04f 30ff 	mov.w	r0, #4294967295
 800764e:	e7e4      	b.n	800761a <__ieee754_rem_pio2f+0x66>
 8007650:	4b69      	ldr	r3, [pc, #420]	@ (80077f8 <__ieee754_rem_pio2f+0x244>)
 8007652:	429d      	cmp	r5, r3
 8007654:	d873      	bhi.n	800773e <__ieee754_rem_pio2f+0x18a>
 8007656:	f000 f8dd 	bl	8007814 <fabsf>
 800765a:	ed9f 7a68 	vldr	s14, [pc, #416]	@ 80077fc <__ieee754_rem_pio2f+0x248>
 800765e:	eef6 7a00 	vmov.f32	s15, #96	@ 0x3f000000  0.5
 8007662:	eee0 7a07 	vfma.f32	s15, s0, s14
 8007666:	eefd 7ae7 	vcvt.s32.f32	s15, s15
 800766a:	eeb8 7ae7 	vcvt.f32.s32	s14, s15
 800766e:	ee17 0a90 	vmov	r0, s15
 8007672:	eddf 7a5c 	vldr	s15, [pc, #368]	@ 80077e4 <__ieee754_rem_pio2f+0x230>
 8007676:	eea7 0a67 	vfms.f32	s0, s14, s15
 800767a:	281f      	cmp	r0, #31
 800767c:	eddf 7a5c 	vldr	s15, [pc, #368]	@ 80077f0 <__ieee754_rem_pio2f+0x23c>
 8007680:	ee67 7a27 	vmul.f32	s15, s14, s15
 8007684:	eeb1 6a47 	vneg.f32	s12, s14
 8007688:	ee70 6a67 	vsub.f32	s13, s0, s15
 800768c:	ee16 1a90 	vmov	r1, s13
 8007690:	dc09      	bgt.n	80076a6 <__ieee754_rem_pio2f+0xf2>
 8007692:	4a5b      	ldr	r2, [pc, #364]	@ (8007800 <__ieee754_rem_pio2f+0x24c>)
 8007694:	1e47      	subs	r7, r0, #1
 8007696:	f026 4300 	bic.w	r3, r6, #2147483648	@ 0x80000000
 800769a:	f852 2027 	ldr.w	r2, [r2, r7, lsl #2]
 800769e:	f023 03ff 	bic.w	r3, r3, #255	@ 0xff
 80076a2:	4293      	cmp	r3, r2
 80076a4:	d107      	bne.n	80076b6 <__ieee754_rem_pio2f+0x102>
 80076a6:	f3c1 52c7 	ubfx	r2, r1, #23, #8
 80076aa:	ebc2 52d5 	rsb	r2, r2, r5, lsr #23
 80076ae:	2a08      	cmp	r2, #8
 80076b0:	ea4f 53e5 	mov.w	r3, r5, asr #23
 80076b4:	dc14      	bgt.n	80076e0 <__ieee754_rem_pio2f+0x12c>
 80076b6:	6021      	str	r1, [r4, #0]
 80076b8:	ed94 7a00 	vldr	s14, [r4]
 80076bc:	ee30 0a47 	vsub.f32	s0, s0, s14
 80076c0:	2e00      	cmp	r6, #0
 80076c2:	ee30 0a67 	vsub.f32	s0, s0, s15
 80076c6:	ed84 0a01 	vstr	s0, [r4, #4]
 80076ca:	daa6      	bge.n	800761a <__ieee754_rem_pio2f+0x66>
 80076cc:	eeb1 7a47 	vneg.f32	s14, s14
 80076d0:	eeb1 0a40 	vneg.f32	s0, s0
 80076d4:	ed84 7a00 	vstr	s14, [r4]
 80076d8:	ed84 0a01 	vstr	s0, [r4, #4]
 80076dc:	4240      	negs	r0, r0
 80076de:	e79c      	b.n	800761a <__ieee754_rem_pio2f+0x66>
 80076e0:	eddf 5a42 	vldr	s11, [pc, #264]	@ 80077ec <__ieee754_rem_pio2f+0x238>
 80076e4:	eef0 6a40 	vmov.f32	s13, s0
 80076e8:	eee6 6a25 	vfma.f32	s13, s12, s11
 80076ec:	ee70 7a66 	vsub.f32	s15, s0, s13
 80076f0:	eee6 7a25 	vfma.f32	s15, s12, s11
 80076f4:	eddf 5a3f 	vldr	s11, [pc, #252]	@ 80077f4 <__ieee754_rem_pio2f+0x240>
 80076f8:	eed7 7a25 	vfnms.f32	s15, s14, s11
 80076fc:	ee76 5ae7 	vsub.f32	s11, s13, s15
 8007700:	ee15 2a90 	vmov	r2, s11
 8007704:	f3c2 51c7 	ubfx	r1, r2, #23, #8
 8007708:	1a5b      	subs	r3, r3, r1
 800770a:	2b19      	cmp	r3, #25
 800770c:	dc04      	bgt.n	8007718 <__ieee754_rem_pio2f+0x164>
 800770e:	edc4 5a00 	vstr	s11, [r4]
 8007712:	eeb0 0a66 	vmov.f32	s0, s13
 8007716:	e7cf      	b.n	80076b8 <__ieee754_rem_pio2f+0x104>
 8007718:	eddf 5a3a 	vldr	s11, [pc, #232]	@ 8007804 <__ieee754_rem_pio2f+0x250>
 800771c:	eeb0 0a66 	vmov.f32	s0, s13
 8007720:	eea6 0a25 	vfma.f32	s0, s12, s11
 8007724:	ee76 7ac0 	vsub.f32	s15, s13, s0
 8007728:	eddf 6a37 	vldr	s13, [pc, #220]	@ 8007808 <__ieee754_rem_pio2f+0x254>
 800772c:	eee6 7a25 	vfma.f32	s15, s12, s11
 8007730:	eed7 7a26 	vfnms.f32	s15, s14, s13
 8007734:	ee30 7a67 	vsub.f32	s14, s0, s15
 8007738:	ed84 7a00 	vstr	s14, [r4]
 800773c:	e7bc      	b.n	80076b8 <__ieee754_rem_pio2f+0x104>
 800773e:	f1b5 4fff 	cmp.w	r5, #2139095040	@ 0x7f800000
 8007742:	d306      	bcc.n	8007752 <__ieee754_rem_pio2f+0x19e>
 8007744:	ee70 7a40 	vsub.f32	s15, s0, s0
 8007748:	edc0 7a01 	vstr	s15, [r0, #4]
 800774c:	edc0 7a00 	vstr	s15, [r0]
 8007750:	e73e      	b.n	80075d0 <__ieee754_rem_pio2f+0x1c>
 8007752:	15ea      	asrs	r2, r5, #23
 8007754:	3a86      	subs	r2, #134	@ 0x86
 8007756:	eba5 53c2 	sub.w	r3, r5, r2, lsl #23
 800775a:	ee07 3a90 	vmov	s15, r3
 800775e:	eebd 7ae7 	vcvt.s32.f32	s14, s15
 8007762:	eddf 6a2a 	vldr	s13, [pc, #168]	@ 800780c <__ieee754_rem_pio2f+0x258>
 8007766:	eeb8 7ac7 	vcvt.f32.s32	s14, s14
 800776a:	ee77 7ac7 	vsub.f32	s15, s15, s14
 800776e:	ed8d 7a03 	vstr	s14, [sp, #12]
 8007772:	ee67 7aa6 	vmul.f32	s15, s15, s13
 8007776:	eebd 7ae7 	vcvt.s32.f32	s14, s15
 800777a:	eeb8 7ac7 	vcvt.f32.s32	s14, s14
 800777e:	ee77 7ac7 	vsub.f32	s15, s15, s14
 8007782:	ed8d 7a04 	vstr	s14, [sp, #16]
 8007786:	ee67 7aa6 	vmul.f32	s15, s15, s13
 800778a:	eef5 7a40 	vcmp.f32	s15, #0.0
 800778e:	eef1 fa10 	vmrs	APSR_nzcv, fpscr
 8007792:	edcd 7a05 	vstr	s15, [sp, #20]
 8007796:	d11e      	bne.n	80077d6 <__ieee754_rem_pio2f+0x222>
 8007798:	eeb5 7a40 	vcmp.f32	s14, #0.0
 800779c:	eef1 fa10 	vmrs	APSR_nzcv, fpscr
 80077a0:	bf0c      	ite	eq
 80077a2:	2301      	moveq	r3, #1
 80077a4:	2302      	movne	r3, #2
 80077a6:	491a      	ldr	r1, [pc, #104]	@ (8007810 <__ieee754_rem_pio2f+0x25c>)
 80077a8:	9101      	str	r1, [sp, #4]
 80077aa:	2102      	movs	r1, #2
 80077ac:	9100      	str	r1, [sp, #0]
 80077ae:	a803      	add	r0, sp, #12
 80077b0:	4621      	mov	r1, r4
 80077b2:	f000 f837 	bl	8007824 <__kernel_rem_pio2f>
 80077b6:	2e00      	cmp	r6, #0
 80077b8:	f6bf af2f 	bge.w	800761a <__ieee754_rem_pio2f+0x66>
 80077bc:	edd4 7a00 	vldr	s15, [r4]
 80077c0:	eef1 7a67 	vneg.f32	s15, s15
 80077c4:	edc4 7a00 	vstr	s15, [r4]
 80077c8:	edd4 7a01 	vldr	s15, [r4, #4]
 80077cc:	eef1 7a67 	vneg.f32	s15, s15
 80077d0:	edc4 7a01 	vstr	s15, [r4, #4]
 80077d4:	e782      	b.n	80076dc <__ieee754_rem_pio2f+0x128>
 80077d6:	2303      	movs	r3, #3
 80077d8:	e7e5      	b.n	80077a6 <__ieee754_rem_pio2f+0x1f2>
 80077da:	bf00      	nop
 80077dc:	3f490fd8 	.word	0x3f490fd8
 80077e0:	4016cbe3 	.word	0x4016cbe3
 80077e4:	3fc90f80 	.word	0x3fc90f80
 80077e8:	3fc90fd0 	.word	0x3fc90fd0
 80077ec:	37354400 	.word	0x37354400
 80077f0:	37354443 	.word	0x37354443
 80077f4:	2e85a308 	.word	0x2e85a308
 80077f8:	43490f80 	.word	0x43490f80
 80077fc:	3f22f984 	.word	0x3f22f984
 8007800:	080085a0 	.word	0x080085a0
 8007804:	2e85a300 	.word	0x2e85a300
 8007808:	248d3132 	.word	0x248d3132
 800780c:	43800000 	.word	0x43800000
 8007810:	08008620 	.word	0x08008620

08007814 <fabsf>:
 8007814:	ee10 3a10 	vmov	r3, s0
 8007818:	f023 4300 	bic.w	r3, r3, #2147483648	@ 0x80000000
 800781c:	ee00 3a10 	vmov	s0, r3
 8007820:	4770      	bx	lr
	...

08007824 <__kernel_rem_pio2f>:
 8007824:	e92d 4ff0 	stmdb	sp!, {r4, r5, r6, r7, r8, r9, sl, fp, lr}
 8007828:	ed2d 8b04 	vpush	{d8-d9}
 800782c:	b0d9      	sub	sp, #356	@ 0x164
 800782e:	4690      	mov	r8, r2
 8007830:	9001      	str	r0, [sp, #4]
 8007832:	4ab6      	ldr	r2, [pc, #728]	@ (8007b0c <__kernel_rem_pio2f+0x2e8>)
 8007834:	9866      	ldr	r0, [sp, #408]	@ 0x198
 8007836:	f118 0f04 	cmn.w	r8, #4
 800783a:	f852 a020 	ldr.w	sl, [r2, r0, lsl #2]
 800783e:	460f      	mov	r7, r1
 8007840:	f103 3bff 	add.w	fp, r3, #4294967295
 8007844:	db26      	blt.n	8007894 <__kernel_rem_pio2f+0x70>
 8007846:	f1b8 0203 	subs.w	r2, r8, #3
 800784a:	bf48      	it	mi
 800784c:	f108 0204 	addmi.w	r2, r8, #4
 8007850:	10d2      	asrs	r2, r2, #3
 8007852:	1c55      	adds	r5, r2, #1
 8007854:	9967      	ldr	r1, [sp, #412]	@ 0x19c
 8007856:	ed9f 7ab1 	vldr	s14, [pc, #708]	@ 8007b1c <__kernel_rem_pio2f+0x2f8>
 800785a:	00e8      	lsls	r0, r5, #3
 800785c:	eba2 060b 	sub.w	r6, r2, fp
 8007860:	9002      	str	r0, [sp, #8]
 8007862:	eba8 05c5 	sub.w	r5, r8, r5, lsl #3
 8007866:	eb0a 0c0b 	add.w	ip, sl, fp
 800786a:	ac1c      	add	r4, sp, #112	@ 0x70
 800786c:	eb01 0e86 	add.w	lr, r1, r6, lsl #2
 8007870:	2000      	movs	r0, #0
 8007872:	4560      	cmp	r0, ip
 8007874:	dd10      	ble.n	8007898 <__kernel_rem_pio2f+0x74>
 8007876:	a91c      	add	r1, sp, #112	@ 0x70
 8007878:	eb01 0083 	add.w	r0, r1, r3, lsl #2
 800787c:	f50d 7988 	add.w	r9, sp, #272	@ 0x110
 8007880:	2600      	movs	r6, #0
 8007882:	4556      	cmp	r6, sl
 8007884:	dc24      	bgt.n	80078d0 <__kernel_rem_pio2f+0xac>
 8007886:	f8dd e004 	ldr.w	lr, [sp, #4]
 800788a:	eddf 7aa4 	vldr	s15, [pc, #656]	@ 8007b1c <__kernel_rem_pio2f+0x2f8>
 800788e:	4684      	mov	ip, r0
 8007890:	2400      	movs	r4, #0
 8007892:	e016      	b.n	80078c2 <__kernel_rem_pio2f+0x9e>
 8007894:	2200      	movs	r2, #0
 8007896:	e7dc      	b.n	8007852 <__kernel_rem_pio2f+0x2e>
 8007898:	42c6      	cmn	r6, r0
 800789a:	bf5d      	ittte	pl
 800789c:	f85e 1020 	ldrpl.w	r1, [lr, r0, lsl #2]
 80078a0:	ee07 1a90 	vmovpl	s15, r1
 80078a4:	eef8 7ae7 	vcvtpl.f32.s32	s15, s15
 80078a8:	eef0 7a47 	vmovmi.f32	s15, s14
 80078ac:	ece4 7a01 	vstmia	r4!, {s15}
 80078b0:	3001      	adds	r0, #1
 80078b2:	e7de      	b.n	8007872 <__kernel_rem_pio2f+0x4e>
 80078b4:	ecfe 6a01 	vldmia	lr!, {s13}
 80078b8:	ed3c 7a01 	vldmdb	ip!, {s14}
 80078bc:	eee6 7a87 	vfma.f32	s15, s13, s14
 80078c0:	3401      	adds	r4, #1
 80078c2:	455c      	cmp	r4, fp
 80078c4:	ddf6      	ble.n	80078b4 <__kernel_rem_pio2f+0x90>
 80078c6:	ece9 7a01 	vstmia	r9!, {s15}
 80078ca:	3601      	adds	r6, #1
 80078cc:	3004      	adds	r0, #4
 80078ce:	e7d8      	b.n	8007882 <__kernel_rem_pio2f+0x5e>
 80078d0:	a908      	add	r1, sp, #32
 80078d2:	eb01 018a 	add.w	r1, r1, sl, lsl #2
 80078d6:	9104      	str	r1, [sp, #16]
 80078d8:	9967      	ldr	r1, [sp, #412]	@ 0x19c
 80078da:	eddf 8a8f 	vldr	s17, [pc, #572]	@ 8007b18 <__kernel_rem_pio2f+0x2f4>
 80078de:	ed9f 9a8d 	vldr	s18, [pc, #564]	@ 8007b14 <__kernel_rem_pio2f+0x2f0>
 80078e2:	eb01 0282 	add.w	r2, r1, r2, lsl #2
 80078e6:	9203      	str	r2, [sp, #12]
 80078e8:	4654      	mov	r4, sl
 80078ea:	00a2      	lsls	r2, r4, #2
 80078ec:	9205      	str	r2, [sp, #20]
 80078ee:	aa58      	add	r2, sp, #352	@ 0x160
 80078f0:	eb02 0284 	add.w	r2, r2, r4, lsl #2
 80078f4:	ed12 0a14 	vldr	s0, [r2, #-80]	@ 0xffffffb0
 80078f8:	a944      	add	r1, sp, #272	@ 0x110
 80078fa:	aa08      	add	r2, sp, #32
 80078fc:	eb01 0084 	add.w	r0, r1, r4, lsl #2
 8007900:	4694      	mov	ip, r2
 8007902:	4626      	mov	r6, r4
 8007904:	2e00      	cmp	r6, #0
 8007906:	dc4c      	bgt.n	80079a2 <__kernel_rem_pio2f+0x17e>
 8007908:	4628      	mov	r0, r5
 800790a:	e9cd 2306 	strd	r2, r3, [sp, #24]
 800790e:	f000 f9f1 	bl	8007cf4 <scalbnf>
 8007912:	eeb0 8a40 	vmov.f32	s16, s0
 8007916:	eeb4 0a00 	vmov.f32	s0, #64	@ 0x3e000000  0.125
 800791a:	ee28 0a00 	vmul.f32	s0, s16, s0
 800791e:	f000 fa4f 	bl	8007dc0 <floorf>
 8007922:	eef2 7a00 	vmov.f32	s15, #32	@ 0x41000000  8.0
 8007926:	eea0 8a67 	vfms.f32	s16, s0, s15
 800792a:	2d00      	cmp	r5, #0
 800792c:	e9dd 2306 	ldrd	r2, r3, [sp, #24]
 8007930:	eefd 7ac8 	vcvt.s32.f32	s15, s16
 8007934:	ee17 9a90 	vmov	r9, s15
 8007938:	eef8 7ae7 	vcvt.f32.s32	s15, s15
 800793c:	ee38 8a67 	vsub.f32	s16, s16, s15
 8007940:	dd41      	ble.n	80079c6 <__kernel_rem_pio2f+0x1a2>
 8007942:	f104 3cff 	add.w	ip, r4, #4294967295
 8007946:	a908      	add	r1, sp, #32
 8007948:	f1c5 0e08 	rsb	lr, r5, #8
 800794c:	f851 602c 	ldr.w	r6, [r1, ip, lsl #2]
 8007950:	fa46 f00e 	asr.w	r0, r6, lr
 8007954:	4481      	add	r9, r0
 8007956:	fa00 f00e 	lsl.w	r0, r0, lr
 800795a:	1a36      	subs	r6, r6, r0
 800795c:	f1c5 0007 	rsb	r0, r5, #7
 8007960:	f841 602c 	str.w	r6, [r1, ip, lsl #2]
 8007964:	4106      	asrs	r6, r0
 8007966:	2e00      	cmp	r6, #0
 8007968:	dd3c      	ble.n	80079e4 <__kernel_rem_pio2f+0x1c0>
 800796a:	f04f 0e00 	mov.w	lr, #0
 800796e:	f109 0901 	add.w	r9, r9, #1
 8007972:	4670      	mov	r0, lr
 8007974:	4574      	cmp	r4, lr
 8007976:	dc68      	bgt.n	8007a4a <__kernel_rem_pio2f+0x226>
 8007978:	2d00      	cmp	r5, #0
 800797a:	dd03      	ble.n	8007984 <__kernel_rem_pio2f+0x160>
 800797c:	2d01      	cmp	r5, #1
 800797e:	d074      	beq.n	8007a6a <__kernel_rem_pio2f+0x246>
 8007980:	2d02      	cmp	r5, #2
 8007982:	d07d      	beq.n	8007a80 <__kernel_rem_pio2f+0x25c>
 8007984:	2e02      	cmp	r6, #2
 8007986:	d12d      	bne.n	80079e4 <__kernel_rem_pio2f+0x1c0>
 8007988:	eeb7 0a00 	vmov.f32	s0, #112	@ 0x3f800000  1.0
 800798c:	ee30 8a48 	vsub.f32	s16, s0, s16
 8007990:	b340      	cbz	r0, 80079e4 <__kernel_rem_pio2f+0x1c0>
 8007992:	4628      	mov	r0, r5
 8007994:	9306      	str	r3, [sp, #24]
 8007996:	f000 f9ad 	bl	8007cf4 <scalbnf>
 800799a:	9b06      	ldr	r3, [sp, #24]
 800799c:	ee38 8a40 	vsub.f32	s16, s16, s0
 80079a0:	e020      	b.n	80079e4 <__kernel_rem_pio2f+0x1c0>
 80079a2:	ee60 7a28 	vmul.f32	s15, s0, s17
 80079a6:	3e01      	subs	r6, #1
 80079a8:	eefd 7ae7 	vcvt.s32.f32	s15, s15
 80079ac:	eef8 7ae7 	vcvt.f32.s32	s15, s15
 80079b0:	eea7 0ac9 	vfms.f32	s0, s15, s18
 80079b4:	eebd 0ac0 	vcvt.s32.f32	s0, s0
 80079b8:	ecac 0a01 	vstmia	ip!, {s0}
 80079bc:	ed30 0a01 	vldmdb	r0!, {s0}
 80079c0:	ee37 0a80 	vadd.f32	s0, s15, s0
 80079c4:	e79e      	b.n	8007904 <__kernel_rem_pio2f+0xe0>
 80079c6:	d105      	bne.n	80079d4 <__kernel_rem_pio2f+0x1b0>
 80079c8:	1e60      	subs	r0, r4, #1
 80079ca:	a908      	add	r1, sp, #32
 80079cc:	f851 6020 	ldr.w	r6, [r1, r0, lsl #2]
 80079d0:	11f6      	asrs	r6, r6, #7
 80079d2:	e7c8      	b.n	8007966 <__kernel_rem_pio2f+0x142>
 80079d4:	eef6 7a00 	vmov.f32	s15, #96	@ 0x3f000000  0.5
 80079d8:	eeb4 8ae7 	vcmpe.f32	s16, s15
 80079dc:	eef1 fa10 	vmrs	APSR_nzcv, fpscr
 80079e0:	da31      	bge.n	8007a46 <__kernel_rem_pio2f+0x222>
 80079e2:	2600      	movs	r6, #0
 80079e4:	eeb5 8a40 	vcmp.f32	s16, #0.0
 80079e8:	eef1 fa10 	vmrs	APSR_nzcv, fpscr
 80079ec:	f040 8098 	bne.w	8007b20 <__kernel_rem_pio2f+0x2fc>
 80079f0:	1e60      	subs	r0, r4, #1
 80079f2:	2200      	movs	r2, #0
 80079f4:	4550      	cmp	r0, sl
 80079f6:	da4b      	bge.n	8007a90 <__kernel_rem_pio2f+0x26c>
 80079f8:	2a00      	cmp	r2, #0
 80079fa:	d065      	beq.n	8007ac8 <__kernel_rem_pio2f+0x2a4>
 80079fc:	3c01      	subs	r4, #1
 80079fe:	ab08      	add	r3, sp, #32
 8007a00:	3d08      	subs	r5, #8
 8007a02:	f853 3024 	ldr.w	r3, [r3, r4, lsl #2]
 8007a06:	2b00      	cmp	r3, #0
 8007a08:	d0f8      	beq.n	80079fc <__kernel_rem_pio2f+0x1d8>
 8007a0a:	4628      	mov	r0, r5
 8007a0c:	eeb7 0a00 	vmov.f32	s0, #112	@ 0x3f800000  1.0
 8007a10:	f000 f970 	bl	8007cf4 <scalbnf>
 8007a14:	1c63      	adds	r3, r4, #1
 8007a16:	aa44      	add	r2, sp, #272	@ 0x110
 8007a18:	ed9f 7a3f 	vldr	s14, [pc, #252]	@ 8007b18 <__kernel_rem_pio2f+0x2f4>
 8007a1c:	0099      	lsls	r1, r3, #2
 8007a1e:	eb02 0283 	add.w	r2, r2, r3, lsl #2
 8007a22:	4623      	mov	r3, r4
 8007a24:	2b00      	cmp	r3, #0
 8007a26:	f280 80a9 	bge.w	8007b7c <__kernel_rem_pio2f+0x358>
 8007a2a:	4623      	mov	r3, r4
 8007a2c:	2b00      	cmp	r3, #0
 8007a2e:	f2c0 80c7 	blt.w	8007bc0 <__kernel_rem_pio2f+0x39c>
 8007a32:	aa44      	add	r2, sp, #272	@ 0x110
 8007a34:	eb02 0583 	add.w	r5, r2, r3, lsl #2
 8007a38:	f8df c0d4 	ldr.w	ip, [pc, #212]	@ 8007b10 <__kernel_rem_pio2f+0x2ec>
 8007a3c:	eddf 7a37 	vldr	s15, [pc, #220]	@ 8007b1c <__kernel_rem_pio2f+0x2f8>
 8007a40:	2000      	movs	r0, #0
 8007a42:	1ae2      	subs	r2, r4, r3
 8007a44:	e0b1      	b.n	8007baa <__kernel_rem_pio2f+0x386>
 8007a46:	2602      	movs	r6, #2
 8007a48:	e78f      	b.n	800796a <__kernel_rem_pio2f+0x146>
 8007a4a:	f852 1b04 	ldr.w	r1, [r2], #4
 8007a4e:	b948      	cbnz	r0, 8007a64 <__kernel_rem_pio2f+0x240>
 8007a50:	b121      	cbz	r1, 8007a5c <__kernel_rem_pio2f+0x238>
 8007a52:	f5c1 7180 	rsb	r1, r1, #256	@ 0x100
 8007a56:	f842 1c04 	str.w	r1, [r2, #-4]
 8007a5a:	2101      	movs	r1, #1
 8007a5c:	f10e 0e01 	add.w	lr, lr, #1
 8007a60:	4608      	mov	r0, r1
 8007a62:	e787      	b.n	8007974 <__kernel_rem_pio2f+0x150>
 8007a64:	f1c1 01ff 	rsb	r1, r1, #255	@ 0xff
 8007a68:	e7f5      	b.n	8007a56 <__kernel_rem_pio2f+0x232>
 8007a6a:	f104 3cff 	add.w	ip, r4, #4294967295
 8007a6e:	aa08      	add	r2, sp, #32
 8007a70:	f852 202c 	ldr.w	r2, [r2, ip, lsl #2]
 8007a74:	f002 027f 	and.w	r2, r2, #127	@ 0x7f
 8007a78:	a908      	add	r1, sp, #32
 8007a7a:	f841 202c 	str.w	r2, [r1, ip, lsl #2]
 8007a7e:	e781      	b.n	8007984 <__kernel_rem_pio2f+0x160>
 8007a80:	f104 3cff 	add.w	ip, r4, #4294967295
 8007a84:	aa08      	add	r2, sp, #32
 8007a86:	f852 202c 	ldr.w	r2, [r2, ip, lsl #2]
 8007a8a:	f002 023f 	and.w	r2, r2, #63	@ 0x3f
 8007a8e:	e7f3      	b.n	8007a78 <__kernel_rem_pio2f+0x254>
 8007a90:	a908      	add	r1, sp, #32
 8007a92:	f851 1020 	ldr.w	r1, [r1, r0, lsl #2]
 8007a96:	3801      	subs	r0, #1
 8007a98:	430a      	orrs	r2, r1
 8007a9a:	e7ab      	b.n	80079f4 <__kernel_rem_pio2f+0x1d0>
 8007a9c:	3201      	adds	r2, #1
 8007a9e:	f850 6d04 	ldr.w	r6, [r0, #-4]!
 8007aa2:	2e00      	cmp	r6, #0
 8007aa4:	d0fa      	beq.n	8007a9c <__kernel_rem_pio2f+0x278>
 8007aa6:	9905      	ldr	r1, [sp, #20]
 8007aa8:	f501 71b0 	add.w	r1, r1, #352	@ 0x160
 8007aac:	eb0d 0001 	add.w	r0, sp, r1
 8007ab0:	18e6      	adds	r6, r4, r3
 8007ab2:	a91c      	add	r1, sp, #112	@ 0x70
 8007ab4:	f104 0c01 	add.w	ip, r4, #1
 8007ab8:	384c      	subs	r0, #76	@ 0x4c
 8007aba:	eb01 0686 	add.w	r6, r1, r6, lsl #2
 8007abe:	4422      	add	r2, r4
 8007ac0:	4562      	cmp	r2, ip
 8007ac2:	da04      	bge.n	8007ace <__kernel_rem_pio2f+0x2aa>
 8007ac4:	4614      	mov	r4, r2
 8007ac6:	e710      	b.n	80078ea <__kernel_rem_pio2f+0xc6>
 8007ac8:	9804      	ldr	r0, [sp, #16]
 8007aca:	2201      	movs	r2, #1
 8007acc:	e7e7      	b.n	8007a9e <__kernel_rem_pio2f+0x27a>
 8007ace:	9903      	ldr	r1, [sp, #12]
 8007ad0:	f8dd e004 	ldr.w	lr, [sp, #4]
 8007ad4:	f851 102c 	ldr.w	r1, [r1, ip, lsl #2]
 8007ad8:	9105      	str	r1, [sp, #20]
 8007ada:	ee07 1a90 	vmov	s15, r1
 8007ade:	eef8 7ae7 	vcvt.f32.s32	s15, s15
 8007ae2:	2400      	movs	r4, #0
 8007ae4:	ece6 7a01 	vstmia	r6!, {s15}
 8007ae8:	eddf 7a0c 	vldr	s15, [pc, #48]	@ 8007b1c <__kernel_rem_pio2f+0x2f8>
 8007aec:	46b1      	mov	r9, r6
 8007aee:	455c      	cmp	r4, fp
 8007af0:	dd04      	ble.n	8007afc <__kernel_rem_pio2f+0x2d8>
 8007af2:	ece0 7a01 	vstmia	r0!, {s15}
 8007af6:	f10c 0c01 	add.w	ip, ip, #1
 8007afa:	e7e1      	b.n	8007ac0 <__kernel_rem_pio2f+0x29c>
 8007afc:	ecfe 6a01 	vldmia	lr!, {s13}
 8007b00:	ed39 7a01 	vldmdb	r9!, {s14}
 8007b04:	3401      	adds	r4, #1
 8007b06:	eee6 7a87 	vfma.f32	s15, s13, s14
 8007b0a:	e7f0      	b.n	8007aee <__kernel_rem_pio2f+0x2ca>
 8007b0c:	08008964 	.word	0x08008964
 8007b10:	08008938 	.word	0x08008938
 8007b14:	43800000 	.word	0x43800000
 8007b18:	3b800000 	.word	0x3b800000
 8007b1c:	00000000 	.word	0x00000000
 8007b20:	9b02      	ldr	r3, [sp, #8]
 8007b22:	eeb0 0a48 	vmov.f32	s0, s16
 8007b26:	eba3 0008 	sub.w	r0, r3, r8
 8007b2a:	f000 f8e3 	bl	8007cf4 <scalbnf>
 8007b2e:	ed1f 7a07 	vldr	s14, [pc, #-28]	@ 8007b14 <__kernel_rem_pio2f+0x2f0>
 8007b32:	eeb4 0ac7 	vcmpe.f32	s0, s14
 8007b36:	eef1 fa10 	vmrs	APSR_nzcv, fpscr
 8007b3a:	db19      	blt.n	8007b70 <__kernel_rem_pio2f+0x34c>
 8007b3c:	ed5f 7a0a 	vldr	s15, [pc, #-40]	@ 8007b18 <__kernel_rem_pio2f+0x2f4>
 8007b40:	ee60 7a27 	vmul.f32	s15, s0, s15
 8007b44:	aa08      	add	r2, sp, #32
 8007b46:	eefd 7ae7 	vcvt.s32.f32	s15, s15
 8007b4a:	3508      	adds	r5, #8
 8007b4c:	eef8 7ae7 	vcvt.f32.s32	s15, s15
 8007b50:	eea7 0ac7 	vfms.f32	s0, s15, s14
 8007b54:	eefd 7ae7 	vcvt.s32.f32	s15, s15
 8007b58:	eebd 0ac0 	vcvt.s32.f32	s0, s0
 8007b5c:	ee10 3a10 	vmov	r3, s0
 8007b60:	f842 3024 	str.w	r3, [r2, r4, lsl #2]
 8007b64:	ee17 3a90 	vmov	r3, s15
 8007b68:	3401      	adds	r4, #1
 8007b6a:	f842 3024 	str.w	r3, [r2, r4, lsl #2]
 8007b6e:	e74c      	b.n	8007a0a <__kernel_rem_pio2f+0x1e6>
 8007b70:	eebd 0ac0 	vcvt.s32.f32	s0, s0
 8007b74:	aa08      	add	r2, sp, #32
 8007b76:	ee10 3a10 	vmov	r3, s0
 8007b7a:	e7f6      	b.n	8007b6a <__kernel_rem_pio2f+0x346>
 8007b7c:	a808      	add	r0, sp, #32
 8007b7e:	f850 0023 	ldr.w	r0, [r0, r3, lsl #2]
 8007b82:	9001      	str	r0, [sp, #4]
 8007b84:	ee07 0a90 	vmov	s15, r0
 8007b88:	eef8 7ae7 	vcvt.f32.s32	s15, s15
 8007b8c:	3b01      	subs	r3, #1
 8007b8e:	ee67 7a80 	vmul.f32	s15, s15, s0
 8007b92:	ee20 0a07 	vmul.f32	s0, s0, s14
 8007b96:	ed62 7a01 	vstmdb	r2!, {s15}
 8007b9a:	e743      	b.n	8007a24 <__kernel_rem_pio2f+0x200>
 8007b9c:	ecfc 6a01 	vldmia	ip!, {s13}
 8007ba0:	ecb5 7a01 	vldmia	r5!, {s14}
 8007ba4:	eee6 7a87 	vfma.f32	s15, s13, s14
 8007ba8:	3001      	adds	r0, #1
 8007baa:	4550      	cmp	r0, sl
 8007bac:	dc01      	bgt.n	8007bb2 <__kernel_rem_pio2f+0x38e>
 8007bae:	4290      	cmp	r0, r2
 8007bb0:	ddf4      	ble.n	8007b9c <__kernel_rem_pio2f+0x378>
 8007bb2:	a858      	add	r0, sp, #352	@ 0x160
 8007bb4:	eb00 0282 	add.w	r2, r0, r2, lsl #2
 8007bb8:	ed42 7a28 	vstr	s15, [r2, #-160]	@ 0xffffff60
 8007bbc:	3b01      	subs	r3, #1
 8007bbe:	e735      	b.n	8007a2c <__kernel_rem_pio2f+0x208>
 8007bc0:	9b66      	ldr	r3, [sp, #408]	@ 0x198
 8007bc2:	2b02      	cmp	r3, #2
 8007bc4:	dc09      	bgt.n	8007bda <__kernel_rem_pio2f+0x3b6>
 8007bc6:	2b00      	cmp	r3, #0
 8007bc8:	dc27      	bgt.n	8007c1a <__kernel_rem_pio2f+0x3f6>
 8007bca:	d040      	beq.n	8007c4e <__kernel_rem_pio2f+0x42a>
 8007bcc:	f009 0007 	and.w	r0, r9, #7
 8007bd0:	b059      	add	sp, #356	@ 0x164
 8007bd2:	ecbd 8b04 	vpop	{d8-d9}
 8007bd6:	e8bd 8ff0 	ldmia.w	sp!, {r4, r5, r6, r7, r8, r9, sl, fp, pc}
 8007bda:	9b66      	ldr	r3, [sp, #408]	@ 0x198
 8007bdc:	2b03      	cmp	r3, #3
 8007bde:	d1f5      	bne.n	8007bcc <__kernel_rem_pio2f+0x3a8>
 8007be0:	aa30      	add	r2, sp, #192	@ 0xc0
 8007be2:	1f0b      	subs	r3, r1, #4
 8007be4:	4413      	add	r3, r2
 8007be6:	461a      	mov	r2, r3
 8007be8:	4620      	mov	r0, r4
 8007bea:	2800      	cmp	r0, #0
 8007bec:	dc50      	bgt.n	8007c90 <__kernel_rem_pio2f+0x46c>
 8007bee:	4622      	mov	r2, r4
 8007bf0:	2a01      	cmp	r2, #1
 8007bf2:	dc5d      	bgt.n	8007cb0 <__kernel_rem_pio2f+0x48c>
 8007bf4:	ab30      	add	r3, sp, #192	@ 0xc0
 8007bf6:	ed5f 7a37 	vldr	s15, [pc, #-220]	@ 8007b1c <__kernel_rem_pio2f+0x2f8>
 8007bfa:	440b      	add	r3, r1
 8007bfc:	2c01      	cmp	r4, #1
 8007bfe:	dc67      	bgt.n	8007cd0 <__kernel_rem_pio2f+0x4ac>
 8007c00:	eddd 6a30 	vldr	s13, [sp, #192]	@ 0xc0
 8007c04:	ed9d 7a31 	vldr	s14, [sp, #196]	@ 0xc4
 8007c08:	2e00      	cmp	r6, #0
 8007c0a:	d167      	bne.n	8007cdc <__kernel_rem_pio2f+0x4b8>
 8007c0c:	edc7 6a00 	vstr	s13, [r7]
 8007c10:	ed87 7a01 	vstr	s14, [r7, #4]
 8007c14:	edc7 7a02 	vstr	s15, [r7, #8]
 8007c18:	e7d8      	b.n	8007bcc <__kernel_rem_pio2f+0x3a8>
 8007c1a:	ab30      	add	r3, sp, #192	@ 0xc0
 8007c1c:	ed1f 7a41 	vldr	s14, [pc, #-260]	@ 8007b1c <__kernel_rem_pio2f+0x2f8>
 8007c20:	440b      	add	r3, r1
 8007c22:	4622      	mov	r2, r4
 8007c24:	2a00      	cmp	r2, #0
 8007c26:	da24      	bge.n	8007c72 <__kernel_rem_pio2f+0x44e>
 8007c28:	b34e      	cbz	r6, 8007c7e <__kernel_rem_pio2f+0x45a>
 8007c2a:	eef1 7a47 	vneg.f32	s15, s14
 8007c2e:	edc7 7a00 	vstr	s15, [r7]
 8007c32:	eddd 7a30 	vldr	s15, [sp, #192]	@ 0xc0
 8007c36:	ee77 7ac7 	vsub.f32	s15, s15, s14
 8007c3a:	aa31      	add	r2, sp, #196	@ 0xc4
 8007c3c:	2301      	movs	r3, #1
 8007c3e:	429c      	cmp	r4, r3
 8007c40:	da20      	bge.n	8007c84 <__kernel_rem_pio2f+0x460>
 8007c42:	b10e      	cbz	r6, 8007c48 <__kernel_rem_pio2f+0x424>
 8007c44:	eef1 7a67 	vneg.f32	s15, s15
 8007c48:	edc7 7a01 	vstr	s15, [r7, #4]
 8007c4c:	e7be      	b.n	8007bcc <__kernel_rem_pio2f+0x3a8>
 8007c4e:	ab30      	add	r3, sp, #192	@ 0xc0
 8007c50:	ed5f 7a4e 	vldr	s15, [pc, #-312]	@ 8007b1c <__kernel_rem_pio2f+0x2f8>
 8007c54:	440b      	add	r3, r1
 8007c56:	2c00      	cmp	r4, #0
 8007c58:	da05      	bge.n	8007c66 <__kernel_rem_pio2f+0x442>
 8007c5a:	b10e      	cbz	r6, 8007c60 <__kernel_rem_pio2f+0x43c>
 8007c5c:	eef1 7a67 	vneg.f32	s15, s15
 8007c60:	edc7 7a00 	vstr	s15, [r7]
 8007c64:	e7b2      	b.n	8007bcc <__kernel_rem_pio2f+0x3a8>
 8007c66:	ed33 7a01 	vldmdb	r3!, {s14}
 8007c6a:	3c01      	subs	r4, #1
 8007c6c:	ee77 7a87 	vadd.f32	s15, s15, s14
 8007c70:	e7f1      	b.n	8007c56 <__kernel_rem_pio2f+0x432>
 8007c72:	ed73 7a01 	vldmdb	r3!, {s15}
 8007c76:	3a01      	subs	r2, #1
 8007c78:	ee37 7a27 	vadd.f32	s14, s14, s15
 8007c7c:	e7d2      	b.n	8007c24 <__kernel_rem_pio2f+0x400>
 8007c7e:	eef0 7a47 	vmov.f32	s15, s14
 8007c82:	e7d4      	b.n	8007c2e <__kernel_rem_pio2f+0x40a>
 8007c84:	ecb2 7a01 	vldmia	r2!, {s14}
 8007c88:	3301      	adds	r3, #1
 8007c8a:	ee77 7a87 	vadd.f32	s15, s15, s14
 8007c8e:	e7d6      	b.n	8007c3e <__kernel_rem_pio2f+0x41a>
 8007c90:	ed72 7a01 	vldmdb	r2!, {s15}
 8007c94:	edd2 6a01 	vldr	s13, [r2, #4]
 8007c98:	ee37 7aa6 	vadd.f32	s14, s15, s13
 8007c9c:	3801      	subs	r0, #1
 8007c9e:	ee77 7ac7 	vsub.f32	s15, s15, s14
 8007ca2:	ed82 7a00 	vstr	s14, [r2]
 8007ca6:	ee77 7aa6 	vadd.f32	s15, s15, s13
 8007caa:	edc2 7a01 	vstr	s15, [r2, #4]
 8007cae:	e79c      	b.n	8007bea <__kernel_rem_pio2f+0x3c6>
 8007cb0:	ed73 7a01 	vldmdb	r3!, {s15}
 8007cb4:	edd3 6a01 	vldr	s13, [r3, #4]
 8007cb8:	ee37 7aa6 	vadd.f32	s14, s15, s13
 8007cbc:	3a01      	subs	r2, #1
 8007cbe:	ee77 7ac7 	vsub.f32	s15, s15, s14
 8007cc2:	ed83 7a00 	vstr	s14, [r3]
 8007cc6:	ee77 7aa6 	vadd.f32	s15, s15, s13
 8007cca:	edc3 7a01 	vstr	s15, [r3, #4]
 8007cce:	e78f      	b.n	8007bf0 <__kernel_rem_pio2f+0x3cc>
 8007cd0:	ed33 7a01 	vldmdb	r3!, {s14}
 8007cd4:	3c01      	subs	r4, #1
 8007cd6:	ee77 7a87 	vadd.f32	s15, s15, s14
 8007cda:	e78f      	b.n	8007bfc <__kernel_rem_pio2f+0x3d8>
 8007cdc:	eef1 6a66 	vneg.f32	s13, s13
 8007ce0:	eeb1 7a47 	vneg.f32	s14, s14
 8007ce4:	edc7 6a00 	vstr	s13, [r7]
 8007ce8:	ed87 7a01 	vstr	s14, [r7, #4]
 8007cec:	eef1 7a67 	vneg.f32	s15, s15
 8007cf0:	e790      	b.n	8007c14 <__kernel_rem_pio2f+0x3f0>
 8007cf2:	bf00      	nop

08007cf4 <scalbnf>:
 8007cf4:	ee10 3a10 	vmov	r3, s0
 8007cf8:	f033 4200 	bics.w	r2, r3, #2147483648	@ 0x80000000
 8007cfc:	d02b      	beq.n	8007d56 <scalbnf+0x62>
 8007cfe:	f1b2 4fff 	cmp.w	r2, #2139095040	@ 0x7f800000
 8007d02:	d302      	bcc.n	8007d0a <scalbnf+0x16>
 8007d04:	ee30 0a00 	vadd.f32	s0, s0, s0
 8007d08:	4770      	bx	lr
 8007d0a:	f013 4fff 	tst.w	r3, #2139095040	@ 0x7f800000
 8007d0e:	d123      	bne.n	8007d58 <scalbnf+0x64>
 8007d10:	4b24      	ldr	r3, [pc, #144]	@ (8007da4 <scalbnf+0xb0>)
 8007d12:	eddf 7a25 	vldr	s15, [pc, #148]	@ 8007da8 <scalbnf+0xb4>
 8007d16:	4298      	cmp	r0, r3
 8007d18:	ee20 0a27 	vmul.f32	s0, s0, s15
 8007d1c:	db17      	blt.n	8007d4e <scalbnf+0x5a>
 8007d1e:	ee10 3a10 	vmov	r3, s0
 8007d22:	f3c3 52c7 	ubfx	r2, r3, #23, #8
 8007d26:	3a19      	subs	r2, #25
 8007d28:	f24c 3150 	movw	r1, #50000	@ 0xc350
 8007d2c:	4288      	cmp	r0, r1
 8007d2e:	dd15      	ble.n	8007d5c <scalbnf+0x68>
 8007d30:	eddf 7a1e 	vldr	s15, [pc, #120]	@ 8007dac <scalbnf+0xb8>
 8007d34:	eddf 6a1e 	vldr	s13, [pc, #120]	@ 8007db0 <scalbnf+0xbc>
 8007d38:	ee10 3a10 	vmov	r3, s0
 8007d3c:	eeb0 7a67 	vmov.f32	s14, s15
 8007d40:	2b00      	cmp	r3, #0
 8007d42:	bfb8      	it	lt
 8007d44:	eef0 7a66 	vmovlt.f32	s15, s13
 8007d48:	ee27 0a87 	vmul.f32	s0, s15, s14
 8007d4c:	4770      	bx	lr
 8007d4e:	eddf 7a19 	vldr	s15, [pc, #100]	@ 8007db4 <scalbnf+0xc0>
 8007d52:	ee27 0a80 	vmul.f32	s0, s15, s0
 8007d56:	4770      	bx	lr
 8007d58:	0dd2      	lsrs	r2, r2, #23
 8007d5a:	e7e5      	b.n	8007d28 <scalbnf+0x34>
 8007d5c:	4410      	add	r0, r2
 8007d5e:	28fe      	cmp	r0, #254	@ 0xfe
 8007d60:	dce6      	bgt.n	8007d30 <scalbnf+0x3c>
 8007d62:	2800      	cmp	r0, #0
 8007d64:	dd06      	ble.n	8007d74 <scalbnf+0x80>
 8007d66:	f023 43ff 	bic.w	r3, r3, #2139095040	@ 0x7f800000
 8007d6a:	ea43 53c0 	orr.w	r3, r3, r0, lsl #23
 8007d6e:	ee00 3a10 	vmov	s0, r3
 8007d72:	4770      	bx	lr
 8007d74:	f110 0f16 	cmn.w	r0, #22
 8007d78:	da09      	bge.n	8007d8e <scalbnf+0x9a>
 8007d7a:	eddf 7a0e 	vldr	s15, [pc, #56]	@ 8007db4 <scalbnf+0xc0>
 8007d7e:	eddf 6a0e 	vldr	s13, [pc, #56]	@ 8007db8 <scalbnf+0xc4>
 8007d82:	ee10 3a10 	vmov	r3, s0
 8007d86:	eeb0 7a67 	vmov.f32	s14, s15
 8007d8a:	2b00      	cmp	r3, #0
 8007d8c:	e7d9      	b.n	8007d42 <scalbnf+0x4e>
 8007d8e:	3019      	adds	r0, #25
 8007d90:	f023 43ff 	bic.w	r3, r3, #2139095040	@ 0x7f800000
 8007d94:	ea43 53c0 	orr.w	r3, r3, r0, lsl #23
 8007d98:	ed9f 0a08 	vldr	s0, [pc, #32]	@ 8007dbc <scalbnf+0xc8>
 8007d9c:	ee07 3a90 	vmov	s15, r3
 8007da0:	e7d7      	b.n	8007d52 <scalbnf+0x5e>
 8007da2:	bf00      	nop
 8007da4:	ffff3cb0 	.word	0xffff3cb0
 8007da8:	4c000000 	.word	0x4c000000
 8007dac:	7149f2ca 	.word	0x7149f2ca
 8007db0:	f149f2ca 	.word	0xf149f2ca
 8007db4:	0da24260 	.word	0x0da24260
 8007db8:	8da24260 	.word	0x8da24260
 8007dbc:	33000000 	.word	0x33000000

08007dc0 <floorf>:
 8007dc0:	ee10 3a10 	vmov	r3, s0
 8007dc4:	f3c3 52c7 	ubfx	r2, r3, #23, #8
 8007dc8:	3a7f      	subs	r2, #127	@ 0x7f
 8007dca:	2a16      	cmp	r2, #22
 8007dcc:	f023 4100 	bic.w	r1, r3, #2147483648	@ 0x80000000
 8007dd0:	dc2b      	bgt.n	8007e2a <floorf+0x6a>
 8007dd2:	2a00      	cmp	r2, #0
 8007dd4:	da12      	bge.n	8007dfc <floorf+0x3c>
 8007dd6:	eddf 7a19 	vldr	s15, [pc, #100]	@ 8007e3c <floorf+0x7c>
 8007dda:	ee30 0a27 	vadd.f32	s0, s0, s15
 8007dde:	eeb5 0ac0 	vcmpe.f32	s0, #0.0
 8007de2:	eef1 fa10 	vmrs	APSR_nzcv, fpscr
 8007de6:	dd06      	ble.n	8007df6 <floorf+0x36>
 8007de8:	2b00      	cmp	r3, #0
 8007dea:	da24      	bge.n	8007e36 <floorf+0x76>
 8007dec:	2900      	cmp	r1, #0
 8007dee:	4b14      	ldr	r3, [pc, #80]	@ (8007e40 <floorf+0x80>)
 8007df0:	bf08      	it	eq
 8007df2:	f04f 4300 	moveq.w	r3, #2147483648	@ 0x80000000
 8007df6:	ee00 3a10 	vmov	s0, r3
 8007dfa:	4770      	bx	lr
 8007dfc:	4911      	ldr	r1, [pc, #68]	@ (8007e44 <floorf+0x84>)
 8007dfe:	4111      	asrs	r1, r2
 8007e00:	420b      	tst	r3, r1
 8007e02:	d0fa      	beq.n	8007dfa <floorf+0x3a>
 8007e04:	eddf 7a0d 	vldr	s15, [pc, #52]	@ 8007e3c <floorf+0x7c>
 8007e08:	ee30 0a27 	vadd.f32	s0, s0, s15
 8007e0c:	eeb5 0ac0 	vcmpe.f32	s0, #0.0
 8007e10:	eef1 fa10 	vmrs	APSR_nzcv, fpscr
 8007e14:	ddef      	ble.n	8007df6 <floorf+0x36>
 8007e16:	2b00      	cmp	r3, #0
 8007e18:	bfbe      	ittt	lt
 8007e1a:	f44f 0000 	movlt.w	r0, #8388608	@ 0x800000
 8007e1e:	fa40 f202 	asrlt.w	r2, r0, r2
 8007e22:	189b      	addlt	r3, r3, r2
 8007e24:	ea23 0301 	bic.w	r3, r3, r1
 8007e28:	e7e5      	b.n	8007df6 <floorf+0x36>
 8007e2a:	f1b1 4fff 	cmp.w	r1, #2139095040	@ 0x7f800000
 8007e2e:	d3e4      	bcc.n	8007dfa <floorf+0x3a>
 8007e30:	ee30 0a00 	vadd.f32	s0, s0, s0
 8007e34:	4770      	bx	lr
 8007e36:	2300      	movs	r3, #0
 8007e38:	e7dd      	b.n	8007df6 <floorf+0x36>
 8007e3a:	bf00      	nop
 8007e3c:	7149f2ca 	.word	0x7149f2ca
 8007e40:	bf800000 	.word	0xbf800000
 8007e44:	007fffff 	.word	0x007fffff

08007e48 <_init>:
 8007e48:	b5f8      	push	{r3, r4, r5, r6, r7, lr}
 8007e4a:	bf00      	nop
 8007e4c:	bcf8      	pop	{r3, r4, r5, r6, r7}
 8007e4e:	bc08      	pop	{r3}
 8007e50:	469e      	mov	lr, r3
 8007e52:	4770      	bx	lr

08007e54 <_fini>:
 8007e54:	b5f8      	push	{r3, r4, r5, r6, r7, lr}
 8007e56:	bf00      	nop
 8007e58:	bcf8      	pop	{r3, r4, r5, r6, r7}
 8007e5a:	bc08      	pop	{r3}
 8007e5c:	469e      	mov	lr, r3
 8007e5e:	4770      	bx	lr
